(dp0
S'parentFilename'
p1
S'intercept0.pickle'
p2
sS'time'
p3
NsS'filename'
p4
S'intercept0.1133_0.pickle'
p5
sS'seed'
p6
S'11330238859247733687'
p7
sS'fuzzer'
p8
S'Radamsa'
p9
sS'networkData'
p10
(lp11
(dp12
S'latency'
p13
NsS'from'
p14
S'cli'
p15
sS'index'
p16
I0
sS'timeouts'
p17
I0
sS'isFuzzed'
p18
I01
sS'data'
p19
S'\xf3\xa0\x81\x93m\xf3\xa0\xf3\xa0\x80\xa5\x81\xf3\xa0\x81\xae\xf3\xa0\x80\xa5\x81\x94y'
p20
sa(dp21
g17
I0
sg19
S' \x02\x00\x00'
p22
sg14
S'srv'
p23
sg13
F3.8234817466121535e-05
sg16
I1
sa(dp24
g17
I0
sg19
S'\x82\x0b\x00*\x00\x06/stuff\x00'
p25
sg14
g15
sg13
Nsg16
I2
sa(dp26
g17
I0
sg19
S'\x92\x03\x00*\x00'
p27
sg14
g23
sg13
F2.5148480575216802e-05
sg16
I3
sas.