(dp0
S'parentFilename'
p1
S'intercept0.1828_0.6538_0.1175_0.4035_0.pickle'
p2
sS'time'
p3
NsS'filename'
p4
S'intercept0.1828_0.6538_0.1175_0.4035_0.1426_0.pickle'
p5
sS'seed'
p6
S'14262163359902354019'
p7
sS'fuzzer'
p8
S'Radamsa'
p9
sS'networkData'
p10
(lp11
(dp12
S'latency'
p13
NsS'from'
p14
S'cli'
p15
sS'index'
p16
I0
sS'timeouts'
p17
I0
sS'isFuzzed'
p18
I01
sS'data'
p19
S'B\x10\xf3\xa0\x81\xbas\xf3\xf3\xa0\x81\x8e\xa0\x81\x8afsymm'
p20
sa(dp21
g17
I0
sg14
S'srv'
p22
sg19
S' \x02\x00\x00'
p23
sg16
I1
sg13
Nsa(dp24
g17
I0
sg14
g15
sg19
S'\x82\x0b\x00*\x00\x06/stuff\x00'
p25
sg16
I2
sg13
Nsa(dp26
g17
I0
sg14
g22
sg19
S'\x92\x03\x00*\x00'
p27
sg16
I3
sg13
Nsas.