(dp0
S'parentFilename'
p1
S'intercept0.1828_0.6538_0.1175_0.pickle'
p2
sS'time'
p3
NsS'filename'
p4
S'intercept0.1828_0.6538_0.1175_0.9113_2.pickle'
p5
sS'seed'
p6
S'9113609062303723971'
p7
sS'fuzzer'
p8
S'Radamsa'
p9
sS'networkData'
p10
(lp11
(dp12
S'latency'
p13
NsS'from'
p14
S'cli'
p15
sS'index'
p16
I0
sS'timeouts'
p17
I0
sS'isFuzzed'
p18
I01
sS'data'
p19
S'\x10\x10\xf3\xa0\x81ITT\x11\x11MTT\x11\x11\x04\x00\x87\x04QT\x04T\x00\x00\x87\x04Q\x00\xc0\x80<\x00\x04dv\xddsfsymm'
p20
sa(dp21
g17
I0
sg19
S' \x02\x00\x00'
p22
sg14
S'srv'
p23
sg13
Nsg16
I1
sa(dp24
g13
Nsg14
g15
sg16
I2
sg17
I0
sS'isFuzzed'
p25
I01
sg19
S'\x82\x0b\x00*\x00\x06/stf\x00'
p26
sa(dp27
g17
I0
sg19
S'\x92\x03\x00*\x00'
p28
sg14
g23
sg13
Nsg16
I3
sas.