(dp0
S'parentFilename'
p1
S'intercept0.1828_0.6538_0.1175_0.4180_0.7190_0.3480_0.pickle'
p2
sS'time'
p3
NsS'filename'
p4
S'intercept0.1828_0.6538_0.1175_0.4180_0.7190_0.3480_0.1052_0.pickle'
p5
sS'seed'
p6
S'10525996609378144092'
p7
sS'fuzzer'
p8
S'Radamsa'
p9
sS'networkData'
p10
(lp11
(dp12
S'latency'
p13
NsS'from'
p14
S'cli'
p15
sS'index'
p16
I0
sS'timeouts'
p17
I0
sS'isFuzzed'
p18
I01
sS'data'
p19
S'\x10\x10\xf3\xa0\x81IT\xa0\x87\x11\x11\xf3\x00T\x04TT\x81\x11\x11L\x94\x04QT\x04T\x00\x00\x11\x87\x04Q\x00\xc0\xf0\x9d\x85\xa0\x80<\x00\xe2\x81\xa6\x04dv\xddsfsymymymymymymymymymymymymymymymymymymymymymymymymymymymymymymymymymymymymymymymymymymymymymymym\x0e\xfe\xffmyymymymymymymymymmymymymymymymymymymym\x0e\xfe\xffmyymymymymymymymymymymymymymymymymymymymymym\xf3\xa0\x81\x9dymymymym\xfb\xee(ymymymymymymymymymym\xe2\x80\x80ymymymymymymymymymymymymymymymymymymymymymymymymymymymymymymymymymymymymymymymymymymymymymymymymymymymymymymymymymy\xf3\xa0\x81\x9dymymymym\xfb\xee(ymymymymymymymymymym\xe2\x80\x80ymymymymymymymymymymymymymymymymymymymymymymymymymymymymymymymymymymymymymymymymymymymymymymymymymymymymymymymymymy\xf3\xa0\x81\x9dymymymym\xfb\xee(ymymymymymymymymymym\xe2\x80\x80ymymymymymymymymymymymymymymymymymymymymymymymymymymymymymymymymymymymymymymymymymymymymymymymymymymymymymymymymymymymymymymymymymymymymymymymymymymymymymymm'
p20
sa(dp21
g17
I0
sg19
S' \x02\x00\x00'
p22
sg14
S'srv'
p23
sg13
F0.00023919343948364258
sg16
I1
sa(dp24
g17
I0
sg19
S'\x82\x0b\x00*\x00\x06/stuff\x00'
p25
sg14
g15
sg13
Nsg16
I2
sa(dp26
g17
I0
sg19
S'\x92\x03\x00*\x00'
p27
sg14
g23
sg13
F0.000156402587890625
sg16
I3
sas.