(dp0
S'parentFilename'
p1
S'intercept0.4172_2.pickle'
p2
sS'time'
p3
NsS'filename'
p4
S'intercept0.4172_2.3418_2.pickle'
p5
sS'seed'
p6
S'3418866839199883599'
p7
sS'fuzzer'
p8
S'Radamsa'
p9
sS'networkData'
p10
(lp11
(dp12
S'timeouts'
p13
I0
sS'from'
p14
S'cli'
p15
sS'data'
p16
S'\x10\x11\x00\x04MQTT\x04\x00\x00<\x00\x05dummy'
p17
sS'index'
p18
I0
sS'latency'
p19
Nsa(dp20
g13
I0
sg14
S'srv'
p21
sg16
S' \x02\x00\x00'
p22
sg18
I1
sg19
F2.579009742476046e-05
sa(dp23
g19
Nsg14
g15
sg18
I2
sg13
I0
sS'isFuzzed'
p24
I01
sg16
S'\xff\xff\x00\x00\x82\x0b\x00\xe2\x80\x81*\xf3\xa0\x81\xb5\x00\x06\xc0\xafs\xf3\xa0\x80\xa7\xf3\xa0\x81\x8etuff\x00'
p25
sa(dp26
g13
I0
sg14
g21
sg16
S'\x92\x03\x00*\x00'
p27
sg18
I3
sg19
F0.0001399517059326172
sas.