(dp0
S'parentFilename'
p1
S'intercept0.4172_2.3418_2.pickle'
p2
sS'time'
p3
NsS'filename'
p4
S'intercept0.4172_2.3418_2.8223_0.pickle'
p5
sS'seed'
p6
S'8223868598817511836'
p7
sS'fuzzer'
p8
S'Radamsa'
p9
sS'networkData'
p10
(lp11
(dp12
S'index'
p13
I0
sS'from'
p14
S'cli'
p15
sS'latency'
p16
NsS'timeouts'
p17
I0
sS'isFuzzed'
p18
I01
sS'data'
p19
S'\x10\x11\x00\x04MQTT\x04\x00\x00\xf3\xa0\x81\x9d<\x00\x05dummy'
p20
sa(dp21
g17
I0
sg14
S'srv'
p22
sg19
S' \x02\x00\x00'
p23
sg13
I1
sg16
F0.0001886053942143917
sa(dp24
g16
Nsg14
g15
sg13
I2
sg17
I0
sS'isFuzzed'
p25
I01
sg19
S'\xff\xff\x00\x00\x82\x0b\x00\xe2\x80\x81*\xf3\xa0\x81\xb5\x00\x06\xc0\xafs\xf3\xa0\x80\xa7\xf3\xa0\x81\x8etuff\x00'
p26
sa(dp27
g17
I0
sg14
g22
sg19
S'\x92\x03\x00*\x00'
p28
sg13
I3
sg16
Nsas.