(dp0
S'parentFilename'
p1
S'intercept156.1543_0.pickle'
p2
sS'time'
p3
NsS'filename'
p4
S'intercept156.1543_0.1728_0.pickle'
p5
sS'seed'
p6
S'17288183816632891285'
p7
sS'fuzzer'
p8
S'Radamsa'
p9
sS'networkData'
p10
(lp11
(dp12
S'latency'
p13
NsS'from'
p14
S'cli'
p15
sS'index'
p16
I0
sS'timeouts'
p17
I0
sS'isFuzzed'
p18
I01
sS'data'
p19
S'll\xf3ri\xa0l\xf3ri\xa0\n\xa0\n\x82\xf3\xa0\x80\xbat\x81m'
p20
sas.