(dp0
S'parentFilename'
p1
S'intercept37.pickle'
p2
sS'time'
p3
NsS'filename'
p4
S'intercept37.1468_0.pickle'
p5
sS'seed'
p6
S'14681248852888512037'
p7
sS'fuzzer'
p8
S'Radamsa'
p9
sS'networkData'
p10
(lp11
(dp12
S'latency'
p13
NsS'from'
p14
S'cli'
p15
sS'index'
p16
I0
sS'timeouts'
p17
I0
sS'isFuzzed'
p18
I01
sS'data'
p19
S'ZCARD key                                         \nZCARD key                          \\x00\\r\\n$&\\0"xcalc`xcalc`$\'\\x0a\\x0a!xcalc%n%n$`NaNZCARD key                           \nZCARD key                           \nZCARD key                           \n'
p20
sas.