(dp0
S'parentFilename'
p1
S'intercept112.9876_0.pickle'
p2
sS'time'
p3
NsS'filename'
p4
S'intercept112.9876_0.6388_0.pickle'
p5
sS'seed'
p6
S'6388768594490046544'
p7
sS'fuzzer'
p8
S'Radamsa'
p9
sS'networkData'
p10
(lp11
(dp12
S'latency'
p13
NsS'from'
p14
S'cli'
p15
sS'index'
p16
I0
sS'timeouts'
p17
I0
sS'isFuzzed'
p18
I01
sS'data'
p19
S'geodistt\ngeodistt\ngeodistt\ngeodistt\ngeodistt\ngeodistt\ngeodistt\ngeodistt\ngeodistt\ngeodistt\ngeodistt\ngeodistt\ngeodistt\ngeodistt\ngeodistt\ngeodistt\ngeodistt\ngeodistt\xef\xbf\xbf\ngeodistt\ngeodistt\ngeodistt\ngeodistt\ngeodistt\ngeodistt\ngeodistt\ngeodistt\ngeodistt\ngeodistt\ngeodistt\ngeodistt\ngeodistt\ngeodistt\ngeodistt\ngeodistt\ngeodistt\ngeodistt\ngeodistt\ngeodistt\ngeodistt\ngeodistt\ngeodistt\ngeodistt\ngeodistt\ngeodistt\ngeodistt\ngeodistt\ngeod\xe2\x80\xaeistt\ngeodistt\ngeodistt\ngeodistt\ngeodistt\ngeodistt\ngeodistt\ngeodistt\nogdets\nditeigostt\ngeodistt\ngeodistt\ngeodistt\ngeodistt\ngeodistt\ngeodistt\ngeodistt\ngeodistt\ngeodistt\ngeodistt\ngeodistt\ngeodistt\ngeodistt\ngeodistt\ngeodistt\ngeodistt\ngeodistt\ngeodistt\ngeodistt\ngeodistt\ngeodistt\ngeodistt\ngeodistt\ngeodistt\ngeodistt\n'
p20
sas.