(dp0
S'parentFilename'
p1
S'intercept48.9865_0.1362_0.pickle'
p2
sS'time'
p3
NsS'filename'
p4
S'intercept48.9865_0.1362_0.1068_0.pickle'
p5
sS'seed'
p6
S'1068289066715794494'
p7
sS'fuzzer'
p8
S'Radamsa'
p9
sS'networkData'
p10
(lp11
(dp12
S'latency'
p13
NsS'from'
p14
S'cli'
p15
sS'index'
p16
I0
sS'timeouts'
p17
I0
sS'isFuzzed'
p18
I01
sS'data'
p19
S"HGET k'xc\xf3\xa0\x81\xb5alc%n\\\xe2\x80\xaer\\ney\xf3\xa0\x81\x8d fiel\xc3\x9f$'\\x-12774729612780301323986767075\xe2\x80\xae5564097709aaaa%d%n\\x1\xf3\xa0\x80\xb18446744073709551619$+!xcalc$&%pd          \n"
p20
sas.