(dp0
S'parentFilename'
p1
S'intercept62.9546_0.pickle'
p2
sS'time'
p3
NsS'filename'
p4
S'intercept62.9546_0.2912_0.pickle'
p5
sS'seed'
p6
S'2912660094395653215'
p7
sS'fuzzer'
p8
S'Radamsa'
p9
sS'networkData'
p10
(lp11
(dp12
S'latency'
p13
NsS'from'
p14
S'cli'
p15
sS'index'
p16
I0
sS'timeouts'
p17
I0
sS'isFuzzed'
p18
I01
sS'data'
p19
S'PFCOUNT k\xf3\xa0\x81\x9bey \\key\xe1\xbe\x82 ...]            \nPFCOUNT k\xf3\xa0\x81\x9bey \\key ...]            \nPFCOUNT k\xf3\xa0\x81\x9bey \\k\xf3\xa0\x81\x9bey \\key ...]            \n\x00'
p20
sas.