(dp0
S'parentFilename'
p1
S'intercept101.7563_0.1197_0.pickle'
p2
sS'time'
p3
NsS'filename'
p4
S'intercept101.7563_0.1197_0.1698_0.pickle'
p5
sS'seed'
p6
S'1698177285961691795'
p7
sS'fuzzer'
p8
S'Radamsa'
p9
sS'networkData'
p10
(lp11
(dp12
S'latency'
p13
NsS'from'
p14
S'cli'
p15
sS'index'
p16
I0
sS'timeouts'
p17
I0
sS'isFuzzed'
p18
I01
sS'data'
p19
S'echechechech"\xc0\x8a'
p20
sas.