(dp0
S'parentFilename'
p1
S'intercept196.2238_0.pickle'
p2
sS'time'
p3
NsS'filename'
p4
S'intercept196.2238_0.1045_0.pickle'
p5
sS'seed'
p6
S'10455008236725986579'
p7
sS'fuzzer'
p8
S'Radamsa'
p9
sS'networkData'
p10
(lp11
(dp12
S'latency'
p13
NsS'from'
p14
S'cli'
p15
sS'index'
p16
I0
sS'timeouts'
p17
I0
sS'isFuzzed'
p18
I01
sS'data'
p19
S'rpop\xf3p\xf3\xf3\xa0\x80\xb6\xef\xac\xac\xa0\x81\xf3\xa0\x81\x9cJ'
p20
sas.