(dp0
S'parentFilename'
p1
S'intercept31.1058_0.3329_0.8789_0.pickle'
p2
sS'time'
p3
NsS'filename'
p4
S'intercept31.1058_0.3329_0.8789_0.1418_0.pickle'
p5
sS'seed'
p6
S'14188628827815579025'
p7
sS'fuzzer'
p8
S'Radamsa'
p9
sS'networkData'
p10
(lp11
(dp12
S'latency'
p13
NsS'from'
p14
S'cli'
p15
sS'index'
p16
I0
sS'timeouts'
p17
I0
sS'isFuzzed'
p18
I01
sS'data'
p19
S'SU\xafIONke\xf3\xa0\x81\xa5y [\xf3\xa0\x80\xbb\xf3\xa0\x81\xb2ke\xf3\xa0\x81\xa5y [\xf3\xa0\x81\xb2key [\xf3\xa0\x81\xb2key ....1         \n'
p20
sas.