(dp0
S'parentFilename'
p1
S'intercept101.3327_0.9575_0.pickle'
p2
sS'time'
p3
NsS'filename'
p4
S'intercept101.3327_0.9575_0.8849_0.pickle'
p5
sS'seed'
p6
S'8849016511927055249'
p7
sS'fuzzer'
p8
S'Radamsa'
p9
sS'networkData'
p10
(lp11
(dp12
S'latency'
p13
NsS'from'
p14
S'cli'
p15
sS'index'
p16
I0
sS'timeouts'
p17
I0
sS'isFuzzed'
p18
I01
sS'data'
p19
S'echo \xf3\xa0\x80\xaa"AAAAAAAAAAAA@AAAA"\necho "AAAAAAA\xe1\x9a\x80AAAA\xf3\xa0\x81\xbbAA"\necho "AAAAAAAAAA"\necho "AAAAA"\ne\x8echo "AAAAAAAAAAAAA"AAAAAAAAAAAAA"\necho "AAAAAAAAAA"\necho "AAAAAAAAAAAAA"AAAAAAAAAAAAA"\necho "AAAAAAAAAAAAA"\necho-0"AAAAAAAAAAAAA"\n'
p20
sas.