(dp0
S'parentFilename'
p1
S'intercept259.1231_0.1646_0.pickle'
p2
sS'time'
p3
NsS'filename'
p4
S'intercept259.1231_0.1646_0.1527_0.pickle'
p5
sS'seed'
p6
S'15274164271354135956'
p7
sS'fuzzer'
p8
S'Radamsa'
p9
sS'networkData'
p10
(lp11
(dp12
S'latency'
p13
NsS'from'
p14
S'cli'
p15
sS'index'
p16
I0
sS'timeouts'
p17
I0
sS'isFuzzed'
p18
I01
sS'data'
p19
S'zlexcount\nzlexcount\nzlexcount\nzlexcount\nzlexcount\nzlexcount\nzlexcount\nzlexcount\nzlexcount\nzlexcount\nzlexcount\nzlexcount\nzlexcount\nzlexcount\nzlexcount\nzlexcount\nzlexcount\nzlexcount\nzlexcount\nzlexcount\nzlexcount\nzlexcount\nzlexcount\nzlexcount\nzlexcount\nzlexcount\nzlexcount\nzlexcount\nzlexcount\nzlexcount\nzlexcount\nzlexcount\nzlexcount\nzlexcount\nzlexcount\nzlexcount\nzlexcount\nzlexcount\nzlexcount\nzlexcount\nzlexcount\nzlexcount\nzlexcount\nzlexcount\nzlexcount\nzlexcount\nzlexcount\nzlexcount\nzlexcount\nzlexcount\nzlexcount\nzlexcount\nzlexcount\nzlexcount\nzlexcount\nzlexcount\nzlexcount\nzlexcount\nzlexcount\nzlexcount\nzlexcount\nzlexcount\nzlexcount\nzlexcount\nzlexcount\nzlexcount\nzlexcount\nzlexcount\nzlexcount\nzlexcount\nzlexcount\nzlexcount\nzlexcount\nzlexcount\nzlexcount\nzlexcount\nzlexcount\nzlexcount\nzlexcount\nzlexcount\nzlexcount\nzlexcount\nzlexcount\nzlexcount\nzlexcount\nzlexcount\nzlexcount\nzlexcount\nzlexcount\nzlexcount\nzlexcount\nzlexcount\nzlexcount\nzlexcount\nzlexcount\nzlexcount\nzlexcount\nzlexcount\nzlexcount\nzlexcount\nzlexcount\nzlexcount\nzlexcount\nzlexcount\nzlexcount\nzlexcount\nzlexcount\nzlexcount\nzlexcount\nzlexcount\nzlexcount\nzlexcount\nzlexcount\nzlexcount\nzlexcount\nzlexcount\nzlexcount\nzlexcount\nzlexcount\nzlexcount\nzlexcount\nzlexcount\nzlexcount\nzlexcount\nzlexcount\nzlexcount\nzlexcount\nzlexcount\nzlexcount\nzlexcount\nzlexcount\nzlexcount\nzlexcount\nzlexcount\nzlexcount\nzlexcount\nzlexcount\nzlexcount\nzlexcount\nzlexcount\nzlexcount\nzlexcount\nzlexcount\nzlexcount\nzlexcount\nzlexcount\nzlexcount\nzlexcount\nzlexcount\nzlexcount\nzlexcount\nzlexcount\nzlexcount\nzlexcount\nzlexcount\nzlexcount\nzlexcount\nzlexcount\nzlexcount\nzlexcount\nzlexcount\nzlexcount\nzlexcount\nzlexcount\nzlexcount\nzlexcount\nzlexcount\nzlexcount\nzlexcount\nzlexcount\nzlexcount\nzlexcount\nzlexcount\nzlexcount\nzlexcount\nzlexcount\nzlexcount\nzlexcount\nzlexcount\nzlexcount\nzlexcount\nzlexcount\nzlexcount\nzlexcount\nzlexcount\nzlexcount\nzlexcount\nzlexcount\nzlexcount\nzlexcount\nzlexcount\nzlexcount\nzlexcount\nzlexcount\nzlexcount\nzlexcount\nzlexcount\nzlexcount\nzlexcount\nzlexcount\nzlexcount\nzlexcount\nzlexcount\nzlexcount\nzlexcount\nzlexcount\nzlexcount\nzlexcount\nzlexcount\nzlexcount\nzlexcount\nzlexcount\nzlexcount\nzlexcount\nzlexcount\nzlexcount\nzlexcount\nzlexcount\nzlexcount\nzlexcount\nzlexcount\nzlexcount\nzlexcount\nzlexcount\nzlexcount\nzlexcount\nzlexcount\nzlexcount\nzlexcount\nzlexcount\nzlexcount\nzlexcount\nzlexcount\nzlexcount\nzlexcount\nzlexcount\nzlexcount\nzlexcount\nzlexcount\nzlexcount\nzlexcount\nzlexcount\nzlexcount\nzlexcount\nzlexcount\nzlexcount\nzlexcount\nzlexcount\nzlexcount\nzlexcount\nzlexcount\nzlexcount\nzlexcount\nzlexcount\nzlexcount\nzlexcount\nzlexcount\nzlexcount\nzlexcount\nzlexcount\nzlexcount\nzlexcount\nzlexcount\nzlexcount\nzlexcount\nzlexcount\nzlexcount\nzlexcount\nzlexcount\nzlexcount\nzlexcount\nzlexcount\nzlexcount\nzlexcount\nzlexcount\nzlexcount\nzlexcount\nzlexcount\nzlexcount\nzlexcount\nzlexcount\nzlexcount\nzlexcount\nzlexcount\nzlexcount\nzlexcount\nzlexcount\nzlexcount\nzlexcount\nzlexcount\nzlexcount\nzlexcount\nzlexcount\nzlexcount\nzlexcount\nzlexcount\nzlexcount\nzlexcount\nzlexcount\nzlexcount\nzlexcount\nzlexcount\nzlexcount\nzlexcount\nzlexcount\nzlexcount\nzlexcount\nzlexcount\nzlexcount\nzlexcount\nzlexcount\nzlexcount\nzlexcount\nzlexcount\nzlexcount\nzlexcount\nzlexcount\nzlexcount\nzlexcount\nzlexcount\nzlexcount\nzlexcount\nzlexcount\nzlexcount\nzlexcount\nzlexcount\nzlexcount\nzlexcount\nzlexcount\nzlexcount\nzlexcount\nzlexcount\nzlexcount\nzlexcount\nzlexcount\nzlexcount\nzlexcount\nzlexcount\nzlexcount\nzlexcount\nzlexcount\nzlexcount\nzlexcount\nzlexcount\nzlexcount\nzlexcount\nzlexcount\nzlexcount\nzlexcount\nzlexcount\nzlexcount\nzlexcount\nzlexcount\nzlexcount\nzlexcount\nzlexcount\nzlexcount\nzlexcount\nzlexcount\nzlexcount\nzlexcount\nzlexcount\nzlexcount\nzlexcount\nzlexcount\nzlexcount\nzlexcount\nzlexcount\nzlexcount\nzlexcount\nzlexcount\nzlexcount\nzlexcount\nzlexcount\nzlexco\xf3\xa0\x80\xb1unt\nzlexcount\nzlexcount\nzlexcount\nzlexcount\nzlexcount\nzlexcount\nzlexcount\nzlexcount\nzlexcount\nzlexcount\nzlexcount\nzlexcount\nzlexcount\nzlexcount\nzlexcount\nzlexcount\nzlexcount\nzlexcount\nzlexcount\nzlexcount\nzlexcount\nzlexcount\nzlexcount\nzlexcount\nzlexcount\nzlexcount\nzlexcount\nzlexcount\nzlexcount\nzlexcount\nzlexcount\nzlexcount\nzlexcount\nzlexcount\nzlexcount\nzlexcount\nzlexcount\nzlexcount\nzlexcount\xf3\xa0\x81\xab\nzlexcount\nzlexcount\nzlexcount\nzlexcount\nzlexcount\nzlexcount\nzlexcount\nzlexcount\nzlexcount\nzlexcount\nzlexcount\nzlexcount\nzlexcount\nzlexcount\nzlexcount\nzlexcount\nzlexcount\nzlexcount\nzlexcount\nzlexcount\nzlexcount\nzlexcount\nzlexcount\nzlexcount\nzlexcount\nzlexcount\nzlexcount\nzlexcount\nzlexcount\nzlexcount\nzlexcount\nzlexcount\nzlexcount\nzlexcount\nzlexcount\nzlexcount\nzlexcount\nzlexcount\nzlexcount\nzlexcount\nzlexcount\nzlexcount\nzlexcount\nzlexcount\nzlexcount\nzlexcount\nzlexcount\nzlexcount\nzlexcount\nzlexcount\nzlexcount\nzlexcount\nzlexcount\nzlexcount\nzlexcount\nzlexcount\nzlexcount\nzlexcount\nzlexcount\nzlexcount\nzlexcount\nzlexcount\nzlexcount\n'
p20
sas.