(dp0
S'parentFilename'
p1
S'intercept24.1976_0.2449_0.7216_0.8122_0.pickle'
p2
sS'time'
p3
NsS'filename'
p4
S'intercept24.1976_0.2449_0.7216_0.8122_0.5109_0.pickle'
p5
sS'seed'
p6
S'5109373910881636799'
p7
sS'fuzzer'
p8
S'Radamsa'
p9
sS'networkData'
p10
(lp11
(dp12
S'latency'
p13
NsS'from'
p14
S'cli'
p15
sS'index'
p16
I0
sS'timeouts'
p17
I0
sS'isFuzzed'
p18
I01
sS'data'
p19
S'BLPOP key  [key ...] timeout                 \x1f \nBLPOP key  [key ...] timeout                \nBLPO\xf3\xa0\x80\xbdP key  [key ...] timeout                   \nBLPOP key  [key ...] timeout                \n\xf3\xa0\x81\xa4BLPOP key  [key ...] tImeout                \n'
p20
sas.