(dp0
S'parentFilename'
p1
S'intercept2.7379_0.6201_0.pickle'
p2
sS'time'
p3
NsS'filename'
p4
S'intercept2.7379_0.6201_0.7466_0.pickle'
p5
sS'seed'
p6
S'7466358213051395733'
p7
sS'fuzzer'
p8
S'Radamsa'
p9
sS'networkData'
p10
(lp11
(dp12
S'latency'
p13
NsS'from'
p14
S'cli'
p15
sS'index'
p16
I0
sS'timeouts'
p17
I0
sS'isFuzzed'
p18
I01
sS'data'
p19
S'INCR ke\xf3\xa0\x81\xb1y \xf3\xf3\xa0\x81\xa1\xa0\x81\x95        \xf3\xa0\x80\xa1         \n'
p20
sas.