(dp0
S'parentFilename'
p1
S'intercept165.1054_0.pickle'
p2
sS'time'
p3
NsS'filename'
p4
S'intercept165.1054_0.1303_0.pickle'
p5
sS'seed'
p6
S'13032459424522080093'
p7
sS'fuzzer'
p8
S'Radamsa'
p9
sS'networkData'
p10
(lp11
(dp12
S'latency'
p13
NsS'from'
p14
S'cli'
p15
sS'index'
p16
I0
sS'timeouts'
p17
I0
sS'isFuzzed'
p18
I01
sS'data'
p19
S'\xef\xbb\xbem\xf3\xa0\xe2\x80\xac\x81\xbfu\xe2\x80\xaelti\n'
p20
sas.