(dp0
S'parentFilename'
p1
S'intercept119.1145_0.9438_0.pickle'
p2
sS'time'
p3
NsS'filename'
p4
S'intercept119.1145_0.9438_0.8215_0.pickle'
p5
sS'seed'
p6
S'8215200635540426845'
p7
sS'fuzzer'
p8
S'Radamsa'
p9
sS'networkData'
p10
(lp11
(dp12
S'latency'
p13
NsS'from'
p14
S'cli'
p15
sS'index'
p16
I0
sS'timeouts'
p17
I0
sS'isFuzzed'
p18
I01
sS'data'
p19
S'bitb\xe0\xbf\xaditb\xe0i\xbf\xf3\xa0\x80\xa6\xadit\n'
p20
sas.