(dp0
S'parentFilename'
p1
S'intercept10.1389_0.pickle'
p2
sS'time'
p3
NsS'filename'
p4
S'intercept10.1389_0.3981_0.pickle'
p5
sS'seed'
p6
S'3981035690448283103'
p7
sS'fuzzer'
p8
S'Radamsa'
p9
sS'networkData'
p10
(lp11
(dp12
S'latency'
p13
NsS'from'
p14
S'cli'
p15
sS'index'
p16
I0
sS'timeouts'
p17
I0
sS'isFuzzed'
p18
I01
sS'data'
p19
S'\xf3\xa0\x80\xacRPUSH  \xf2\xa0\x80\xbd  \xe2\x81\x8c    \n'
p20
sas.