(dp0
S'parentFilename'
p1
S'intercept251.1729_0.1713_0.1115_0.pickle'
p2
sS'time'
p3
NsS'filename'
p4
S'intercept251.1729_0.1713_0.1115_0.4027_0.pickle'
p5
sS'seed'
p6
S'4027373922986363094'
p7
sS'fuzzer'
p8
S'Radamsa'
p9
sS'networkData'
p10
(lp11
(dp12
S'latency'
p13
NsS'from'
p14
S'cli'
p15
sS'index'
p16
I0
sS'timeouts'
p17
I0
sS'isFuzzed'
p18
I01
sS'data'
p19
S'x\xca\xb4evrngewran\xca\xb1g\xbange\xe3\x80\xff\xfe\xfe\xfe\xf3\xa0\x81\xa8\xfe\xfe\xfe\xfe\xfe\xfe\xfe\xfe\xfe+/v9\xfe\xef\xb7\x90\xfe\xfe\xc0\x8b'
p20
sas.