(dp0
S'parentFilename'
p1
S'intercept227.4636_0.2044_0.8343_0.1579_0.pickle'
p2
sS'time'
p3
NsS'filename'
p4
S'intercept227.4636_0.2044_0.8343_0.1579_0.1589_0.pickle'
p5
sS'seed'
p6
S'15894726104496996835'
p7
sS'fuzzer'
p8
S'Radamsa'
p9
sS'networkData'
p10
(lp11
(dp12
S'latency'
p13
NsS'from'
p14
S'cli'
p15
sS'index'
p16
I0
sS'timeouts'
p17
I0
sS'isFuzzed'
p18
I01
sS'data'
p19
S'sunion\nsun\nsun\nsun\nsun\nsun\nsun\nsun\nsun\nsun\nsun\nsun\nsun\nsun\nsun\nsun\nsun\nsun\nsun\nsun\nsun\nsun\nsun\nsun\nsun\nsun\nsun\nsun\nsun\nsun\nsun\nsun\nsun\nsun\nsun\nsun\nsun\nsun\nsun\nsun\nsun\nsun\nsun\nsun\nsun\nsun\nsun\nsun\nsun\nsun\nsun\nsun\nsun\nsun\nsun\nsun\nsun\nsun\nsun\nsun\nsun\nsun\nsun\nsun\nsun\nsun\nsun\nsun\nsun\nsun\nsun\nsun\nsun\nsun\nsun\nsun\nsun\nsun\nsun\nsun\nsun\nsun\nsun\nsun\nsun\nsun\nsun\nsun\nsun\nsun\nsun\nsun\nsun\nsun\nsun\nsun\nsun\nsun\nsun\nsun\nsun\nsun\nsun\nsun\nsun\nsun\nsun\nsun\nsun\nsun\nsun\nsun\nsun\nsun\nsun\nsun\nsun\nsun\nsun\nsun\nsun\nsun\nsun\nsun\nsun\nsun\nsun\nsun\nsun\nsun\nsun\nsun\nsun\nsun\nsun\n\n\ncuo\nsun\nsun\nsun\nsun\nsun\nsun\nsun\nsun\nsun\nsun\nsun\nsun\nsun\nsun\nsun\nsun\nsun\nsun\nsun\nsun\nsun\nsun\nsun\nsun\nsun\nsun\nsun\nsun\nsun\nsun\nsun\nsun\nsun\nsun\nsun\nsun\nsun\nsun\nsun\nsun\nsun\nsun\nsun\nsun\nsun\nsun\nsun\nsun\nsun\nsun\nsun\nsun\nsun\nsun\nsun\nsun\nsun\nsun\nsun\nsun\nsun\nsun\nsun\nsun\nsun\nsun\nsun\nsun\nsun\nsun\nsun\nsun\nsun\n\n\ncuo\nsun\nsun\nsun\nsun\nsun\nsun\nsun\nsun\nsun\nsun\nsun\nsun\nsun\nsun\nsun\nsun\nsun\nsun\nsun\nsun\nsun\nsun\nsun\nsun\nsun\nsun\nsun\nsun\nsun\nsun\nsun\nsun\nsun\nsun\nsun\nsun\nsun\nsun\nsun\nsun\nsun\nsun\nsun\nsun\nsun\nsun\nsun\nsun\nsun\nsun\nsun\nsun\nsun\nsun\nsun\nsun\nsun\nsun\nsun\nsun\nsun\nsun\nsun\nsun\nsun\nsun\nsun\nsun\nsun\nsun\nsun\nsun\nsun\nsun\nsun\nsun\nsun\nsun\nsun\nsun\nsun\nsun\nsun\nsun\nsun\nsun\nsun\nsun\nsun\nsun\nsun\nsun\nsun\nsun\nsun\nsun\nsun\nsun\nsun\nsun\nsun\nsun\nsun\nsun\nsun\nsun\nsun\nsun\nsun\nsun\nsun\nsun\nsun\nsun\nsun\nsun\nsun\nsun\nsun\nsun\nsun\nsun\nsun\nsun\nsun\nsun\nsun\nsun\nsun\nsun\nsun\nsun\nsun\nsun\nsun\nsun\nsun\nsun\nsun\nsun\nsun\nsun\nsun\nsun\nsun\nsun\nsun\nsun\nsun\nsun\nsun\nsun\nsun\nsun\nsun\nsun\nsun\nsun\nsun\nsun\nsun\nsun\nsun\nsun\nsun\nsun\nsun\nsun\nsun\nsun\nsun\nsun\nsun\nsun\nsun\nsun\nsun\nsun\nsun\nsun\nsun\nsun\nsun\nsun\nsun\nsun\nsun\nsun\nsun\nsun\nsun\nsun\nsun\nsun\nsun\nsun\nsun\nsun\nsun\nsun\nsun\nsun\nsun\nsun\nsun\nsun\nsun\nsun\nsun\nsun\nsun\nsun\nsun\nsun\nsun\nsun\nsun\nsun\nsun\nsun\nsun\nsun\nsun\nsun\nsun\nsun\nsun\nsun\nsun\nsun\nsun\nsun\nsun\nsun\nsun\nsun\nsun\nsun\nsun\nsun\nsun\nsun\nsun\nsun\nsun\nsun\nsun\nsun\nsun\nsun\nsun\nsun\nsun\nsun\nsun\nsun\nsun\nsun\nsun\nsun\nsun\nsun\nsun\nsun\nsun\nsun\nsun\nsun\nsun\nsun\nsun\nsun\nsun\nsun\nsun\nsun\nsun\nsun\nsun\nsun\nsun\nsun\nsun\nsun\nsun\nsun\nsun\nsun\nsun\nsun\nsun\nsun\nsun\nsun\nsun\nsun\nsun\nsun\nsun\nsun\nsun\nsun\nsun\nsun\nsun\nsun\nsun\nsun\nsun\nsun\nsun\nsun\nsun\nsun\nsun\nsun\nsun\nsun\nsun\nsun\nsun\nsun\nsun\nsun\nsun\nsun\nsun\nsun\nsun\nsun\nsun\nsun\nsun\nsun\nsun\nsun\nsun\nsun\nsun\nsun\nsun\nsun\nsun\nsun\nsun\nsun\nsun\nsun\nsun\nsun\nsun\nsun\nsun\nsun\nsun\nsun\nsun\nsun\nsun\nsun\nsun\nsun\nsun\nsun\nsun\nsun\nsun\nsn\nsun\nsun\nsun\nsun\nsun\nsun\nsun\nsun\nsun\nsun\nsun\nsun\nsun\nsn\nsun\nsun\nsun\nsun\nsun\nsun\nsun\nsun\nsun\nsun\nsun\nsun\nsun\nsn\nsun\nsun\nsun\nsun\nsun\nsun\nsun\nsun\nsun\nsun\nsun\nsun\nsun\nsn\nsun\nsun\nsun\nsun\nsun\nsun\nsun\nsun\nsun\nsun\nsun\nsun\nsun\nsn\nsun\nsun\nsun\nsun\nsun\nsun\nsun\nsun\nsun\nsun\nsun\nsun\nsun\nsn\nsun\nsun\nsun\nsun\nsun\nsun\nsun\nsun\nsun\nsun\nsun\ns\xddsfsun\nsun\nsn\nsun\nsun\nsun\nsun\nsun\nsun\nsun\nsun\nsun\nsun\nsun\nsun\nsun\nsn\naaaaaaaaaaaaaaaaaaaaaaaaaaaaaaaaaaaaaaaaaaaaaaaaaaaaaaaaaaaaaaaaaaaaaaaaaaaaaaaaaaaaaaaaaaaaaaaaaaaaaaaaaaaaaaaaaaaaaaaaaaaaaaasun\nsun\nsun\nsun\nsun\nsun\nsun\nsuun\nsun\nsun\nsun\nsun\nsun\nsun\nsuun\nsun\nsun\nsun\nsun\nsun\nsun\nsuun\nsun\nsun\nsun\nsun\nsun\nsun\nsuun\nsun\nsun\nsun\nsun\nsun\nsun\nsuun\nsun\nsun\nsun\nsun\nsun\nsun\nsuun\nsun\nsun\nsun\nsun\nsun\nsun\nsuun\nsun\nsun\nsun\nsun\nsun\nsun\nsuun\nsun\nsun\nsun\nsun\nsun\nsun\nsuun\nsun\nsun\nsun\nsun\nsun\nsun\nsuun\nsun\nsun\nsun\nsun\nsun\nsun\nsuun\nsun\nsun\nsun\nsun\nsun\nsun\nsuun\nsun\nsun\nsun\nsun\nsun\nsun\nsuun\nsun\nsun\nsun\nsun\nsun\nsun\nsuun\nsun\nsun\nsun\nsun\nsun\nsun\nsuun\nsun\nsun\nsun\nsun\nsun\nsun\nsuun\nsun\nsun\nsun\nsun\nsun\nsun\nsuun\nsun\nsun\nsun\nsun\nsun\nsun\nsuun\nsun\nsun\nsun\nsun\nsun\nsun\nsuun\nsun\nsun\nsun\nsun\nsun\nsun\nsuun\nsun\nsun\nsun\nsun\nsun\nsun\nsuun\nsun\nsun\nsun\nsun\nsun\nsun\nsun\nsun\nsun\nsun\nsun\nsun\nsunion\n'
p20
sas.