(dp0
S'parentFilename'
p1
S'intercept268.1141_0.1777_0.pickle'
p2
sS'time'
p3
NsS'filename'
p4
S'intercept268.1141_0.1777_0.2177_0.pickle'
p5
sS'seed'
p6
S'2177243638001707456'
p7
sS'fuzzer'
p8
S'Radamsa'
p9
sS'networkData'
p10
(lp11
(dp12
S'latency'
p13
NsS'from'
p14
S'cli'
p15
sS'index'
p16
I0
sS'timeouts'
p17
I0
sS'isFuzzed'
p18
I01
sS'data'
p19
S"zremran\\r\\n'xcalc\\r$'%s\\x0a!!$`\\x1a$&%#x$+$`\\ua$&%#x$+$`\\u0000\\r\\n$+%saaaa%d%ngebye\n"
p20
sas.