(dp0
S'parentFilename'
p1
S'intercept115.2497_0.1643_0.pickle'
p2
sS'time'
p3
NsS'filename'
p4
S'intercept115.2497_0.1643_0.7547_0.pickle'
p5
sS'seed'
p6
S'7547469252100495731'
p7
sS'fuzzer'
p8
S'Radamsa'
p9
sS'networkData'
p10
(lp11
(dp12
S'latency'
p13
NsS'from'
p14
S'cli'
p15
sS'index'
p16
I0
sS'timeouts'
p17
I0
sS'isFuzzed'
p18
I01
sS'data'
p19
S'geora\xf0\x9d\x9b\x96\xf3\xa0\xf3\xa0\x81\x8a\x80\xb8dausbyme\xe2\x81\xa5mberesbyme\xe2\x81\xa5mb\xe5r\n'
p20
sas.