(dp0
S'parentFilename'
p1
S'intercept256.8289_0.8014_0.pickle'
p2
sS'time'
p3
NsS'filename'
p4
S'intercept256.8289_0.8014_0.5339_0.pickle'
p5
sS'seed'
p6
S'5339701365795239748'
p7
sS'fuzzer'
p8
S'Radamsa'
p9
sS'networkData'
p10
(lp11
(dp12
S'latency'
p13
NsS'from'
p14
S'cli'
p15
sS'index'
p16
I0
sS'timeouts'
p17
I0
sS'isFuzzed'
p18
I01
sS'data'
p19
S'\xf3\x86\x81\xef\xbf\xbf\xbc\xe0u\x80\xf3\xa0\x80\xb7uu'
p20
sas.