(dp0
S'parentFilename'
p1
S'intercept157.1817_0.pickle'
p2
sS'time'
p3
NsS'filename'
p4
S'intercept157.1817_0.9787_0.pickle'
p5
sS'seed'
p6
S'9787210089193162436'
p7
sS'fuzzer'
p8
S'Radamsa'
p9
sS'networkData'
p10
(lp11
(dp12
S'latency'
p13
NsS'from'
p14
S'cli'
p15
sS'index'
p16
I0
sS'timeouts'
p17
I0
sS'isFuzzed'
p18
I01
sS'data'
p19
S'\xe2\x80\x83r(\xf3\xa0\x81\xa1\xf3\xa0\xa0\xa0\xf3\xa0\x80\xa1\xa0\x81\xa3(\xff\xc2\xb7yy\n'
p20
sas.