(dp0
S'parentFilename'
p1
S'intercept156.1543_0.pickle'
p2
sS'time'
p3
NsS'filename'
p4
S'intercept156.1543_0.1403_0.pickle'
p5
sS'seed'
p6
S'14032152020527688919'
p7
sS'fuzzer'
p8
S'Radamsa'
p9
sS'networkData'
p10
(lp11
(dp12
S'latency'
p13
NsS'from'
p14
S'cli'
p15
sS'index'
p16
I0
sS'timeouts'
p17
I0
sS'isFuzzed'
p18
I01
sS'data'
p19
S'l\xf3\x00\xff\xff\xa0\x81\xb7\xf3\xa0\x80\xa1\xa0\x81\x82\xf0\x9f\x92\xa9trim\n'
p20
sas.