(dp0
S'parentFilename'
p1
S'intercept252.pickle'
p2
sS'time'
p3
NsS'filename'
p4
S'intercept252.8407_0.pickle'
p5
sS'seed'
p6
S'8407275860571571659'
p7
sS'fuzzer'
p8
S'Radamsa'
p9
sS'networkData'
p10
(lp11
(dp12
S'latency'
p13
NsS'from'
p14
S'cli'
p15
sS'index'
p16
I0
sS'timeouts'
p17
I0
sS'isFuzzed'
p18
I01
sS'data'
p19
S'\xf3\xa0\x80\xb8xsetid\n'
p20
sas.