(dp0
S'parentFilename'
p1
S'intercept102.pickle'
p2
sS'time'
p3
NsS'filename'
p4
S'intercept102.8968_0.pickle'
p5
sS'seed'
p6
S'8968873229105967384'
p7
sS'fuzzer'
p8
S'Radamsa'
p9
sS'networkData'
p10
(lp11
(dp12
S'latency'
p13
NsS'from'
p14
S'cli'
p15
sS'index'
p16
I0
sS'timeouts'
p17
I0
sS'isFuzzed'
p18
I01
sS'data'
p19
S'ecH\xca 3402823669231731687303715884105703715884105703715884105703715884105703715884105700371588410570371588410570371588410570371588410570371588410570371588410570371588410570371588410570371588410570371588410570371588410570371588410570371588410570371588410570371588410570371588410570371588410570371588410570371588410570371588410570371588410570371588410570371588410570371588410575499040830371588410430371588410570371588410570371588410570371588410570371588410570371588410570371588410573718813409203715884105703715884105703715884105703715884105703715884105703715884105703715884105703715884105703715884105703715884105703715884105703715884105703715884105703715884105703715884105703715884105703715884105703715884105703715884105703715884105703715884105703715884105703715884105703715884105703715884105703715884105703715884105703715884105703715884105703715884105703715884105703715884105703715884105703715884105703715884105703715884105703715884105703715884105703715884105703715884105703715884105703715884105703715884105703715884105703715884105703715884105703715884105703715884105703715884105703715884105703715884105703715884105703715884105703715884105703715884105703715884105703715884105703715884105703715884105703715884105703715884105703715884105703715884105703715884105703715884105703715884105703715884105703715884105703715884105703715884105703715884105703715884105703715884105703715884105703715884105703715884105703715884105703715884105703715884105703715884105703715884105703715884105703715884105703715884105703715884105703715884105703715884105703715884105703715884105703715884105703715884105703715884105703715884105703715884105703715884105703715884105703715884105703715884105703715884105703715884105703715884105703715884105703715884105703715884105703715884105703715884105703715884105703715884105703715884105703715884105703715884105703715884105703715884105703715884105703715884105703715884105703715884105703715884105703715884105703715884105703715884105703715884105703715884105703715884105703715884105703715884105703715884105703715884105703715884105703715884105703715884105703715884105703715884105703715884105703715884105703715884105703715884105703715884105703715884105703715884105703715884105703715884105703715884105703715884105703715884105703715884105703715884105703715884105703715884105703715884105703715884105703715884105703715884105703715884105703715884105703715884105703715884105703715884105703715884105703715884105703715884105703715884105703715884105703715884105703715884105703715884105703715884105703715884105703715884105703715884105703715884105703715884105703715884105703715884105703715884105703715884105703715884105703715884105703715884105703715884105703715884105703715884105703715884105703715884105703715884105703715884105703715884105703715884105703715884105703715884105703715884105703715884105703715884105703715884105703715884105703715884105703715884105703715884105703715884105703715884105703715884105703715884105703715884105703715884105703715884105703715884105703715884105703715884105703715884105703715884105703715884105703715884105703715884105703715884105703715884105703715884105703715884105703715884105703715884105703715884105703715884105703715884105703715884105703715884105703715884105703715884105703715884105703715884105703715884105703715884105703715884105703715884105703715884105703715884105703715884105703715884105703715884105703715884105703715884105703715884105703715884105703715884105703715884105703715884105703715884105703715884105703715884105703715884105703715884105703715884105703715884105703715884105730\n'
p20
sas.