(dp0
S'parentFilename'
p1
S'intercept258.1379_0.1079_0.pickle'
p2
sS'time'
p3
NsS'filename'
p4
S'intercept258.1379_0.1079_0.1697_0.pickle'
p5
sS'seed'
p6
S'1697473139198810178'
p7
sS'fuzzer'
p8
S'Radamsa'
p9
sS'networkData'
p10
(lp11
(dp12
S'latency'
p13
NsS'from'
p14
S'cli'
p15
sS'index'
p16
I0
sS'timeouts'
p17
I0
sS'isFuzzed'
p18
I01
sS'data'
p19
S'ziore\nziore\nziore\nziore\nziore\nziore\nziore\nzioreaaaaaaaaaaaaaaaaaaaaaaaaaaaaaaaaaaaaaaaaaaaaaa\\u--340282366920938463463374607433633099517$!!$(xcalc)aaaaaaaaaaaaaaaaaaaaaaaaaaaaaaaaaaaaaaaaaaaaaaaaaaaaaaaaaaaaaaaaa\nziore\nziore\nziore\nziore\n'
p20
sas.