(dp0
S'parentFilename'
p1
S'intercept180.2021_0.pickle'
p2
sS'time'
p3
NsS'filename'
p4
S'intercept180.2021_0.9485_0.pickle'
p5
sS'seed'
p6
S'9485449801442347684'
p7
sS'fuzzer'
p8
S'Radamsa'
p9
sS'networkData'
p10
(lp11
(dp12
S'latency'
p13
NsS'from'
p14
S'cli'
p15
sS'index'
p16
I0
sS'timeouts'
p17
I0
sS'isFuzzed'
p18
I01
sS'data'
p19
S'\x9a\xd7\x98\xf3\xa0\xd7\x98\xb2\xf3\xa0\xd7\xf3\xa0\xd7\x98c\xbc\x8f\x0c\xf3\xa0\x80\xbdn'
p20
sas.