(dp0
S'parentFilename'
p1
S'intercept92.3712_0.pickle'
p2
sS'time'
p3
NsS'filename'
p4
S'intercept92.3712_0.9532_0.pickle'
p5
sS'seed'
p6
S'9532309987836166815'
p7
sS'fuzzer'
p8
S'Radamsa'
p9
sS'networkData'
p10
(lp11
(dp12
S'latency'
p13
NsS'from'
p14
S'cli'
p15
sS'index'
p16
I0
sS'timeouts'
p17
I0
sS'isFuzzed'
p18
I01
sS'data'
p19
S'command cand cand cand cand cand cand cand cand cand cand cand cand cand cand cand cand cand cand cand cand cand cand cand cand cand cand cand cand cand cand cand count\ncommand count\xf3\xa0\x81\xff\xfe\x90\n'
p20
sas.