(dp0
S'parentFilename'
p1
S'intercept31.1254_0.1082_0.6413_0.pickle'
p2
sS'time'
p3
NsS'filename'
p4
S'intercept31.1254_0.1082_0.6413_0.1707_0.pickle'
p5
sS'seed'
p6
S'17071746103349865858'
p7
sS'fuzzer'
p8
S'Radamsa'
p9
sS'networkData'
p10
(lp11
(dp12
S'latency'
p13
NsS'from'
p14
S'cli'
p15
sS'index'
p16
I0
sS'timeouts'
p17
I0
sS'isFuzzed'
p18
I01
sS'data'
p19
S'SUN t \nSUN   \nSUN t \nSUN t \nSUN `xcalc`$&\\x-2d$(xcalc);xcalc%#x+inf$   \nSUN   \n'
p20
sas.