(dp0
S'parentFilename'
p1
S'intercept237.1096_0.6498_0.1186_0.pickle'
p2
sS'time'
p3
NsS'filename'
p4
S'intercept237.1096_0.6498_0.1186_0.1647_0.pickle'
p5
sS'seed'
p6
S'16475248911435603645'
p7
sS'fuzzer'
p8
S'Radamsa'
p9
sS'networkData'
p10
(lp11
(dp12
S'latency'
p13
NsS'from'
p14
S'cli'
p15
sS'index'
p16
I0
sS'timeouts'
p17
I0
sS'isFuzzed'
p18
I01
sS'data'
p19
S"un\rwbtch\xed\xba\xad\xf3\xa0\xe2\x81\xa8\xdd\xca\xb7\xf3\xa0\xf3\xa0\x81\xf3\xa0\x81\x95\x86\x80\xba\xfb\xa0\x81\xbdsfs\xfe\xf3\xa0\x81\x83\xff\xca\xb0\xef\xb7\x90\x80\xae'xcalc\\n&#1;%n\\2147483647$9223372036854775808%d\\r\\n%n$+%n\\x-340282366920938463463374607431768211458d%d%n$1\n"
p20
sas.