(dp0
S'parentFilename'
p1
S'intercept101.3327_0.pickle'
p2
sS'time'
p3
NsS'filename'
p4
S'intercept101.3327_0.7907_0.pickle'
p5
sS'seed'
p6
S'7907271409808207685'
p7
sS'fuzzer'
p8
S'Radamsa'
p9
sS'networkData'
p10
(lp11
(dp12
S'latency'
p13
NsS'from'
p14
S'cli'
p15
sS'index'
p16
I0
sS'timeouts'
p17
I0
sS'isFuzzed'
p18
I01
sS'data'
p19
S'echo "\xcd\x85AAAAAAAAAAAAAAAAA"\necho "\xcd\x85AAAAAAAAAAA"\necho "\xcd\x85AAAAAAAAA\xf3\xa0\x81\xb7AAAA\xf3\xa0\x80\xbb"\n'
p20
sas.