(dp0
S'parentFilename'
p1
S'intercept66.1116_0.pickle'
p2
sS'time'
p3
NsS'filename'
p4
S'intercept66.1116_0.5062_0.pickle'
p5
sS'seed'
p6
S'5062342151939171848'
p7
sS'fuzzer'
p8
S'Radamsa'
p9
sS'networkData'
p10
(lp11
(dp12
S'latency'
p13
NsS'from'
p14
S'cli'
p15
sS'index'
p16
I0
sS'timeouts'
p17
I0
sS'isFuzzed'
p18
I01
sS'data'
p19
S'MSET key \xe2\x80\x82val\xe1\x85\xa0ue ey value ...]\xf3\xa0\x81\x9a\x1f \xe2\x81\xa7  \n'
p20
sas.