(dp0
S'parentFilename'
p1
S'intercept269.1189_0.1496_0.pickle'
p2
sS'time'
p3
NsS'filename'
p4
S'intercept269.1189_0.1496_0.8332_0.pickle'
p5
sS'seed'
p6
S'8332501543377596951'
p7
sS'fuzzer'
p8
S'Radamsa'
p9
sS'networkData'
p10
(lp11
(dp12
S'latency'
p13
NsS'from'
p14
S'cli'
p15
sS'index'
p16
I0
sS'timeouts'
p17
I0
sS'isFuzzed'
p18
I01
sS'data'
p19
S'z\xf4\x8e\xe2\x81\x9f\xbe\x8f\xe2\x81\xa0\xe2\x81z\xf4\x8f\xe2\x81\x81\x9f\xe2\x81\x81'
p20
sas.