(dp0
S'parentFilename'
p1
S'intercept30.2229_0.pickle'
p2
sS'time'
p3
NsS'filename'
p4
S'intercept30.2229_0.8809_0.pickle'
p5
sS'seed'
p6
S'8809643871825770431'
p7
sS'fuzzer'
p8
S'Radamsa'
p9
sS'networkData'
p10
(lp11
(dp12
S'latency'
p13
NsS'from'
p14
S'cli'
p15
sS'index'
p16
I0
sS'timeouts'
p17
I0
sS'isFuzzed'
p18
I01
sS'data'
p19
S'ERS m"xcalcNaN$!!\\-1\xc015345792741%paaaa%d%n$+$(xcalc)$!!\\u0000\\u0000+inf$`yset      \xf3\xa0\x81\xb4 myset     \n'
p20
sas.