(dp0
S'parentFilename'
p1
S'intercept80.pickle'
p2
sS'time'
p3
NsS'filename'
p4
S'intercept80.6684_0.pickle'
p5
sS'seed'
p6
S'6684800566688881104'
p7
sS'fuzzer'
p8
S'Radamsa'
p9
sS'networkData'
p10
(lp11
(dp12
S'latency'
p13
NsS'from'
p14
S'cli'
p15
sS'index'
p16
I0
sS'timeouts'
p17
I0
sS'isFuzzed'
p18
I01
sS'data'
p19
S'b\xd9\xe1\x05\xa0tc\xf3\xa8\x80\xef\xb7\xba\xbeount\xf3\xa0\x81\x8a\n'
p20
sas.