(dp0
S'parentFilename'
p1
S'intercept154.9806_0.pickle'
p2
sS'time'
p3
NsS'filename'
p4
S'intercept154.9806_0.1262_0.pickle'
p5
sS'seed'
p6
S'12624204018258539918'
p7
sS'fuzzer'
p8
S'Radamsa'
p9
sS'networkData'
p10
(lp11
(dp12
S'latency'
p13
NsS'from'
p14
S'cli'
p15
sS'index'
p16
I0
sS'timeouts'
p17
I0
sS'isFuzzed'
p18
I01
sS'data'
p19
S'\xf3\xa0\x80\xb9\xf3\xa0\x81\xbf\xe0\xb9\x84r\x84rem\n'
p20
sas.