(dp0
S'parentFilename'
p1
S'intercept196.2238_0.1771_0.pickle'
p2
sS'time'
p3
NsS'filename'
p4
S'intercept196.2238_0.1771_0.1113_0.pickle'
p5
sS'seed'
p6
S'11138328137648170101'
p7
sS'fuzzer'
p8
S'Radamsa'
p9
sS'networkData'
p10
(lp11
(dp12
S'latency'
p13
NsS'from'
p14
S'cli'
p15
sS'index'
p16
I0
sS'timeouts'
p17
I0
sS'isFuzzed'
p18
I01
sS'data'
p19
S'\xb1\x97o\xb1pop\x98'
p20
sas.