(dp0
S'parentFilename'
p1
S'intercept145.4827_0.1265_0.pickle'
p2
sS'time'
p3
NsS'filename'
p4
S'intercept145.4827_0.1265_0.6878_0.pickle'
p5
sS'seed'
p6
S'6878245463338726378'
p7
sS'fuzzer'
p8
S'Radamsa'
p9
sS'networkData'
p10
(lp11
(dp12
S'latency'
p13
NsS'from'
p14
S'cli'
p15
sS'index'
p16
I0
sS'timeouts'
p17
I0
sS'isFuzzed'
p18
I01
sS'data'
p19
S'la&#00\xf3\xa0\x81\xae0;$1\\x0a\\u0&#%$\'s0a!0!10;$1\\x0a\\u0"!%s$1\'xc`lc+inf$(xcalc)\\r!xcalc%d$PATH$PATH$(xcalc\xe2\x80\x8a)000$+\\x00$1$!!%\xe2\x80\x82s$1\'xc`lc+inf$(xcalc)\\r!xcalc%d$PATH$PATH$(xcalc\xe2\x80\x8a)000$+\\x00$1$!!%s$1\'xc`lc+inf$(xcalc)\\r!xcalc%d$PATH$PATH$(xcalc)000$+\\x00$\xf3\xa0\x81\x821$!!\\x00`xcalc`;xcalc!!$+tency\n'
p20
sas.