(dp0
S'parentFilename'
p1
S'intercept1.1694_0.1506_0.pickle'
p2
sS'time'
p3
NsS'filename'
p4
S'intercept1.1694_0.1506_0.2993_0.pickle'
p5
sS'seed'
p6
S'2993305882272425113'
p7
sS'fuzzer'
p8
S'Radamsa'
p9
sS'networkData'
p10
(lp11
(dp12
S'latency'
p13
NsS'from'
p14
S'cli'
p15
sS'index'
p16
I0
sS'timeouts'
p17
I0
sS'isFuzzed'
p18
I01
sS'data'
p19
S'MGET key [key y [key ...]       key [key ...y ...]       \nMGET key [key y [key ...]       key [key ...y\xf3\xa0\x81\xad ...] \xf3\xa0\x81\xb6      \n'
p20
sas.