(dp0
S'parentFilename'
p1
S'intercept62.9546_0.pickle'
p2
sS'time'
p3
NsS'filename'
p4
S'intercept62.9546_0.1085_0.pickle'
p5
sS'seed'
p6
S'10857398939416720078'
p7
sS'fuzzer'
p8
S'Radamsa'
p9
sS'networkData'
p10
(lp11
(dp12
S'latency'
p13
NsS'from'
p14
S'cli'
p15
sS'index'
p16
I0
sS'timeouts'
p17
I0
sS'isFuzzed'
p18
I01
sS'data'
p19
S'PFCOUNT j\xf3\xa0\x81\x9bex \\key ...] !             \n'
p20
sas.