(dp0
S'parentFilename'
p1
S'intercept265.4466_0.pickle'
p2
sS'time'
p3
NsS'filename'
p4
S'intercept265.4466_0.1461_0.pickle'
p5
sS'seed'
p6
S'14618905115826089596'
p7
sS'fuzzer'
p8
S'Radamsa'
p9
sS'networkData'
p10
(lp11
(dp12
S'latency'
p13
NsS'from'
p14
S'cli'
p15
sS'index'
p16
I0
sS'timeouts'
p17
I0
sS'isFuzzed'
p18
I01
sS'data'
p19
S"zrNaN$(xcalc)$&'xcalc\\x127a+inf$PATHank\n"
p20
sas.