(dp0
S'parentFilename'
p1
S'intercept142.3605_0.5769_0.pickle'
p2
sS'time'
p3
NsS'filename'
p4
S'intercept142.3605_0.5769_0.7403_0.pickle'
p5
sS'seed'
p6
S'7403837318512679065'
p7
sS'fuzzer'
p8
S'Radamsa'
p9
sS'networkData'
p10
(lp11
(dp12
S'latency'
p13
NsS'from'
p14
S'cli'
p15
sS'index'
p16
I0
sS'timeouts'
p17
I0
sS'isFuzzed'
p18
I01
sS'data'
p19
S'f%n\\r\\n\\58114\xc0\xbbxcalc$`%d%#x`lc%n&#0\xc00\xc0\xb35150\xf3\xa014\xc0\xbbxcalc$`%d%#x`lc%n&#0\xc00\xc0\xb35150\xf3\xa0\x80\xac5477\xff\xff\x00\x0032769;\x00'
p20
sas.