(dp0
S'parentFilename'
p1
S'intercept59.pickle'
p2
sS'time'
p3
NsS'filename'
p4
S'intercept59.1007_0.pickle'
p5
sS'seed'
p6
S'10074911817730427264'
p7
sS'fuzzer'
p8
S'Radamsa'
p9
sS'networkData'
p10
(lp11
(dp12
S'latency'
p13
NsS'from'
p14
S'cli'
p15
sS'index'
p16
I0
sS'timeouts'
p17
I0
sS'isFuzzed'
p18
I01
sS'data'
p19
S'HSTTRLEN\xf3\xa0\xe2\x80\xaf\x81\xab \xe2\x81   \xf3\xa0\x80\xb8   \xe1\x85\x9f\xf0\x80\x80 \n'
p20
sas.