(dp0
S'parentFilename'
p1
S'intercept258.1379_0.9732_0.1787_0.1236_0.3334_0.pickle'
p2
sS'time'
p3
NsS'filename'
p4
S'intercept258.1379_0.9732_0.1787_0.1236_0.3334_0.1631_0.pickle'
p5
sS'seed'
p6
S'16312551457813465790'
p7
sS'fuzzer'
p8
S'Radamsa'
p9
sS'networkData'
p10
(lp11
(dp12
S'latency'
p13
NsS'from'
p14
S'cli'
p15
sS'index'
p16
I0
sS'timeouts'
p17
I0
sS'isFuzzed'
p18
I01
sS'data'
p19
S'vi\xac\xe1\x80ie%{xon\n'
p20
sas.