(dp0
S'parentFilename'
p1
S'intercept116.1657_0.5296_0.pickle'
p2
sS'time'
p3
NsS'filename'
p4
S'intercept116.1657_0.5296_0.7153_0.pickle'
p5
sS'seed'
p6
S'7153947068261844912'
p7
sS'fuzzer'
p8
S'Radamsa'
p9
sS'networkData'
p10
(lp11
(dp12
S'latency'
p13
NsS'from'
p14
S'cli'
p15
sS'index'
p16
I0
sS'timeouts'
p17
I0
sS'isFuzzed'
p18
I01
sS'data'
p19
S'ge\xf3\xa0\x81\xado\x1aaeuJtb\xf3\xa0\x80\xb7ymce\xb8\xado\x1aaeuJtb\xf3\xa0\x80\xb7ymce\xb8\xado\x1aaetJtb\xf3\xa0\x80\xb7ymce\xb8\xado\x1aaeuJ\neuJ\n'
p20
sas.