(dp0
S'parentFilename'
p1
S'intercept275.3391_0.1343_0.7599_0.1268_0.pickle'
p2
sS'time'
p3
NsS'filename'
p4
S'intercept275.3391_0.1343_0.7599_0.1268_0.1905_0.pickle'
p5
sS'seed'
p6
S'1905292446367340466'
p7
sS'fuzzer'
p8
S'Radamsa'
p9
sS'networkData'
p10
(lp11
(dp12
S'latency'
p13
NsS'from'
p14
S'cli'
p15
sS'index'
p16
I0
sS'timeouts'
p17
I0
sS'isFuzzed'
p18
I01
sS'data'
p19
S'c|p\xc0\x8a\xa3c|\x8a\xa3c\x8ac\xa0\x8a\xc0\xf3\xa2\x81\xae|\x8a\xc0\xa3\xc0\x8a\xc1\xa3\xc1o'
p20
sas.