(dp0
S'parentFilename'
p1
S'intercept203.1462_0.1349_0.1676_0.5453_0.1323_0.pickle'
p2
sS'time'
p3
NsS'filename'
p4
S'intercept203.1462_0.1349_0.1676_0.5453_0.1323_0.1113_0.pickle'
p5
sS'seed'
p6
S'11136868291605553050'
p7
sS'fuzzer'
p8
S'Radamsa'
p9
sS'networkData'
p10
(lp11
(dp12
S'latency'
p13
NsS'from'
p14
S'cli'
p15
sS'index'
p16
I0
sS'timeouts'
p17
I0
sS'isFuzzed'
p18
I01
sS'data'
p19
S'\xa0\xa1\x80\xf3s\xf3\xe3\x91\x96rip\xf3\xa0\x80\xfb\xee\xd8(\xf3\xa0\x81\x81\xf3\xa0\x7f\xbd\xe9\xf3\x81t\n\x8a\x0c\xa0'
p20
sas.