(dp0
S'parentFilename'
p1
S'intercept139.6571_0.pickle'
p2
sS'time'
p3
NsS'filename'
p4
S'intercept139.6571_0.1574_0.pickle'
p5
sS'seed'
p6
S'15745545983233146110'
p7
sS'fuzzer'
p8
S'Radamsa'
p9
sS'networkData'
p10
(lp11
(dp12
S'latency'
p13
NsS'from'
p14
S'cli'
p15
sS'index'
p16
I0
sS'timeouts'
p17
I0
sS'isFuzzed'
p18
I01
sS'data'
p19
S'incrbyflpat\nincrbyflpat\nincrbyflpat\nincrbyflpat\nincrbyflpat\nincrbyflpat\nincrbyflpat\nincrbyflpat\nincrbyflpat\nincrbyflpat\nincrbyflpat\nincrbyflpat\nincrbyflpat\nincrbyflpat\nincrbyflpat\nincrbyflpat\nincrbyflpat\nincrbyflpat\nincrbyflpat\nincrbyflpat\nincrbyflpat\nincrbyflpat\nincrbyflpat\nincrbyflpat\nincrbyflpat\nincrbyflpat\nincrbyflpat\nincrbyflpat\nincrbyflpat\nincrbyflpat\nincrbyflpat\nincrbyfl\xf3\xa0\x81\x9fpat\nincrbyflpat\nncrbyflpat\nincrbyflpat\nincrbyflpat\nincrbyflpat\nincrbyflpat\nincrbyflpat\nincrbyflpat\nincrbyflpat\nincrbyflpat\nincrbyflpat\nincrbyflpat\nincrbyflpat\nincrbyflpat\nincrbyflpat\nincrbyflpat\nincrbyflpat\nincrbyflpat\nincrbyflpat\nincrbyflpat\nincrbyflpat\nincrbyflpat\nincrbyflpat\nincrbyflpat\nincrbyflpat\nincrbyflpat\nincrbyflpat\nincrbyflpat\nincrbyflpat\nincrbyflpat\nincrbyflpat\nincrbyflpat\nincrbyflpat\nincrbyflpat\nincrbyflpat\nincrbyflpat\nincrbyflpat\nincrbyflpat\nincrbyflpat\nincrbyflpat\nincrbyflpat\nincrbyflpat\nincrbyflpat\nincrbyflpat\nincrbyflpat\nincrbyflpat\nincrbyflpat\nincrbyflpat\nincrbyflpat\nincrbyflpat\nincrbyflpat\nincrbyflpat\nincrbyflpat\nincrbyflpat\nincrbyflpat\nincrbyflpat\nincrbyflpat\nincrbyflpat\nincrbyflpat\nincrbyflpat\nincrbyflpat\nincrbyflpat\nincrbyflpat\nincrbyflpat\nincrbyflpat\nincrbyflpat\nincrbyflpat\nincrbyflpat\nincrbyflpat\nincrbyflpat\nincrbyflpat\nincrbyflpat\nincrbyflpat\nincrbyflpat\nimcrbyflpat\nincrbyflpat\nincrbyflpat\nincrbyflpat\nincrbyflpat\nincrbyflpat\nincrbyflpat\nincrbyflpat\nincrbyflpat\nincrbyflpat\nincrbyflpat\nincrbyflpat\nincrbyflpat\nincrbyflpat\nincrbyflpat\nincrbyflpat\nincrbyflpat\nincrbyflpat\nincrbyflpat\nincrbyflpat\nincrbyflpat\nincrbyflpat\nincrbyflpat\nincrbyflpat\nincrbyflpat\nincrbyflpat\n'
p20
sas.