(dp0
S'parentFilename'
p1
S'intercept79.1502_0.pickle'
p2
sS'time'
p3
NsS'filename'
p4
S'intercept79.1502_0.1248_0.pickle'
p5
sS'seed'
p6
S'12481231077759153052'
p7
sS'fuzzer'
p8
S'Radamsa'
p9
sS'networkData'
p10
(lp11
(dp12
S'latency'
p13
NsS'from'
p14
S'cli'
p15
sS'index'
p16
I0
sS'timeouts'
p17
I0
sS'isFuzzed'
p18
I01
sS'data'
p19
S"ve\na%#x\\x2147483649$(xcalc)$(xcalc)$'!!$!!\\u0000;xcalc$&%n\\r"
p20
sas.