(dp0
S'parentFilename'
p1
S'intercept131.1074_0.1113_0.5335_0.pickle'
p2
sS'time'
p3
NsS'filename'
p4
S'intercept131.1074_0.1113_0.5335_0.2081_0.pickle'
p5
sS'seed'
p6
S'2081415343255852206'
p7
sS'fuzzer'
p8
S'Radamsa'
p9
sS'networkData'
p10
(lp11
(dp12
S'latency'
p13
NsS'from'
p14
S'cli'
p15
sS'index'
p16
I0
sS'timeouts'
p17
I0
sS'isFuzzed'
p18
I01
sS'data'
p19
S'+/v/kk\xf3\xa0\x80\xf3\xa0\x81\xad\xae\xf3\xa0\x80\xb9kkkkkh\xe2\x80\x85\xef\xf3\xa0\x80\xae\t\xbf\xbf\xef\xbd\xb0\x1c\n'
p20
sas.