(dp0
S'parentFilename'
p1
S'intercept53.7186_0.pickle'
p2
sS'time'
p3
NsS'filename'
p4
S'intercept53.7186_0.1321_0.pickle'
p5
sS'seed'
p6
S'13216211343153558370'
p7
sS'fuzzer'
p8
S'Radamsa'
p9
sS'networkData'
p10
(lp11
(dp12
S'latency'
p13
NsS'from'
p14
S'cli'
p15
sS'index'
p16
I0
sS'timeouts'
p17
I0
sS'isFuzzed'
p18
I01
sS'data'
p19
S"HINCRBY +inf\\r+infNaN%s$`$`$&!xcalc$340282366920938463463374607431768211455%p&#000;%n$(xcalc)%#xkey fild increme\xfb\xee'\xffnt  \n"
p20
sas.