(dp0
S'parentFilename'
p1
S'intercept155.1266_0.pickle'
p2
sS'time'
p3
NsS'filename'
p4
S'intercept155.1266_0.1524_0.pickle'
p5
sS'seed'
p6
S'15241324774782891375'
p7
sS'fuzzer'
p8
S'Radamsa'
p9
sS'networkData'
p10
(lp11
(dp12
S'latency'
p13
NsS'from'
p14
S'cli'
p15
sS'index'
p16
I0
sS'timeouts'
p17
I0
sS'isFuzzed'
p18
I01
sS'data'
p19
S'st\xf3\xa0\x81\xb0\nst\nst\xca\xb4\nsst\xc0\x8a\xf3\xddsfs\xa0\x80\xb4sst\xc0\x8a'
p20
sas.