(dp0
S'parentFilename'
p1
S'intercept263.4290_0.1001_0.1777_0.1700_0.pickle'
p2
sS'time'
p3
NsS'filename'
p4
S'intercept263.4290_0.1001_0.1777_0.1700_0.4541_0.pickle'
p5
sS'seed'
p6
S'4541669171746533293'
p7
sS'fuzzer'
p8
S'Radamsa'
p9
sS'networkData'
p10
(lp11
(dp12
S'latency'
p13
NsS'from'
p14
S'cli'
p15
sS'index'
p16
I0
sS'timeouts'
p17
I0
sS'isFuzzed'
p18
I01
sS'data'
p19
S'z\xc3\xe0\xbf\xad\x9fraeb\x1cg\xbd\x81\xa7ebn\xf3\xa0\x81\xb9g\xe2\x81\xa7ebnggg\xe2\x81\xa7ebngo\xf3\xa0\x81\x8b\x8a'
p20
sas.