(dp0
S'parentFilename'
p1
S'intercept28.pickle'
p2
sS'time'
p3
NsS'filename'
p4
S'intercept28.1788_0.pickle'
p5
sS'seed'
p6
S'17884306073349963156'
p7
sS'fuzzer'
p8
S'Radamsa'
p9
sS'networkData'
p10
(lp11
(dp12
S'latency'
p13
NsS'from'
p14
S'cli'
p15
sS'index'
p16
I0
sS'timeouts'
p17
I0
sS'isFuzzed'
p18
I01
sS'data'
p19
S'S\xcd\x8fREM\xf3\xa0\x80\xbf key meber \xe2\x80\x84[mem`e\xf3\xa0\x81\x9br\xca\xb3 ...]    \xddsfs \n'
p20
sas.