(dp0
S'parentFilename'
p1
S'intercept153.6303_0.pickle'
p2
sS'time'
p3
NsS'filename'
p4
S'intercept153.6303_0.5108_0.pickle'
p5
sS'seed'
p6
S'5108053669014712192'
p7
sS'fuzzer'
p8
S'Radamsa'
p9
sS'networkData'
p10
(lp11
(dp12
S'latency'
p13
NsS'from'
p14
S'cli'
p15
sS'index'
p16
I0
sS'timeouts'
p17
I0
sS'isFuzzed'
p18
I01
sS'data'
p19
S'lran\xf3\xa0\x81\xf3v\xa0\x81n\xf3\xa0e\x81nn\xf3\n'
p20
sas.