(dp0
S'parentFilename'
p1
S'intercept209.5523_0.7273_0.pickle'
p2
sS'time'
p3
NsS'filename'
p4
S'intercept209.5523_0.7273_0.3550_0.pickle'
p5
sS'seed'
p6
S'3550566164704011994'
p7
sS'fuzzer'
p8
S'Radamsa'
p9
sS'networkData'
p10
(lp11
(dp12
S'latency'
p13
NsS'from'
p14
S'cli'
p15
sS'index'
p16
I0
sS'timeouts'
p17
I0
sS'isFuzzed'
p18
I01
sS'data'
p19
S'setn\xbbt\x81\xb1\xf0e\xbf\xca\x92\xe0\xb9\x83\x9fn\xefx\n'
p20
sas.