(dp0
S'parentFilename'
p1
S'intercept162.1711_0.9501_0.pickle'
p2
sS'time'
p3
NsS'filename'
p4
S'intercept162.1711_0.9501_0.1187_0.pickle'
p5
sS'seed'
p6
S'11874546514496175575'
p7
sS'fuzzer'
p8
S'Radamsa'
p9
sS'networkData'
p10
(lp11
(dp12
S'latency'
p13
NsS'from'
p14
S'cli'
p15
sS'index'
p16
I0
sS'timeouts'
p17
I0
sS'isFuzzed'
p18
I01
sS'data'
p19
S'\xb3\xa0\x80tmio\nmio\nmio\nmio\nmio\nmio\nmio\nmio\nmio\nmio\nmio\nmio\nmio\nmio\nmio\nmio\nmio\nmio\nmio\nmio\nmio\nmio\nmio\nmio\nmio\nmio\nmio\nmio\nmio\nmio\nmio\nmio\nmio\nmio\nmio\nmio\nmio\nmio\nmio\nmio\nmio\nmio\nmio\nmio\nmio\nmio\nmio\nmio\nmio\nmio\nmio\nmio\nmio\nmio\nmio\nmio\nmio\nmio\nmio\nmio\nmio\nmio\nmio\nmio\nmio\nmio\n'
p20
sas.