(dp0
S'parentFilename'
p1
S'intercept100.1757_0.pickle'
p2
sS'time'
p3
NsS'filename'
p4
S'intercept100.1757_0.1747_0.pickle'
p5
sS'seed'
p6
S'17475852212440940128'
p7
sS'fuzzer'
p8
S'Radamsa'
p9
sS'networkData'
p10
(lp11
(dp12
S'latency'
p13
NsS'from'
p14
S'cli'
p15
sS'index'
p16
I0
sS'timeouts'
p17
I0
sS'isFuzzed'
p18
I01
sS'data'
p19
S"dum`xcalc`\\x0daaaa%d%n$!!%n$&\\u0000\\u0000\\r\\0+inf%saaaa%d%n\\rNaN\\x00aaaa%d%n\\x0a'xcalc%n"
p20
sas.