(dp0
S'parentFilename'
p1
S'intercept73.1026_0.9687_0.pickle'
p2
sS'time'
p3
NsS'filename'
p4
S'intercept73.1026_0.9687_0.1482_0.pickle'
p5
sS'seed'
p6
S'14824462111283758939'
p7
sS'fuzzer'
p8
S'Radamsa'
p9
sS'networkData'
p10
(lp11
(dp12
S'latency'
p13
NsS'from'
p14
S'cli'
p15
sS'index'
p16
I0
sS'timeouts'
p17
I0
sS'isFuzzed'
p18
I01
sS'data'
p19
S'GET key        \xe2\x81\xa5            !      \nGET key                    !      \nGET key                    !      \nGET key        \xe2\x81\x11            !      \nGET key                   \nGET key                    !      \nGET key                    !      \nGET key        \xe2\x81\x11            !      \nGET key                   \nGET key                    !      \nGET key                    !      \nGET key        \xe2\x81\x11            !      \nGET key                   \nGET key                    !      \nGET key                    !      \nGET key        \xe2\x81\x11            !      \nGET key                   \nGET key                    !      \nGET key                    !      \nGET key        \xe2\x81\x11            !      \nGET key                   \nGET key                    !      \nGET key                    !      \nGET key        \xe2\x81\x11            !      \nGET key                   \nGET key                    !      \nGET key                    !      \nGET key        \xe2\x81\x11            !      \nGET key                   \nGET key                    !      \nGET key                    !      \nGET key        \xe2\x81\x11            !      \nGET key                   \nGET key                    !      \nGET key                    !      \nGET key        \xe2\x81\x11            !      \nGET key                   \nGET key                    !      \nGET key                    !      \nGET key        \xe2\x81\x11            !      \nGET key                   \nGET key                    !      \nGET key                    !      \nGET key        \xe2\x81\x11            !      \nGET key                   \nGET key                    !      \nGET key                    !      \nGET key        \xe2\x81\x11            !      \nGET key                   \nGET key                    !      \nGET key                    !      \nGET key        \xe2\x81\x11            !      \nGET key                   \nGET key                    !      \nGET key                    !      \nGET key        \xe2\x81\x11            !      \nGET key                   \nGET key                    !      \nGET key                    !      \nGET key        \xe2\x81\x11            !      \nGET key                   \nGET key                    !      \nGET key                    !      \nGET key        \xe2\x81\x11            !      \nGET key                   \nGET key                    !      \nGET key                    !      \nGET key        \xe2\x81\x11            !      \nGET key                   \nGET key                    !      \nGET key                    !      \nGET key        \xe2\x81\x11            !      \nGET key                   \nGET key                    !      \nGET key                    !      \nGET key        \xe2\x81\x11            !      \nGET key                   \nGET key                    !      \nGET key                    !      \nGET key        \xe2\x81\x11            !      \nGET key                   \nGET key                    !      \nGET key                    !      \nGET key        \xe2\x81\x11            !      \nGET key                   \nGET key                    !      \nGET key                    !      \nGET key        \xe2\x81\x11            !      \nGET key                   \nGET key                    !      \nGET key                    !      \nGET key        \xe2\x81\x11            !      \nGET key                   \nGET key                    !      \nGET key                    !      \nGET key        \xe2\x81\x11            !      \nGET key                   \nGET key                    !      \nGET key                    !      \nGET key        \xe2\x81\x11            !      \nGET key                   \nGET key                    !      \nGET key                    !      \nGET key        \xe2\x81\x11            !      \nGET key                   \nGET key                    !      \nGET key                    !      \nGET key        \xe2\x81\x11            !      \nGET key                   \nGET key                    !      \nGET key                    !      \nGET key        \xe2\x81\x11            !      \nGET key                   \nGET key                    !      \nGET key                    !      \nGET key        \xe2\x81\x11            !      \nGET key                   \nGET key                    !      \nGET key                    !      \nGET key        \xe2\x81\x11            !      \nGET key                   \nGET key                    !      \nGET key                    !      \nGET key        \xe2\x81\x11            !      \nGET key                   \nGET key                    !      \nGET key                    !      \nGET key        \xe2\x81\x11            !      \nGET key                   \nGET key                    !      \nGET key                    !      \nGET key        \xe2\x81\x11            !      \nGET key                   \nGET key                    !      \nGET key                    !      \nGET key        \xe2\x81\x11            !      \nGET key                   \nGET key                    !      \nGET key                    !      \nGET key        \xe2\x81\x11            !      \nGET key                   \nGET key                    !      \nGET key                    !      \nGET key        \xe2\x81\x11            !      \nGET key                   \nGET key                    !      \nGET key                    !      \nGET key        \xe2\x81\x11            !      \nGET key                   \nGET key                    !      \nGET key                    !      \nGET key        \xe2\x81\x11            !      \nGET key                   \nGET key                    !      \nGET key                    !      \nGET key        \xe2\x81\x11            !      \nGET key                   \nGET key                    !      \nGET key                    !      \nGET key        \xe2\x81\x11            !      \nGET key                   \nGET key                    !      \nGET key                    !      \nGET key        \xe2\x81\x11            !      \nGET key                   \nGET key                    !      \nGET key                    !      \nGET key        \xe2\x81\x11            !      \nGET key                   \nGET key                    !      \nGET key                    !      \nGET key        \xe2\x81\x11            !      \nGET key                   \nGET key                    !      \nGET key                    !      \nGET key        \xe2\x81\x11            !      \nGET key                   \nGET key                    !      \nGET key                    !      \nGET key        \xe2\x81\x11            !      \nGET key                   \nGET key                    !      \nGET key                    !      \nGET key        \xe2\x81\x11            !      \nGET key                   \nGET key                    !      \nGET key                    !      \nGET key        \xe2\x81\x11            !      \nGET key                   \nGET key                    !      \nGET key                    !      \nGET key        \xe2\x81\x11            !      \nGET key                   \nGET key                    !      \nGET key                    !      \nGET key        \xe2\x81\x11            !      \nGET key                   \nGET key                    !      \nGET key                    !      \nGET key        \xe2\x81\x11            !      \nGET key                   \nGET key                    !      \nGET key                    !      \nGET key        \xe2\x81\x11            !      \nGET key                   \nGET key                    !      \nGET key                    !      \nGET key        \xe2\x81\x11            !      \nGET key                   \nGET key                    !      \nGET key                    !      \nGET key        \xe2\x81\x11            !      \nGET key                   \nGET key                    !      \nGET key                    !      \nGET key        \xe2\x81\x11            !      \nGET key                   \nGET key                    !      \nGET key                    !      \nGET key        \xe2\x81\x11            !      \nGET key                   \nGET key                    !      \nGET key                    !      \nGET key        \xe2\x81\x11            !      \nGET key                   \nGET key                    !      \nGET key                    !      \nGET key        \xe2\x81\x11            !      \nGET key                   \nGET key                    !      \nGET key                    !      \nGET key        \xe2\x81\x11            !      \nGET key                   \nGET key                    !      \nGET key                    !      \nGET key        \xe2\x81\x11            !      \nGET key                   \nGET key                    !      \nGET key                    !      \nGET key        \xe2\x81\x11            !      \nGET key                   \nGET key                    !      \nGET key                    !      \nGET key        \xe2\x81\x11            !      \nGET key                   \nGET key                    !      \nGET key                    !      \nGET key        \xe2\x81\x11            !      \nGET key                   \nGET key                    !      \nGET key                    !      \nGET key        \xe2\x81\x11            !      \nGET key                   \nGET key                    !      \nGET key                    !      \nGET key        \xe2\x81\x11            !      \nGET key                   \nGET key                    !      \nGET key                    !      \nGET key        \xe2\x81\x11            !      \nGET key                   \nGET key                    !      \nGET key                    !      \nGET key        \xe2\x81\x11            !      \nGET key                   \nGET key                    !      \nGET key                    !      \nGET key        \xe2\x81\x11            !      \nGET key                   \nGET key                    !      \nGET key                    !      \nGET key        \xe2\x81\x11            !      \nGET key                   \nGET key                    !      \nGET key                    !      \nGET key        \xe2\x81\x11            !      \nGET key                   \nGET key                    !      \nGET key                    !      \nGET key        \xe2\x81\x11            !      \nGET key                   \nGET key                    !      \nGET key                    !      \nGET key        \xe2\x81\x11            !      \nGET key                   \nGET key                    !      \nGET key                    !      \nGET key        \xe2\x81\x11            !      \nGET key                   \nGET key                    !      \nGET key                    !      \nGET key        \xe2\x81\x11            !      \nGET key                   \nGET key                    !      \nGET key                    !      \nGET key        \xe2\x81\x11            !      \nGET key                   \nGET key                    !      \nGET key                    !      \nGET key        \xe2\x81\x11            !      \nGET key                   \nGET key                    !      \nGET key                    !      \nGET key        \xe2\x81\x11            !      \nGET key                   \nGET key                    !      \nGET key                    !      \nGET key        \xe2\x81\x11            !      \nGET key                   \nGET key                    !      \nGET key                    !      \nGET key        \xe2\x81\x11            !      \nGET key                   \nGET key                    !      \nGET key                    !      \nGET key        \xe2\x81\x11            !      \nGET key                   \nGET key                    !      \nGET key                    !      \nGET key        \xe2\x81\x11            !      \nGET key                   \nGET key                    !      \nGET key                    !      \nGET key        \xe2\x81\x11            !      \nGET key                   \nGET key                    !      \nGET key                    !      \nGET key        \xe2\x81\x11            !      \nGET key                   \nGET key                    !      \nGET key                    !      \nGET key        \xe2\x81\x11            !      \nGET key                   \nGET key                    !      \nGET key                    !      \nGET key        \xe2\x81\x11            !      \nGET key                   \nGET key                    !      \nGET key                    !      \nGET key        \xe2\x81\x11            !      \nGET key                   \nGET key                    !      \nGET key                    !      \nGET key        \xe2\x81\x11            !      \nGET key                   \nGET key                    !      \nGET key                    !      \nGET key        \xe2\x81\x11            !      \nGET key                   \nGET key                    !      \nGET key                    !      \nGET key        \xe2\x81\x11            !      \nGET key                   \nGET key                    !      \nGET key                    !      \nGET key        \xe2\x81\x11            !      \nGET key                   \nGET key                    !      \nGET key                    !      \nGET key        \xe2\x81\x11            !      \nGET key                   \nGET key                    !      \nGET key                    !      \nGET key        \xe2\x81\x11            !      \nGET key                   \nGET key                    !      \nGET key                    !      \nGET key        \xe2\x81\x11            !      \nGET key                   \nGET key                    !      \nGET key                    !      \nGET key        \xe2\x81\x11            !      \nGET key                   \nGET key                    !      \nGET key                    !      \nGET key        \xe2\x81\x11            !      \nGET key                   \nGET key                    !      \nGET key                    !      \nGET key        \xe2\x81\x11            !      \nGET key                   \nGET key                    !      \nGET key                    !      \nGET key        \xe2\x81\x11            !      \nGET key                   \nGET key                    !      \nGET key                    !      \nGET key        \xe2\x81\x11            !      \nGET key                   \nGET key                    !      \nGET key                    !      \nGET key        \xe2\x81\x11            !      \nGET key                   \nGET key                    !      \nGET key                    !      \nGET key        \xe2\x81\x11            !      \nGET key                   \nGET key                    !      \nGET key                    !      \nGET key        \xe2\x81\x11            !      \nGET key                   \nGET key                    !      \nGET key                    !      \nGET key        \xe2\x81\x11            !      \nGET key                   \nGET key                    !      \nGET key                    !      \nGET key        \xe2\x81\x11            !      \nGET key                   \nGET key                    !      \nGET key                    !      \nGET key        \xe2\x81\x11            !      \nGET key                   \nGET key                    !      \nGET key                    !      \nGET key        \xe2\x81\x11            !      \nGET key                   \nGET key                    !      \nGET key                    !      \nGET key        \xe2\x81\x11            !      \nGET key                   \nGET key                    !      \nGET key                    !      \nGET key        \xe2\x81\x11            !      \nGET key                   \nGET key                    !      \nGET key                    !      \nGET key        \xe2\x81\x11            !      \nGET key                   \nGET key                    !      \nGET key                    !      \nGET key        \xe2\x81\x11            !      \nGET key                   \nGET key                    !      \nGET key                    !      \nGET key        \xe2\x81\x11            !      \nGET key                   \nGET key                    !      \nGET key                    !      \nGET key        \xe2\x81\x11            !      \nGET key                   \nGET key                    !      \nGET key                    !      \nGET key        \xe2\x81\x11            !      \nGET key                   \nGET key                    !      \nGET key                    !      \nGET key        \xe2\x81\x11            !      \nGET key                   \nGET key                    !      \nGET key                    !      \nGET key        \xe2\x81\x11            !      \nGET key                   \nGET key                    !      \nGET key                    !      \nGET key        \xe2\x81\x11            !      \nGET key                   \nGET key                    !      \nGET key                    !      \nGET key        \xe2\x81\x11            !      \nGET key                   \nGET key                    !      \nGET key                    !      \nGET key        \xe2\x81\x11            !      \nGET key                   \nGET key                    !      \nGET key                    !      \nGET key        \xe2\x81\x11            !      \nGET key                   \nGET key                    !      \nGET key                    !      \nGET key        \xe2\x81\x11            !      \nGET key                   \nGET key                    !      \nGET key                    !      \nGET key        \xe2\x81\x11            !      \nGET key                   \nGET key                    !      \nGET key                    !      \nGET key        \xe2\x81\x11            !      \nGET key                   \nGET key                    !      \nGET key                    !      \nGET key        \xe2\x81\x11            !      \nGET key                   \nGET key                    !      \nGET key                    !      \nGET key        \xe2\x81\x11            !      \nGET key                   \nGET key                    !      \nGET key                    !      \nGET key        \xe2\x81\x11            !      \nGET key                   \nGET key                    !      \nGET key                    !      \nGET key        \xe2\x81\x11            !      \nGET key                   \nGET key                    !      \nGET key                    !      \nGET key        \xe2\x81\x11            !      \nGET key                   \nGET key                    !      \nGET key                    !      \nGET key        \xe2\x81\x11            !      \nGET key                   \nGET key                    !      \nGET key                    !      \nGET key        \xe2\x81\x11            !      \nGET key                   \nGET key                    !      \nGET key                    !      \nGET key        \xe2\x81\x11            !      \nGET key                   \nGET key                    !      \nGET key                    !      \nGET key        \xe2\x81\x11            !      \nGET key                   \nGET key                    !      \nGET key                    !      \nGET key        \xe2\x81\x11            !      \nGET key                   \nGET key                    !      \nGET key                    !      \nGET key        \xe2\x81\x11            !      \nGET key                   \nGET key                    !      \nGET key                    !      \nGET key        \xe2\x81\x11            !      \nGET key                   \nGET key                    !      \nGET key                    !      \nGET key        \xe2\x81\x11            !      \nGET key                   \nGET key                    !      \nGET key                    !      \nGET key        \xe2\x81\x11            !      \nGET key                   \nGET key                    !      \nGET key                    !      \nGET key        \xe2\x81\x11            !      \nGET key                   \nGET key                    !      \nGET key                    !      \nGET key        \xe2\x81\x11            !      \nGET key                   \nGET key                    !      \nGET key                    !      \nGET key        \xe2\x81\x11            !      \nGET key                   \nGET key                    !      \nGET key                    !      \nGET key        \xe2\x81\x11            !      \nGET key                   \nGET key                    !      \nGET key                    !      \nGET key        \xe2\x81\x11            !      \nGET key                   \nGET key                    !      \nGET key                    !      \nGET key        \xe2\x81\x11            !      \nGET key                   \nGET key                    !      \nGET key                    !      \nGET key        \xe2\x81\x11            !      \nGET key                   \nGET key                    !      \nGET key                    !      \nGET key        \xe2\x81\x11            !      \nGET key                   \nGET key                    !      \nGET key                    !      \nGET key        \xe2\x81\x11            !      \nGET key                   \nGET key                    !      \nGET key                    !      \nGET key        \xe2\x81\x11            !      \nGET key                   \nGET key                    !      \nGET key                    !      \nGET key        \xe2\x81\x11            !      \nGET key                   \nGET key                    !      \nGET key                    !      \nGET key        \xe2\x81\x11            !      \nGET key                   \nGET key                    !      \nGET key                    !      \nGET key        \xe2\x81\x11            !      \nGET key                   \nGET key                    !      \nGET key                    !      \nGET key        \xe2\x81\x11            !      \nGET key                   \nGET key                    !      \nGET key                    !      \nGET key        \xe2\x81\x11            !      \nGET key                   \nGET key                    !      \nGET key                    !      \nGET key        \xe2\x81\x11            !      \nGET key                   \nGET key                    !      \nGET key                    !      \nGET key        \xe2\x81\x11            !      \nGET key                   \nGET key                    !      \nGET key                    !      \nGET key        \xe2\x81\x11            !      \nGET key                   \nGET key                    !      \nGET key                    !      \nGET key        \xe2\x81\x11            !      \nGET key                   \nGET key                    !      \nGET key                    !      \nGET key        \xe2\x81\x11            !      \nGET key                   \nGET key                    !      \nGET key                    !      \nGET key        \xe2\x81\x11            !      \nGET key                    F      \n'
p20
sas.