(dp0
S'parentFilename'
p1
S'intercept95.pickle'
p2
sS'time'
p3
NsS'filename'
p4
S'intercept95.9244_0.pickle'
p5
sS'seed'
p6
S'9244544375448919254'
p7
sS'fuzzer'
p8
S'Radamsa'
p9
sS'networkData'
p10
(lp11
(dp12
S'latency'
p13
NsS'from'
p14
S'cli'
p15
sS'index'
p16
I0
sS'timeouts'
p17
I0
sS'isFuzzed'
p18
I01
sS'data'
p19
S'ddddddddddddddddddddddddddddddddddddddddddddddddddddd6dddddddddddddddd%d%n$1%d\\x0a%d%p+inf%n;xcalc&#000;!!\\r\\n\\n$1%p%ndddddddddddddddddd\x00dddddddddddddddddddddddddddddddddddddddddddddddddddddddddddddddddddddddddddddddddddddddddddddddddddddddddddddddddddddddddddddddddddbug\n'
p20
sas.