(dp0
S'parentFilename'
p1
S'intercept25.1217_0.7931_0.pickle'
p2
sS'time'
p3
NsS'filename'
p4
S'intercept25.1217_0.7931_0.1433_0.pickle'
p5
sS'seed'
p6
S'14332901932724371024'
p7
sS'fuzzer'
p8
S'Radamsa'
p9
sS'networkData'
p10
(lp11
(dp12
S'latency'
p13
NsS'from'
p14
S'cli'
p15
sS'index'
p16
I0
sS'timeouts'
p17
I0
sS'isFuzzed'
p18
I01
sS'data'
p19
S'B\xf3\xa0\x81\x82RPOP key [key [key \xe2\x80\x84...] timeout     \xf3\xa0\x81\xae  \n'
p20
sas.