(dp0
S'parentFilename'
p1
S'intercept60.1369_0.2685_0.pickle'
p2
sS'time'
p3
NsS'filename'
p4
S'intercept60.1369_0.2685_0.7822_0.pickle'
p5
sS'seed'
p6
S'7822073381016478763'
p7
sS'fuzzer'
p8
S'Radamsa'
p9
sS'networkData'
p10
(lp11
(dp12
S'latency'
p13
NsS'from'
p14
S'cli'
p15
sS'index'
p16
I0
sS'timeouts'
p17
I0
sS'isFuzzed'
p18
I01
sS'data'
p19
S'\xf0\x9d\xf3\xa0\x80\xb6\x85\xa0\xddsfsH\xe2\x80\x88\xf3\xa0\x81\x9bVALS xey\xf3\xa0\x81\x8a!    \xd8'
p20
sas.