(dp0
S'parentFilename'
p1
S'intercept266.1939_0.pickle'
p2
sS'time'
p3
NsS'filename'
p4
S'intercept266.1939_0.6799_0.pickle'
p5
sS'seed'
p6
S'6799731530457012493'
p7
sS'fuzzer'
p8
S'Radamsa'
p9
sS'networkData'
p10
(lp11
(dp12
S'latency'
p13
NsS'from'
p14
S'cli'
p15
sS'index'
p16
I0
sS'timeouts'
p17
I0
sS'isFuzzed'
p18
I01
sS'data'
p19
S'zre+/v170141183460469231731687303715884105728lr\x16\nzrelr\x16\nzrelr\x16\nzrelr\x16\nzrelr\x16\nzrelr\x16\nzrelr\x16\n'
p20
sas.