(dp0
S'parentFilename'
p1
S'intercept233.8498_0.2958_0.1731_0.1183_0.pickle'
p2
sS'time'
p3
NsS'filename'
p4
S'intercept233.8498_0.2958_0.1731_0.1183_0.9095_0.pickle'
p5
sS'seed'
p6
S'9095935763087933809'
p7
sS'fuzzer'
p8
S'Radamsa'
p9
sS'networkData'
p10
(lp11
(dp12
S'latency'
p13
NsS'from'
p14
S'cli'
p15
sS'index'
p16
I0
sS'timeouts'
p17
I0
sS'isFuzzed'
p18
I01
sS'data'
p19
S''
p20
sas.