(dp0
S'parentFilename'
p1
S'intercept266.1939_0.1361_0.pickle'
p2
sS'time'
p3
NsS'filename'
p4
S'intercept266.1939_0.1361_0.1408_0.pickle'
p5
sS'seed'
p6
S'14085937804733746150'
p7
sS'fuzzer'
p8
S'Radamsa'
p9
sS'networkData'
p10
(lp11
(dp12
S'latency'
p13
NsS'from'
p14
S'cli'
p15
sS'index'
p16
I0
sS'timeouts'
p17
I0
sS'isFuzzed'
p18
I01
sS'data'
p19
S'zrelr\x16\nzrelr\x16\nzrelr\x16\nzrelr\x15\nzrelr\x16\nzrelr\x16\nzrelr\x16\nzrelr\x16\nzrelr\x16\nzrelr\x16\nzrelr\xdb\x16\nzrelr\x16\nzrelr\x16\nzrelr\x16\nzrelr\x16\nzrelr\x16\n'
p20
sas.