(dp0
S'parentFilename'
p1
S'intercept48.1581_0.5891_0.pickle'
p2
sS'time'
p3
NsS'filename'
p4
S'intercept48.1581_0.5891_0.1453_0.pickle'
p5
sS'seed'
p6
S'14539514568355591583'
p7
sS'fuzzer'
p8
S'Radamsa'
p9
sS'networkData'
p10
(lp11
(dp12
S'latency'
p13
NsS'from'
p14
S'cli'
p15
sS'index'
p16
I0
sS'timeouts'
p17
I0
sS'isFuzzed'
p18
I01
sS'data'
p19
S'HG\xe2\x81\x9fET\xf3\xa0\x80\xbd key\xf3\xa0\x80\xa9f\xb7i\n\xef\x8b\x90e '
p20
sas.