(dp0
S'parentFilename'
p1
S'intercept62.9546_0.1085_0.1300_0.pickle'
p2
sS'time'
p3
NsS'filename'
p4
S'intercept62.9546_0.1085_0.1300_0.1118_0.pickle'
p5
sS'seed'
p6
S'11184191659897848983'
p7
sS'fuzzer'
p8
S'Radamsa'
p9
sS'networkData'
p10
(lp11
(dp12
S'latency'
p13
NsS'from'
p14
S'cli'
p15
sS'index'
p16
I0
sS'timeouts'
p17
I0
sS'isFuzzed'
p18
I01
sS'data'
p19
S'PFCOUNT j\xf3\xa0\x81\x9bex \\key ...] j\xf3\xa0\x81\x9b\\n\\u0000"xcalc%naaaa%d%n%paaaa%d%n\x9bex \\key ...] !              \n'
p20
sas.