(dp0
S'parentFilename'
p1
S'intercept145.pickle'
p2
sS'time'
p3
NsS'filename'
p4
S'intercept145.4827_0.pickle'
p5
sS'seed'
p6
S'4827322166864799673'
p7
sS'fuzzer'
p8
S'Radamsa'
p9
sS'networkData'
p10
(lp11
(dp12
S'latency'
p13
NsS'from'
p14
S'cli'
p15
sS'index'
p16
I0
sS'timeouts'
p17
I0
sS'isFuzzed'
p18
I01
sS'data'
p19
S"la&#000;$1\\x0a\\u0!!%s$1'xcalc+inf$(xcalc)\\r!xcalc%d$PATH$PATH$(xcalc)000$+\\x00$1$!!\\x00`xcalc`;xcalc%d$PATH$PATH$(xcalc)000$+\\x00$1$!!\\x00`xcalc`;xcalc!!$+tency\n"
p20
sas.