(dp0
S'parentFilename'
p1
S'intercept267.1102_0.1604_0.pickle'
p2
sS'time'
p3
NsS'filename'
p4
S'intercept267.1102_0.1604_0.8775_0.pickle'
p5
sS'seed'
p6
S'8775314147498058569'
p7
sS'fuzzer'
p8
S'Radamsa'
p9
sS'networkData'
p10
(lp11
(dp12
S'latency'
p13
NsS'from'
p14
S'cli'
p15
sS'index'
p16
I0
sS'timeouts'
p17
I0
sS'isFuzzed'
p18
I01
sS'data'
p19
S'-6370610310317995394293eeeem\xb3\xa2\x85remmmran'
p20
sas.