(dp0
S'parentFilename'
p1
S'intercept237.pickle'
p2
sS'time'
p3
NsS'filename'
p4
S'intercept237.1096_0.pickle'
p5
sS'seed'
p6
S'10967873081281329876'
p7
sS'fuzzer'
p8
S'Radamsa'
p9
sS'networkData'
p10
(lp11
(dp12
S'latency'
p13
NsS'from'
p14
S'cli'
p15
sS'index'
p16
I0
sS'timeouts'
p17
I0
sS'isFuzzed'
p18
I01
sS'data'
p19
S'un\rwatch\xf3\xa0\xdd\xca\xb7\xf3\xa0\x80\xba\xfb\xa0\x81\xbdsfs\xca\xb7sfs\xef\xb7\x90\x80\xae\n'
p20
sas.