(dp0
S'parentFilename'
p1
S'intercept156.1591_0.1599_0.pickle'
p2
sS'time'
p3
NsS'filename'
p4
S'intercept156.1591_0.1599_0.6614_0.pickle'
p5
sS'seed'
p6
S'6614060144804707811'
p7
sS'fuzzer'
p8
S'Radamsa'
p9
sS'networkData'
p10
(lp11
(dp12
S'latency'
p13
NsS'from'
p14
S'cli'
p15
sS'index'
p16
I0
sS'timeouts'
p17
I0
sS'isFuzzed'
p18
I01
sS'data'
p19
S'l+/v257t7t\xf3\xa0\x81\x94\x94rim\n'
p20
sas.