(dp0
S'parentFilename'
p1
S'intercept265.1405_0.pickle'
p2
sS'time'
p3
NsS'filename'
p4
S'intercept265.1405_0.9383_0.pickle'
p5
sS'seed'
p6
S'9383387857708367287'
p7
sS'fuzzer'
p8
S'Radamsa'
p9
sS'networkData'
p10
(lp11
(dp12
S'latency'
p13
NsS'from'
p14
S'cli'
p15
sS'index'
p16
I0
sS'timeouts'
p17
I0
sS'isFuzzed'
p18
I01
sS'data'
p19
S'\xf3\xa0\x80\xa8zran\xf3\xc3\xa0\x81\xf3\xc3\xa0\x81\xf3\xa0\x81\x86\xa0\x81\xe2\x81\xa8\xac\xf3\xa0\x81\xbb\xddsfs\x94k\n'
p20
sas.