(dp0
S'parentFilename'
p1
S'intercept110.1716_0.8586_0.pickle'
p2
sS'time'
p3
NsS'filename'
p4
S'intercept110.1716_0.8586_0.3789_0.pickle'
p5
sS'seed'
p6
S'3789470229350466470'
p7
sS'fuzzer'
p8
S'Radamsa'
p9
sS'networkData'
p10
(lp11
(dp12
S'latency'
p13
NsS'from'
p14
S'cli'
p15
sS'index'
p16
I0
sS'timeouts'
p17
I0
sS'isFuzzed'
p18
I01
sS'data'
p19
S'f\xf3\xa0\xf3\xa0\x81\xac\x80\xa3luhdbbbbb\n'
p20
sas.