(dp0
S'parentFilename'
p1
S'intercept276.1153_0.2043_0.1687_0.pickle'
p2
sS'time'
p3
NsS'filename'
p4
S'intercept276.1153_0.2043_0.1687_0.2541_0.pickle'
p5
sS'seed'
p6
S'2541487406304944905'
p7
sS'fuzzer'
p8
S'Radamsa'
p9
sS'networkData'
p10
(lp11
(dp12
S'latency'
p13
NsS'from'
p14
S'cli'
p15
sS'index'
p16
I0
sS'timeouts'
p17
I0
sS'isFuzzed'
p18
I01
sS'data'
p19
S'\xe2\x81\xef\xb7\xba\x9fzunionstore\xf3\xa0\x80\xeb\xb3\xc0\x8f'
p20
sas.