(dp0
S'parentFilename'
p1
S'intercept229.1113_0.1511_0.pickle'
p2
sS'time'
p3
NsS'filename'
p4
S'intercept229.1113_0.1511_0.3321_0.pickle'
p5
sS'seed'
p6
S'3321731580810265763'
p7
sS'fuzzer'
p8
S'Radamsa'
p9
sS'networkData'
p10
(lp11
(dp12
S'latency'
p13
NsS'from'
p14
S'cli'
p15
sS'index'
p16
I0
sS'timeouts'
p17
I0
sS'isFuzzed'
p18
I01
sS'data'
p19
S'sswab\n'
p20
sas.