(dp0
S'parentFilename'
p1
S'intercept37.1468_0.4295_0.9078_0.pickle'
p2
sS'time'
p3
NsS'filename'
p4
S'intercept37.1468_0.4295_0.9078_0.1516_0.pickle'
p5
sS'seed'
p6
S'15161648421501972112'
p7
sS'fuzzer'
p8
S'Radamsa'
p9
sS'networkData'
p10
(lp11
(dp12
S'latency'
p13
NsS'from'
p14
S'cli'
p15
sS'index'
p16
I0
sS'timeouts'
p17
I0
sS'isFuzzed'
p18
I01
sS'data'
p19
S'ZCARD key                                         \nZCARD key                          \\x00\\r\\n$&\\0"xcalc`xcalc`$\'\\x0a\\x0a!xcalc%n%n$`NaNZCARD key                           \nZCARD key                           \nZCARD key                 c`xcalc`$\'\\x0a\\x0a!xcalc%n%n$`NaNZCARD key                           \nZCARD key                           \nZCARD key                 c`xcalc`$\'\\x0a\\x0a!xcalc%n%n$`NaNZCARD key                           \nZCARD key                           \nZCARD key                 c`xcalc`$\'\\x0a\\x0a!xcalc%n%n$`NaNZCARD key                           \nZCARD key                           \nZCARD key                 c`xcalc`$\'\\x0a\\x0a!xcalc%n%n$`NaNZCARD key                           \nZCARD key                           \nZCARD key                 c`xcalc`$\'\\x0a\\x0a!xcalc%n%n$`NaNZCARD key                           \nZCARD key                           \nZCARD key                 c`xcalc`$\'\\x0a\\x0a!xcalc%n%n$`NaNZCARD key                           \nZCARD key                           \nZCARD key                 c`xcalc`$\'\\x0a\\x0a!xcalc%n%n$`NaNZCARD key                           \nZCARD key                           \nZCARD key                 c`xcalc`$\'\\x0a\\x0a!xcalc%n%n$`NaNZCARD key                           \nZCARD key                           \nZCARD key                 c`xcalc`$\'\\x0a\\x0a!xcalc%n%n$`NaNZCARD key                           \nZCARD key                           \nZCARD key                 c`xcalc`$\'\\x0a\\x0a!xcalc%n%n$`NaNZCARD key                           \nZCARD key                           \nZCARD key                 c`xcalc`$\'\\x0a\\x0a!xcalc%n%n$`NaNZCARD key                           \nZCARD key                           \nZCARD key                 c`xcalc`$\'\\x0a\\x0a!xcalc%n%n$`NaNZCARD key                           \nZCARD key                           \nZCARD key                 c`xcalc`$\'\\x0a\\x0a!xcalc%n%n$`NaNZCARD key                           \nZCARD key                           \nZCARD key                 c`xcalc`$\'\\x0a\\x0a!xcalc%n%n$`NaNZCARD key                           \nZCARD key                           \nZCARD key                 c`xcalc`$\'\\x0a\\x0a!xcalc%n%n$`NaNZCARD key                           \nZCARD key                           \nZCARD key                 c`xcalc`$\'\\x0a\\x0a!xcalc%n%n$`NaNZCARD key                           \nZCARD key                           \nZCARD key                 c`xcalc`$\'\\x0a\\x0a!xcalc%n%n$`NaNZCARD key                           \nZCARD key                           \nZCARD key                 c`xcalc`$\'\\x0a\\x0a!xcalc%n%n$`NaNZCARD key                           \nZCARD key                           \nZCARD key                 c`xcalc`$\'\\x0a\\x0a!xcalc%n%n$`NaNZCARD key                           \nZCARD key                           \nZCARD key                 c`xcalc`$\'\\x0a\\x0a!xcalc%n%n$`NaNZCARD key                           \nZCARD key                           \nZCARD key                 c`xcalc`$\'\\x0a\\x0a!xcalc%n%n$`NaNZCARD key                           \nZCARD key                           \nZCARD key                 c`xcalc`$\'\\x0a\\x0a!xcalc%n%n$`NaNZCARD key                           \nZCARD key                           \nZCARD key                 c`xcalc`$\'\\x0a\\x0a!xcalc%n%n$`NaNZCARD key                           \nZCARD key                           \nZCARD key                 c`xcalc`$\'\\x0a\\x0a!xcalc%n%n$`NaNZCARD key                           \nZCARD key                           \nZCARD key                 c`xcalc`$\'\\x0a\\x0a!xcalc%n%n$`NaNZCARD key                           \nZCARD key                           \nZCARD key                 c`xcalc`$\'\\x0a\\x0a!xcalc%n%n$`NaNZCARD key                           \nZCARD key                           \nZCARD key                 c`xcalc`$\'\\x0a\\x0a!xcalc%n%n$`NaNZCARD key                           \nZCARD key                           \nZCARD key                 c`xcalc`$\'\\x0a\\x0a!xcalc%n%n$`NaNZCARD key                           \nZCARD key                           \nZCARD key                 c`xcalc`$\'\\x0a\\x0a!xcalc%n%n$`NaNZCARD key                           \nZCARD key                           \nZCARD key                 c`xcalc`$\'\\x0a\\x0a!xcalc%n%n$`NaNZCARD key                           \nZCARD key                           \nZCARD key                 c`xcalc`$\'\\x0a\\x0a!xcalc%n%n$`NaNZCARD key                           \nZCARD key                           \nZCARD key                 c`xcalc`$\'\\x0a\\x0a!xcalc%n%n$`NaNZCARD key                           \nZCARD key                           \nZCARD key                 c`xcalc`$\'\\x0a\\x0a!xcalc%n%n$`NaNZCARD key                           \nZCARD key                           \nZCARD key                 c`xcalc`$\'\\x0a\\x0a!xcalc%n%n$`NaNZCARD key                           \nZCARD key                           \nZCARD key                 c`xcalc`$\'\\x0a\\x0a!xcalc%n%n$`NaNZCARD key                           \nZCARD key                           \nZCARD key                 c`xcalc`$\'\\x0a\\x0a!xcalc%n%n$`NaNZCARD key                           \nZCARD key                           \nZCARD key                 c`xcalc`$\'\\x0a\\x0a!xcalc%n%n$`NaNZCARD key                           \nZCARD key                           \nZCARD key                 c`xcalc`$\'\\x0a\\x0a!xcalc%n%n$`NaNZCARD key                           \nZCARD key                           \nZCARD key                 c`xcalc`$\'\\x0a\\x0a!xcalc%n%n$`NaNZCARD key                           \nZCARD key                           \nZCARD key                 c`xcalc`$\'\\x0a\\x0a!xcalc%n%n$`NaNZCARD key                           \nZCARD key                           \nZCARD key                 c`xcalc`$\'\\x0a\\x0a!xcalc%n%n$`NaNZCARD key                           \nZCARD key                           \nZCARD key                 c`xcalc`$\'\\x0a\\x0a!xcalc%n%n$`NaNZCARD key                           \nZCARD key                           \nZCARD key                 c`xcalc`$\'\\x0a\\x0a!xcalc%n%n$`NaNZCARD key                           \nZCARD key                           \nZCARD key                 \x00c`xcalc`$\'\\x0a\\x0a!xcalc%n%n$`NaNZCARD key                           \nZCARD key                           \nZCARD key                 c`xcalc`$\'\\x0a\\x0a!xcalc%n%n$`NaNZCARD key                           \nZCARD key                           \nZCARD key                 c`xcalc`$\'\\x0a\\x0a!xcalc%n%n$`NaNZCARD key                           \nZCARD key                           \nZCARD key                 c`xcalc`$\'\\x0a\\x0a!xcalc%n%n$`NaNZCARD key                           \nZCARD key                           \nZCARD key                 c`xcalc`$\'\\x0a\\x0a!xcalc%n%n$`NaNZCARD key                           \nZCARD key                           \nZCARD key                 c`xcalc`$\'\\x0a\\x0a!xcalc%n%n$`NaNZCARD key                           \nZCARD key                           \nZCARD key                 c`xcalc`$\'\\x0a\\x0a!xcalc%n%n$`NaNZCARD key                           \nZCARD key                           \nZCARD key                 c`xcalc`$\'\\x0a\\x0a!xcalc%n%n$`NaNZCARD key                           \nZCARD key                           \nZCARD key                 c`xcalc`$\'\\x0a\\x0a!xcalc%n%n$`NaNZCARD key                           \nZCARD key                           \nZCARD key                 c`xcalc`$\'\\x0a\\x0a!xcalc%n%n$`NaNZCARD key                           \nZCARD key                           \nZCARD key                 c`xcalc`$\'\\x0a\\x0a!xcalc%n%n$`NaNZCARD key                           \nZCARD key                           \nZCARD key                 c`xcalc`$\'\\x0a\\x0a!xcalc%n%n$`NaNZCARD key                           \nZCARD key                           \nZCARD key                 c`xcalc`$\'\\x0a\\x0a!xcalc%n%n$`NaNZCARD key                           \nZCARD key                           \nZCARD key                 c`xcalc`$\'\\x0a\\x0a!xcalc%n%n$`NaNZCARD key                           \nZCARD key                           \nZCARD key                 c`xcalc`$\'\\x0a\\x0a!xcalc%n%n$`N$\'\\x0a\\x32769a!xcalc%n%n$`N$\'\\x0a\\x0a!xcalc%n%n$`N$\'\\x0a\\x0a!xcalc%n%n$`N$\'\\x0a\\x0a!xcalc%n%n$`N$\'\\x0a\\x0a!xcalc%n%n$`N$\'\\x0a\\x0a!xcalc%n%n$`N$\'\\x0a\\x0a!xcalc%n%n$`N$\'\\x0a\\x0a!xcalc%n%n$`N$\'\\x0a\\x0a!xcalc%n%n$`N$\'\\x0a\\x0a!xcalc%n%n$`NaNZCARD key                           \nZCARD key                           \nZCARD key                 c`xcalc`$\'\\x0a\\x0a!xcalc%n%n$`NaNZCARD key                           \nZCARD key                           \nZCARD key                 c`xcalc`$\'\\x0a\\x0a!xcalc%n%n$`NaNZCARD key                           \nZCARD key                           \nZCARD key                 c`xcalc`$\'\\x0a\\x0a!xcalc%n%n$`NaNZCARD key                           \nZCARD key                           \nZCARD key                 c`xcalc`$\'\\x0a\\x0a!xcalc%n%n$`NaNZCARD key                           \nZCARD key                           \nZCARD key                 c`xcalc`$\'\\x0a\\x0a!xcalc%n%n$`NaNZCARD key                           \nZCARD key                           \nZCARD key                 c`xcalc`$\'\\x0a\\x0a!xcalc%n%n$`NaNZCARD key                           \nZCARD key                           \nZCARD key                 c`xcalc`$\'\\x0a\\x0a!xcalc%n%n$`NaNZCARD key                           \nZCARD key                           \nZCARD key                 c`xcalc`$\'\\x0a\\x0a!xcalc%n%n$`NaNZCARD key                           \nZCARD key                           \nZCARD key                 c`xcalc`$\'\\x0a\\x0a!xcalc%n%n$`NaNZCARD key                           \nZCARD key                           \nZCARD key                 c`xcalc`$\'\\x0a\\x0a!xcalc%n%n$`NaNZCARD key                           \nZCARD key                           \nZCARD key                 c`xcalc`$\'\\x0a\\x0a!xcalc%n%n$`NaNZCARD key                           \nZCARD key                           \nZCARD key                 c`xcalc`$\'\\x0a\\x0a!xcalc%n%n$`NaNZCARD key                           \nZCARD key                           \nZCARD key                 c`xcalc`$\'\\x0a\\x0a!xcalc%n%n$`NaNZCARD key                           \nZCARD key                           \nZCARD key                 c`xcalc`$\'\\x0a\\x0a!xcalc%n%n$`NaNZCARD key                           \nZCARD key                           \nZCARD key                 c`xcalc`$\'\\x0a\\x0a!xcalc%n%n$`NaNZCARD key                           \nZCARD key                           \nZCARD key                 c`xcalc`$\'\\x0a\\x0a!xcalc%n%n$`NaNZCARD key                           \nZCARD key                           \nZCARD key                 c`xcalc`$\'\\x0a\\x0a!xcalc%n%n$`NaNZCARD key                           \nZCARD key                           \nZCARD key                 c`xcalc`$\'\\x0a\\x0a!xcalc%n%n$`NaNZCARD key                           \nZCARD key                           \nZCARD key                 c`xcalc`$\'\\x0a\\x0a!xcalc%n%n$`NaNZCARD key                           \nZCARD key                           \nZCARD key                 c`xcalc`$\'\\x0a\\x0a!xcalc%n%n$`NaNZCARD key                           \nZCARD key                           \nZCARD key                 c`xcalc`$\'\\x0a\\x0a!xcalc%n%n$`NaNZCARD key                           \nZCARD key                           \nZCARD key                 c`xcalc`$\'\\x0a\\x0a!xcalc%n%n$`NaNZCARD key                           \nZCARD key                           \nZCARD key                 c`xcalc`$\'\\x0a\\x0a!xcalc%n%n$`NaNZCARD key                           \nZCARD key                           \nZCARD key                 c`xcalc`$\'\\x0a\\x0a!xcalc%n%n$`NaNZCARD key                           \nZCARD key                           \nZCARD key                 c`xcalc`$\'\\x0a\\x0a!xcalc%n%n$`NaNZCARD key                           \nZCARD key                           \nZCARD key                 c`xcalc`$\'\\x0a\\x0a!xcalc%n%n$`NaNZCARD key                           \nZCARD key                           \nZCARD key                 c`xcalc`$\'\\x0a\\x0a!xcalc%n%n$`NaNZCARD key                           \nZCARD key                           \nZCARD key                 c`xcalc`$\'\\x0a\\x0a!xcalc%n%n$`NaNZCARD key                           \nZCARD key                           \nZCARD key                 c`xcalc`$\'\\x0a\\x0a!xcalc%n%n$`NaNZCARD key                           \nZCARD key                           \nZCARD key                 c`xcalc`$\'\\x0a\\x0a!xcalc%n%n$`NaNZCARD key                           \nZCARD key                           \nZCARD key                 c`xcalc`$\'\\x0a\\x0a!xcalc%n%n$`NaNZCARD key                           \nZCARD key                           \nZCARD key                 c`xcalc`$\'\\x0a\\x0a!xcalc%n%n$`NaNZCARD key                           \nZCARD key                           \nZCARD key                 c`xcalc`$\'\\x0a\\x0a!xcalc%n%n$`NaNZCARD key                           \nZCARD key                           \nZCARD key                 c`xcalc`$\'\\x0a\\x0a!xcalc%n%n$`NaNZCARD key                           \nZCARD key                           \nZCARD key                 c`xcalc`$\'\\x0a\\x0a!xcalc%n%n$`NaNZCARD key                           \nZCARD key                           \nZCARD key                 c`xcalc`$\'\\x0a\\x0a!xcalc%n%n$`NaNZCARD key                           \nZCARD key                           \nZCARD key                 c`xcalc`$\'\\x0a\\x0a!xcalc%n%n$`NaNZCARD key                           \nZCARD key                           \nZCARD key                 c`xcalc`$\'\\x0a\\x0a!xcalc%n%n$`NaNZCARD key                           \nZCARD key                           \nZCARD key                 c`xcalc`$\'\\x0a\\x0a!xcalc%n%n$`NaNZCARD key                           \nZCARD key                           \nZCARD key                 c`xcalc`$\'\\x0a\\x0a!xcalc%n%n$`NaNZCARD key                           \nZCARD key                           \nZCARD key                 c`xcalc`$\'\\x0a\\x0a!xcalc%n%n$`NaNZCARD key                           \nZCARD key                           \nZCARD key                 c`xcalc`$\'\\x0a\\x0a!xcalc%n%n$`NaNZCARD key                           \nZCARD key                           \nZCARD key                 c`xcalc`$\'\\x0a\\x0a!xcalc%n%n$`NaNZCARD key                           \nZCARD key                           \nZCARD key                 c`xcalc`$\'\\x0a\\x0a!xcalc%n%n$`NaNZCARD key                           \nZCARD key                           \nZCARD key                 c`xcalc`$\'\\x0a\\x0a!xcalc%n%n$`NaNZCARD key                           \nZCARD key                           \nZCARD key                 c`xcalc`$\'\\x0a\\x0a!xcalc%n%n$`NaNZCARD key                           \nZCARD key                           \nZCARD key                 c`xcalc`$\'\\x0a\\x0a!xcalc%n%n$`NaNZCARD key                           \nZCARD key                           \nZCARD key                 c`xcalc`$\'\\x0a\\x0a!xcalc%n%n$`NaNZCARD key                           \nZCARD key                           \nZCARD key                 c`xcalc`$\'\\x0a\\x0a!xcalc%n%n$`NaNZCARD key                           \nZCARD key                           \nZCARD key                 c`xcalc`$\'\\x0a\\x0a!xcalc%n%n$`NaNZCARD key                           \nZCARD key                           \nZCARD key                 c`xcalc`$\'\\x0a\\x0a!xcalc%n%n$`NaNZCARD key                           \nZCARD key                           \nZCARD key                 c`xcalc`$\'\\x0a\\x0a!xcalc%n%n$`NaNZCARD key                           \nZCARD key                           \nZCARD key                 c`xcalc`$\'\\x0a\\x0a!xcalc%n%n$`NaNZCARD key                           \nZCARD key                           \nZCARD key                 c`xcalc`$\'\\x0a\\x0a!xcalc%n%n$`NaNZCARD key                           \nZCARD key                           \nZCARD key                 c`xcalc`$\'\\x0a\\x0a!xcalc%n%n$`NaNZCARD key                           \nZCARD key                           \nZCARD key                 c`xcalc`$\'\\x0a\\x0a!xcalc%n%n$`NaNZCARD key                           \nZCARD key                           \nZCARD key                 c`xcalc`$\'\\x0a\\x0a!xcalc%n%n$`NaNZCARD key                           \nZCARD key                           \nZCARD key                 c`xcalc`$\'\\x0a\\x0a!xcalc%n%n$`NaNZCARD key                           \nZCARD key                           \nZCARD key                 c`xcalc`$\'\\x0a\\x0a!xcalc%n%n$`NaNZCARD key                           \nZCARD key                           \nZCARD key                 c`xcalc`$\'\\x0a\\x0a!xcalc%n%n$`NaNZCARD key                           \nZCARD key                           \nZCARD key                 c`xcalc`$\'\\x0a\\x0a!xcalc%n%n$`NaNZCARD key                           \nZCARD key                           \nZCARD key                 c`xcalc`$\'\\x0a\\x0a!xcalc%n%n$`NaNZCARD key                           \nZCARD key                           \nZCARD key                 c`xcalc`$\'\\x0a\\x0a!xcalc%n%n$`NaNZCARD key                           \nZCARD key                           \nZCARD key                 c`xcalc`$\'\\x0a\\x0a!xcalc%n%n$`NaNZCARD key                           \nZCARD key                           \nZCARD key                 c`xcalc`$\'\\x0a\\x0a!xcalc%n%n$`NaNZCARD key                           \nZCARD key                           \nZCARD key                 c`xcalc`$\'\\x0a\\x0a!xcalc%n%n$`NaNZCARD key                           \nZCARD key                           \nZCARD key                 c`xcalc`$\'\\x0a\\x0a!xcalc%n%n$`NaNZCARD key                           \nZCARD key                           \nZCARD key                 c`xcalc`$\'\\x0a\\x0a!xcalc%n%n$`NaNZCARD key                           \nZCARD key                           \nZCARD key                 c`xcalc`$\'\\x0a\\x0a!xcalc%n%n$`NaNZCARD key                           \nZCARD key                           \nZCARD key                 c`xcalc`$\'\\x0a\\x0a!xcalc%n%n$`NaNZCARD key                           \nZCARD key                           \nZCARD key                 c`xcalc`$\'\\x0a\\x0a!xcalc%n%n$`NaNZCARD key                           \nZCARD key                           \nZCARD key                 c`xcalc`$\'\\x0a\\x0a!xcalc%n%n$`NaNZCARD key                           \nZCARD key                           \nZCARD key                 c`xcalc`$\'\\x0a\\x0a!xcalc%n%n$`NaNZCARD key                           \nZCARD key                           \nZCARD key                 c`xcalc`$\'\\x0a\\x0a!xcalc%n%n$`NaNZCARD key                           \nZCARD key                           \nZCARD key                 c`xcalc`$\'\\x0a\\x0a!xcalc%n%n$`NaNZCARD key                           \nZCARD key                           \nZCARD key                 c`xcalc`$\'\\x0a\\x0a!xcalc%n%n$`NaNZCARD key                           \nZCARD key                           \nZCARD key                 c`xcalc`$\'\\x0a\\x0a!xcalc%n%n$`NaNZCARD key                           \nZCARD key                           \nZCARD key                 c`xcalc`$\'\\x0a\\x0a!xcalc%n%n$`NaNZCARD key                           \nZCARD key                           \nZCARD key                 c`xcalc`$\'\\x0a\\x0a!xcalc%n%n$`NaNZCARD key                           \nZCARD key                           \nZCARD key                 c`xcalc`$\'\\x0a\\x0a!xcalc%n%n$`NaNZCARD key                           \nZCARD key                           \nZCARD key                 c`xcalc`$\'\\x0a\\x0a!xcalc%n%n$`NaNZCARD key                           \nZCARD key                           \nZCARD key                 c`xcalc`$\'\\x0a\\x0a!xcalc%n%n$`NaNZCARD key                           \nZCARD key                           \nZCARD key                 c`xcalc`$\'\\x0a\\x0a!xcalc%n%n$`NaNZCARD key                           \nZCARD key                           \nZCARD key                 c`xcalc`$\'\\x0a\\x0a!xcalc%n%n$`NaNZCARD key                           \nZCARD key                           \nZCARD key                 c`xcalc`$\'\\x0a\\x0a!xcalc%n%n$`NaNZCARD key                           \nZCARD key                           \nZCARD key                 c`xcalc`$\'\\x0a\\x0a!xcalc%n%n$`NaNZCARD key                           \nZCARD key                           \nZCARD key                 c`xcalc`$\'\\x0a\\x0a!xcalc%n%n$`NaNZCARD key                           \nZCARD key                           \nZCARD key                 c`xcalc`$\'\\x0a\\x0a!xcalc%n%n$`NaNZCARD key                           \nZCARD key                           \nZCARD key                 c`xcalc`$\'\\x0a\\x0a!xcalc%n%n$`NaNZCARD key                           \nZCARD key                           \nZCARD key                 c`xcalc`$\'\\x0a\\x0a!xcalc%n%n$`NaNZCARD key                           \nZCARD key                           \nZCARD key                 c`xcalc`$\'\\x0a\\x0a!xcalc%n%n$`NaNZCARD key                           \nZCARD key                           \nZCARD key                 c`xcalc`$\'\\x0a\\x0a!xcalc%n%n$`NaNZCARD key                           \nZCARD key                           \nZCARD key                 c`xcalc`$\'\\x0a\\x0a!xcalc%n%n$`NaNZCARD key                           \nZCARD key                           \nZCARD key                 c`xcalc`$\'\\x0a\\x0a!xcalc%n%n$`NaNZCARD key                           \nZCARD key                           \nZCARD key                 c`xcalc`$\'\\x0a\\x0a!xcalc%n%n$`NaNZCARD key                           \nZCARD key                           \nZCARD key                 c`xcalc`$\'\\x0a\\x0a!xcalc%n%n$`NaNZCARD key                           \nZCARD key                           \nZCARD key                 c`xcalc`$\'\\x0a\\x0a!xcalc%n%n$`NaNZCARD key                           \nZCARD key                           \nZCARD key                 c`xcalc`$\'\\x0a\\x0a!xcalc%n%n$`NaNZCARD key                           \nZCARD key                           \nZCARD key                 c`xcalc`$\'\\x0a\\x0a!xcalc%n%n$`NaNZCARD key                           \nZCARD key                           \nZCARD key                 c`xcalc`$\'\\x0a\\x0a!xcalc%n%n$`NaNZCARD key                           \nZCARD key                           \nZCARD key                 c`xcalc`$\'\\x0a\\x0a!xcalc%n%n$`NaNZCARD key                           \nZCARD key                           \nZCARD key                 c`xcalc`$\'\\x0a\\x0a!xcalc%n%n$`NaNZCARD key                           \nZCARD key                           \nZCARD key                 c`xcalc`$\'\\x0a\\x0a!xcalc%n%n$`NaNZCARD key                           \nZCARD key                           \nZCARD key                 c`xcalc`$\'\\x0a\\x0a!xcalc%n%n$`NaNZCARD key                           \nZCARD key                           \nZCARD key                 c`xcalc`$\'\\x0a\\x0a!xcalc%n%n$`NaNZCARD key                           \nZCARD key                           \nZCARD key                 c`xcalc`$\'\\x0a\\x0a!xcalc%n%n$`NaNZCARD key                           \nZCARD key                           \nZCARD key                 c`xcalc`$\'\\x0a\\x0a!xcalc%n%n$`NaNZCARD key                           \nZCARD key                           \nZCARD key                 c`xcalc`$\'\\x0a\\x0a!xcalc%n%n$`NaNZCARD key                           \nZCARD key                           \nZCARD key                 c`xcalc`$\'\\x0a\\x0a!xcalc%n%n$`NaNZCARD key                           \nZCARD key                           \nZCARD key                 c`xcalc`$\'\\x0a\\x0a!xcalc%n%n$`NaNZCARD key                           \nZCARD key                           \nZCARD key                 c`xcalc`$\'\\x0a\\x0a!xcalc%n%n$`NaNZCARD key                           \nZCARD key                           \nZCARD key                 c`xcalc`$\'\\x0a\\x0a!xcalc%n%n$`NaNZCARD key                           \nZCARD key                           \nZCARD key                 c`xcalc`$\'\\x0a\\x0a!xcalc%n%n$`NaNZCARD key                           \nZCARD key                           \nZCARD key                 c`xcalc`$\'\\x0a\\x0a!xcalc%n%n$`NaNZCARD key                           \nZCARD key                           \nZCARD key                 c`xcalc`$\'\\x0a\\x0a!xcalc%n%n$`NaNZCARD key                           \nZCARD key                           \nZCARD key                 c`xcalc`$\'\\x0a\\x0a!xcalc%n%n$`NaNZCARD key                           \nZCARD key                           \nZCARD key                 c`xcalc`$\'\\x0a\\x0a!xcalc%n%n$`NaNZCARD key                           \nZCARD key                           \nZCARD key                 c`xcalc`$\'\\x0a\\x0a!xcalc%n%n$`NaNZCARD key                           \nZCARD key                           \nZCARD key                 c`xcalc`$\'\\x0a\\x0a!xcalc%n%n$`NaNZCARD key                           \nZCARD key                           \nZCARD key                 c`xcalc`$\'\\x0a\\x0a!xcalc%n%n$`NaNZCARD key                           \nZCARD key                           \nZCARD key                 c`xcalc`$\'\\x0a\\x0a!xcalc%n%n$`NaNZCARD key                           \nZCARD key                           \nZCARD key                 c`xcalc`$\'\\x0a\\x0a!xcalc%n%n$`NaNZCARD key                           \nZCARD key                           \nZCARD key                 c`xcalc`$\'\\x0a\\x0a!xcalc%n%n$`NaNZCARD key                           \nZCARD key                           \nZCARD key                 c`xcalc`$\'\\x0a\\x0a!xcalc%n%n$`NaNZCARD key                           \nZCARD key                           \nZCARD key                 c`xcalc`$\'\\x0a\\x0a!xcalc%n%n$`NaNZCARD key                           \nZCARD key                           \nZCARD key                 c`xcalc`$\'\\x0a\\x0a!xcalc%n%n$`NaNZCARD key                           \nZCARD key                           \nZCARD key                 c`xcalc`$\'\\x0a\\x0a!xcalc%n%n$`NaNZCARD key                           \nZCARD key                           \nZCARD key                 c`xcalc`$\'\\x0a\\x0a!xcalc%n%n$`NaNZCARD key                           \nZCARD key                           \nZCARD key                 c`xcalc`$\'\\x0a\\x0a!xcalc%n%n$`NaNZCARD key                           \nZCARD key                           \nZCARD key                 c`xcalc`$\'\\x0a\\x0a!xcalc%n%n$`NaNZCARD key                           \nZCARD key                           \nZCARD key                 c`xcalc`$\'\\x0a\\x0a!xcalc%n%n$`NaNZCARD key                           \nZCARD key                           \nZCARD key                 c`xcalc`$\'\\x0a\\x0a!xcalc%n%n$`NaNZCARD key                           \nZCARD key                           \nZCARD key                 c`xcalc`$\'\\x0a\\x0a!xcalc%n%n$`NaNZCARD key                           \nZCARD key                           \nZCARD key                 c`xcalc`$\'\\x0a\\x0a!xcalc%n%n$`NaNZCARD key                           \nZCARD key                           \nZCARD key                 c`xcalc`$\'\\x0a\\x0a!xcalc%n%n$`NaNZCARD key                           \nZCARD key                           \nZCARD key                 c`xcalc`$\'\\x0a\\x0a!xcalc%n%n$`NaNZCARD key                           \nZCARD key                           \nZCARD key                 c`xcalc`$\'\\x0a\\x0a!xcalc%n%n$`NaNZCARD key                           \nZCARD key                           \nZCARD key                 c`xcalc`$\'\\x0a\\x0a!xcalc%n%n$`NaNZCARD key                           \nZCARD key                           \nZCARD key                 c`xcalc`$\'\\x0a\\x0a!xcalc%n%n$`NaNZCARD key                           \nZCARD key                           \nZCARD key                 c`xcalc`$\'\\x0a\\x0a!xcalc%n%n$`NaNZCARD key                           \nZCARD key                           \nZCARD key                 c`xcalc`$\'\\x0a\\x0a!xcalc%n%n$`NaNZCARD key                           \nZCARD key                           \nZCARD key                 c`xcalc`$\'\\x0a\\x0a!xcalc%n%n$`NaNZCARD key                           \nZCARD key                           \nZCARD key                 c`xcalc`$\'\\x0a\\x0a!xcalc%n%n$`NaNZCARD key                           \nZCARD key                           \nZCARD key                 c`xcalc`$\'\\x0a\\x0a!xcalc%n%n$`NaNZCARD key                           \nZCARD key                           \nZCARD key                 c`xcalc`$\'\\x0a\\x0a!xcalc%n%n$`NaNZCARD key                           \nZCARD key                           \nZCARD key                 c`xcalc`$\'\\x0a\\x0a!xcalc%n%n$`NaNZCARD key                           \nZCARD key                           \nZCARD key                 c`xcalc`$\'\\x0a\\x0a!xcalc%n%n$`NaNZCARD key                           \nZCARD key                           \nZCARD key                 c`xcalc`$\'\\x0a\\x0a!xcalc%n%n$`NaNZCARD key                           \nZCARD key                           \nZCARD key                 c`xcalc`$\'\\x0a\\x0a!xcalc%n%n$`NaNZCARD key                           \nZCARD key                           \nZCARD key                 c`xcalc`$\'\\x0a\\x0a!xcalc%n%n$`NaNZCARD key                           \nZCARD key                           \nZCARD key                 c`xcalc`$\'\\x0a\\x0a!xcalc%n%n$`NaNZCARD key                           \nZCARD key                           \nZCARD key                 c`xcalc`$\'\\x0a\\x0a!xcalc%n%n$`NaNZCARD key                           \nZCARD key                           \nZCARD key                 c`xcalc`$\'\\x0a\\x0a!xcalc%n%n$`NaNZCARD key                           \nZCARD key                           \nZCARD key                 c`xcalc`$\'\\x0a\\x0a!xcalc%n%n$`NaNZCARD key                           \nZCARD key                           \nZCARD key                 c`xcalc`$\'\\x0a\\x0a!xcalc%n%n$`NaNZCARD key                           \nZCARD key                           \nZCARD key                 c`xcalc`$\'\\x0a\\x0a!xcalc%n%n$`NaNZCARD key                           \nZCARD key                           \nZCARD key                 c`xcalc`$\'\\x0a\\x0a!xcalc%n%n$`NaNZCARD key                           \nZCARD key                           \nZCARD key                 c`xcalc`$\'\\x0a\\x0a!xcalc%n%n$`NaNZCARD key                           \nZCARD key                           \nZCARD key                 c`xcalc`$\'\\x0a\\x0a!xcalc%n%n$`NaNZCARD key                           \nZCARD key                           \nZCARD key                 c`xcalc`$\'\\x0a\\x0a!xcalc%n%n$`NaNZCARD key                           \nZCARD key                           \nZCARD key                 c`xcalc`$\'\\x0a\\x0a!xcalc%n%n$`NaNZCARD key                           \nZCARD key                           \nZCARD key                 c`xcalc`$\'\\x0a\\x0a!xcalc%n%n$`NaNZCARD key                           \nZCARD key                           \nZCARD key                 c`xcalc`$\'\\x0a\\x1a!xcalc%n%n$`NaNZCARD key                           \nZCARD key                           \nZCARD key                 c`xcalc`$\'\\x0a\\x0a!xcalc%n%n$`NaNZCARD key                           \nZCARD key                           \nZCARD key                 c`xcalc`$\'\\x0a\\x0a!xcalc%n%n$`NaNZCARD key                           \nZCARD key                           \nZCARD key                 c`xcalc`$\'\\x0a\\x0a!xcalc%n%n$`NaNZCARD key                           \nZCARD key                           \nZCARD key                 c`xcalc`$\'\\x0a\\x0a!xcalc%n%n$`NaNZCARD key                           \nZCARD key                           \nZCARD key                 c`xcalc`$\'\\x0a\\x0a!xcalc%n%n$`NaNZCARD key                           \nZCARD key                           \nZCARD key                 c`xcalc`$\'\\x0a\\x0a!xcalc%n%n$`NaNZCARD key                           \nZCARD key                           \nZCARD key                 c`xcalc`$\'\\x0a\\x0a!xcalc%n%n$`NaNZCARD key                           \nZCARD key                           \nZCARD key                 c`xcalc`$\'\\x0a\\x0a!xcalc%n%n$`NaNZCARD key                           \nZCARD key                           \nZCARD key                 c`xcalc`$\'\\x0a\\x0a!xcalc%n%n$`NaNZCARD key                           \nZCARD key                           \nZCARD key                 c`xcalc`$\'\\x0a\\x0a!xcalc%n%n$`NaNZCARD key                           \nZCARD key                           \nZCARD key                 c`xcalc`$\'\\x0a\\x0a!xcalc%n%n$`NaNZCARD key                           \nZCARD key                           \nZCARD key                 c`xcalc`$\'\\x0a\\x0a!xcalc%n%n$`NaNZCARD key                           \nZCARD key                           \nZCARD key                 c`xcalc`$\'\\x0a\\x0a!xcalc%n%n$`NaNZCARD key                           \nZCARD key                           \nZCARD key                 c`xcalc`$\'\\x0a\\x0a!xcalc%n%n$`NaNZCARD key                           \nZCARD key                           \nZCARD key                 c`xcalc`$\'\\x0a\\x0a!xcalc%n%n$`NaNZCARD key                           \nZCARD key                           \nZCARD key                 c`xcalc`$\'\\x0a\\x0a!xcalc%n%n$`NaNZCARD key                           \nZCARD key                           \nZCARD key                 c`xcalc`$\'\\x0a\\x0a!xcalc%n%n$`NaNZCARD key                           \nZCARD key                           \nZCARD key                 c`xcalc`$\'\\x0a\\x0a!xcalc%n%n$`NaNZCARD key                           \nZCARD key                           \nZCARD key                 c`xcalc`$\'\\x0a\\x0a!xcalc%n%n$`NaNZCARD key                           \nZCARD key                           \nZCARD key                 c`xcalc`$\'\\x0a\\x0a!xcalc%n%n$`NaNZCARD key                           \nZCARD key                           \nZCARD key                 c`xcalc`$\'\\x0a\\x0a!xcalc%n%n$`NaNZCARD key                           \nZCARD key                           \nZCARD key                 c`xcalc`$\'\\x0a\\x0a!xcalc%n%n$`NaNZCARD key                           \nZCARD key                           \nZCARD key                 c`xcalc`$\'\\x0a\\x0a!xcalc%n%n$`NaNZCARD key                           \nZCARD key                           \nZCARD key                 c`xcalc`$\'\\x0a\\x0a!xcalc%n%n$`NaNZCARD key                           \nZCARD key                           \nZCARD key                 c`xcalc`$\'\\x0a\\x0a!xcalc%n%n$`NaNZCARD key                           \nZCARD key                           \nZCARD key                 c`xcalc`$\'\\x0a\\x0a!xcalc%n%n$`NaNZCARD key                           \nZCARD key                           \nZCARD key                 c`xcalc`$\'\\x0a\\x0a!xcalc%n%n$`NaNZCARD key                           \nZCARD key                           \nZCARD key                 c`xcalc`$\'\\x0a\\x0a!xcalc%n%n$`NaNZCARD key                           \nZCARD key                           \nZCARD key                 c`xcalc`$\'\\x0a\\x0a!xcalc%n%n$`NaNZCARD key                           \nZCARD key                           \nZCARD key                 c`xcalc`$\'\\x0a\\x0a!xcalc%n%n$`NaNZCARD key                           \nZCARD key                           \nZCARD key                 c`xcalc`$\'\\x0a\\x0a!xcalc%n%n$`NaNZCARD key                           \nZCARD key                           \nZCARD key                 c`xcalc`$\'\\x0a\\x0a!xcalc%n%n$`NaNZCARD key                           \nZCARD key                           \nZCARD key                 c`xcalc`$\'\\x0a\\x0a!xcalc%n%n$`NaNZCARD key                           \nZCARD key                           \nZCARD key                 c`xcalc`$\'\\x0a\\x0a!xcalc%n%n$`NaNZCARD key                           \nZCARD key                           \nZCARD key                 c`xcalc`$\'\\x0a\\x0a!xcalc%n%n$`NaNZCARD key                           \nZCARD key                           \nZCARD key                 c`xcalc`$\'\\x0a\\x0a!xcalc%n%n$`NaNZCARD key                           \nZCARD key                           \nZCARD key                 c`xcalc`$\'\\x0a\\x0a!xcalc%n%n$`NaNZCARD key                           \nZCARD key                           \nZCARD key                 c`xcalc`$\'\\x0a\\x0a!xcalc%n%n$`NaNZCARD key                           \nZCARD key                           \nZCARD key                 c`xcalc`$\'\\x0a\\x0a!xcalc%n%n$`NaNZCARD key                           \nZCARD key                           \nZCARD key                 c`xcalc`$\'\\x0a\\x0a!xcalc%n%n$`NaNZCARD key                           \nZCARD key                           \nZCARD key                 c`xcalc`$\'\\x0a\\x0a!xcalc%n%n$`NaNZCARD key                           \nZCARD key                           \nZCARD key                 c`xcalc`$\'\\x0a\\x0a!xcalc%n%n$`NaNZCARD key                           \nZCARD key                           \nZCARD key                 c`xcalc`$\'\\x0a\\x0a!xcalc%n%n$`NaNZCARD key                           \nZCARD key                           \nZCARD key                 c`xcalc`$\'\\x0a\\x0a!xcalc%n%n$`NaNZCARD key                           \nZCARD key                           \nZCARD key                 c`xcalc`$\'\\x0a\\x0a!xcalc%n%n$`NaNZCARD key                           \nZCARD key                           \nZCARD key                 c`xcalc`$\'\\x0a\\x0a!xcalc%n%n$`NaNZCARD key                           \nZCARD key                           \nZCARD key                 c`xcalc`$\'\\x0a\\x0a!xcalc%n%n$`NaNZCARD key                           \nZCARD key                           \nZCARD key                 c`xcalc`$\'\\x0a\\x0a!xcalc%n%n$`NaNZCARD key                           \nZCARD key                           \nZCARD key                 c`xcalc`$\'\\x0a\\x0a!xcalc%n%n$`NaNZCARD key                           \nZCARD key                           \nZCARD key                 c`xcalc`$\'\\x0a\\x0a!xcalc%n%n$`NaNZCARD key                           \nZCARD key                           \nZCARD key                 c`xcalc`$\'\\x0a\\x0a!xcalc%n%n$`NaNZCARD key                           \nZCARD key                           \nZCARD key                 c`xcalc`$\'\\x0a\\x0a!xcalc%n%n$`NaNZCARD key                           \nZCARD key                           \nZCARD key                 c`xcalc`$\'\\x0a\\x0a!xcalc%n%n$`NaNZCARD key                           \nZCARD key                           \nZCARD key                 c`xcalc`$\'\\x0a\\x0a!xcalc%n%n$`NaNZCARD key                           \nZCARD key                           \nZCARD key                 c`xcalc`$\'\\x0a\\x0a!xcalc%n%n$`NaNZCARD key                           \nZCARD key                           \nZCARD key                 c`xcalc`$\'\\x0a\\x0a!xcalc%n%n$`NaNZCARD key                           \nZCARD key                           \nZCARD key                 c`xcalc`$\'\\x0a\\x0a!xcalc%n%n$`NaNZCARD key                           \nZCARD key                           \nZCARD key                 c`xcalc`$\'\\x0a\\x0a!xcalc%n%n$`NaNZCARD key                           \nZCARD key                           \nZCARD key                 c`xcalc`$\'\\x0a\\x0a!xcalc%n%n$`NaNZCARD key                           \nZCARD key                           \nZCARD key                 c`xcalc`$\'\\x0a\\x0a!xcalc%n%n$`NaNZCARD key                           \nZCARD key                           \nZCARD key                 c`xcalc`$\'\\x0a\\x0a!xcalc%n%n$`NaNZCARD key                           \nZCARD key                           \nZCARD key                 c`xcalc`$\'\\x0a\\x0a!xcalc%n%n$`NaNZCARD key                           \nZCARD key                           \nZCARD key                 c`xcalc`$\'\\x0a\\x0a!xcalc%n%n$`NaNZCARD key                           \nZCARD key                           \nZCARD key                 c`xcalc`$\'\\x0a\\x0a!xcalc%n%n$`NaNZCARD key                           \nZCARD key                           \nZCARD key                 c`xcalc`$\'\\x0a\\x0a!xcalc%n%n$`NaNZCARD key                           \nZCARD key                           \nZCARD key                 c`xcalc`$\'\\x0a\\x0a!xcalc%n%n$`NaNZCARD key                           \nZCARD key                           \nZCARD key                 c`xcalc`$\'\\x0a\\x0a!xcalc%n%n$`NaNZCARD key                           \nZCARD key                           \nZCARD key                 c`xcalc`$\'\\x0a\\x0a!xcalc%n%n$`NaNZCARD key                           \nZCARD key                           \nZCARD key                 c`xcalc`$\'\\x0a\\x0a!xcalc%n%n$`NaNZCARD key                           \nZCARD key                           \nZCARD key                 c`xcalc`$\'\\x0a\\x0a!xcalc%n%n$`NaNZCARD key                           \nZCARD key                           \nZCARD key                 c`xcalc`$\'\\x0a\\x0a!xcalc%n%n$`NaNZCARD key                           \nZCARD key                           \nZCARD key                 c`xcalc`$\'\\x0a\\x0a!xcalc%n%n$`NaNZCARD key                           \nZCARD key                           \nZCARD key                 c`xcalc`$\'\\x0a\\x0a!xcalc%n%n$`NaNZCARD key                           \nZCARD key                           \nZCARD key                 c`xcalc`$\'\\x0a\\x0a!xcalc%n%n$`NaNZCARD key                           \nZCARD key                           \nZCARD key                 c`xcalc`$\'\\x0a\\x0a!xcalc%n%n$`NaNZCARD key                           \nZCARD key                           \nZCARD key                 c`xcalc`$\'\\x0a\\x0a!xcalc%n%n$`NaNZCARD key                           \nZCARD key                           \nZCARD key                 c`xcalc`$\'\\x0a\\x0a!xcalc%n%n$`NaNZCARD key                           \nZCARD key                           \nZCARD key                 c`xcalc`$\'\\x0a\\x0a!xcalc%n%n$`NaNZCARD key                           \nZCARD key                           \nZCARD key                 c`xcalc`$\'\\x0a\\x0a!xcalc%n%n$`NaNZCARD key                           \nZCARD key                           \nZCARD key                 c`xcalc`$\'\\x0a\\x0a!xcalc%n%n$`NaNZCARD key                           \nZCARD key                           \nZCARD key                 c`xcalc`$\'\\x0a\\x0a!xcalc%n%n$`NaNZCARD key                           \nZCARD key                           \nZCARD key                 c`xcalc`$\'\\x0a\\x0a!xcalc%n%n$`NaNZCARD key                           \nZCARD key                           \nZCARD key                 c`xcalc`$\'\\x0a\\x0a!xcalc%n%n$`NaNZCARD key                           \nZCARD key                           \nZCARD key                 c`xcalc`$\'\\x0a\\x0a!xcalc%n%n$`NaNZCARD key                           \nZCARD key                           \nZCARD key                 c`xcalc`$\'\\x0a\\x0a!xcalc%n%n$`NaNZCARD key                           \nZCARD key                           \nZCARD key                 c`xcalc`$\'\\x0a\\x0a!xcalc%n%n$`NaNZCARD key                           \nZCARD key                           \nZCARD key                 c`xcalc`$\'\\x0a\\x0a!xcalc%n%n$`NaNZCARD key                           \nZCARD key                           \nZCARD key                 c`xcalc`$\'\\x0a\\x0a!xcalc%n%n$`NaNZCARD key                           \nZCARD key                           \nZCARD key                 c`xcalc`$\'\\x0a\\x0a!xcalc%n%n$`NaNZCARD key                           \nZCARD key                           \nZCARD key                 c`xcalc`$\'\\x0a\\x0a!xcalc%n%n$`NaNZCARD key                           \nZCARD key                           \nZCARD key                 c`xcalc`$\'\\x0a\\x0a!xcalc%n%n$`NaNZCARD key                           \nZCARD key                           \nZCARD key                 c`xcalc`$\'\\x0a\\x0a!xcalc%n%n$`NaNZCARD key                           \nZCARD key                           \nZCARD key                 c`xcalc`$\'\\x0a\\x0a!xcalc%n%n$`NaNZCARD key                           \nZCARD key                           \nZCARD key                 c`xcalc`$\'\\x0a\\x0a!xcalc%n%n$`NaNZCARD key                           \nZCARD key                           \nZCARD key                 c`xcalc`$\'\\x0a\\x0a!xcalc%n%n$`NaNZCARD key                           \nZCARD key                           \nZCARD key                 c`xcalc`$\'\\x0a\\x0a!xcalc%n%n$`NaNZCARD key                           \nZCARD key                           \nZCARD key                 c`xcalc`$\'\\x0a\\x0a!xcalc%n%n$`NaNZCARD key                           \nZCARD key                           \nZCARD key                 c`xcalc`$\'\\x0a\\x0a!xcalc%n%n$`NaNZCARD key                           \nZCARD key                           \nZCARD key                 c`xcalc`$\'\\x0a\\x0a!xcalc%n%n$`NaNZCARD key                           \nZCARD key                           \nZCARD key                 c`xcalc`$\'\\x0a\\x0a!xcalc%n%n$`NaNZCARD key                           \nZCARD key                           \nZCARD key                 c`xcalc`$\'\\x0a\\x0a!xcalc%n%n$`NaNZCARD key                           \nZCARD key                           \nZCARD key                 c`xcalc`$\'\\x0a\\x0a!xcalc%n%n$`NaNZCARD key                           \nZCARD key                           \nZCARD key                 c`xcalc`$\'\\x0a\\x0a!xcalc%n%n$`NaNZCARD key                           \nZCARD key                           \nZCARD key                 c`xcalc`$\'\\x0a\\x0a!xcalc%n%n$`NaNZCARD key                           \nZCARD key                           \nZCARD key                 c`xcalc`$\'\\x0a\\x0a!xcalc%n%n$`NaNZCARD key                           \nZCARD key                           \nZCARD key                 c`xcalc`$\'\\x0a\\x0a!xcalc%n%n$`NaNZCARD key                           \nZCARD key                           \nZCARD key                 c`xcalc`$\'\\x0a\\x0a!xcalc%n%n$`NaNZCARD key                           \nZCARD key                           \nZCARD key                 c`xcalc`$\'\\x0a\\x0a!xcalc%n%n$`NaNZCARD key                           \nZCARD key                           \nZCARD key                 c`xcalc`$\'\\x0a\\x0a!xcalc%n%n$`NaNZCARD key                           \nZCARD key                           \nZCARD key                 c`xcalc`$\'\\x0a\\x0a!xcalc%n%n$`NaNZCARD key                           \nZCARD key                           \nZCARD key                 c`xcalc`$\'\\x0a\\x0a!xcalc%n%n$`NaNZCARD key                           \nZCARD key                           \nZCARD key                 c`xcalc`$\'\\x0a\\x0a!xcalc%n%n$`NaNZCARD key                           \nZCARD key                           \nZCARD key                 c`xcalc`$\'\\x0a\\x0a!xcalc%n%n$`NaNZCARD key                           \nZCARD key                           \nZCARD key                 c`xcalc`$\'\\x0a\\x0a!xcalc%n%n$`NaNZCARD key                           \nZCARD key                           \nZCARD key                 c`xcalc`$\'\\x0a\\x0a!xcalc%n%n$`NaNZCARD key                           \nZCARD key                           \nZCARD key                 c`xcalc`$\'\\x0a\\x0a!xcalc%n%n$`NaNZCARD key                           \nZCARD key                           \nZCARD key                 c`xcalc`$\'\\x0a\\x0a!xcalc%n%n$`NaNZCARD key                           \nZCARD key                           \nZCARD key                 c`xcalc`$\'\\x0a\\x0a!xcalc%n%n$`NaNZCARD key                           \nZCARD key                           \nZCARD key                 c`xcalc`$\'\\x0a\\x0a!xcalc%n%n$`NaNZCARD key                           \nZCARD key                           \nZCARD key                 c`xcalc`$\'\\x0a\\x0a!xcalc%n%n$`NaNZCARD key                           \nZCARD key                           \nZCARD key                 c`xcalc`$\'\\x0a\\x0a!xcalc%n%n$`NaNZCARD key                           \nZCARD key                           \nZCARD key                 c`xcalc`$\'\\x0a\\x0a!xcalc%n%n$`NaNZCARD key                           \nZCARD key                           \nZCARD key                 c`xcalc`$\'\\x0a\\x0a!xcalc%n%n$`NaNZCARD key                           \nZCARD key                           \nZCARD key                 c`xcalc`$\'\\x0a\\x0a!xcalc%n%n$`NaNZCARD key                           \nZCARD key                           \nZCARD key                 c`xcalc`$\'\\x0a\\x0a!xcalc%n%n$`NaNZCARD key                           \nZCARD key                           \nZCARD key                 c`xcalc`$\'\\x0a\\x0a!xcalc%n%n$`NaNZCARD key                           \nZCARD key                           \nZCARD key                 c`xcalc`$\'\\x0a\\x0a!xcalc%n%n$`NaNZCARD key                           \nZCARD key                           \nZCARD key                 c`xcalc`$\'\\x0a\\x0a!xcalc%n%n$`NaNZCARD key                           \nZCARD key                           \nZCARD key                 c`xcalc`$\'\\x0a\\x0a!xcalc%n%n$`NaNZCARD key                           \nZCARD key                           \nZCARD key                 c`xcalc`$\'\\x0a\\x0a!xcalc%n%n$`NaNZCARD key                           \nZCARD key                           \nZCARD key                 c`xcalc`$\'\\x0a\\x0a!xcalc%n%n$`NaNZCARD key                           \nZCARD key                           \nZCARD key                 c`xcalc`$\'\\x0a\\x0a!xcalc%n%n$`NaNZCARD key                           \nZCARD key                           \nZCARD key                 c`xcalc`$\'\\x0a\\x0a!xcalc%n%n$`NaNZCARD key                           \nZCARD key                           \nZCARD key                 c`xcalc`$\'\\x0a\\x0a!xcalc%n%n$`NaNZCARD key                           \nZCARD key                           \nZCARD key                 c`xcalc`$\'\\x0a\\x0a!xcalc%n%n$`NaNZCARD key                           \nZCARD key                           \nZCARD key                 c`xcalc`$\'\\x0a\\x0a!xcalc%n%n$`NaNZCARD key                           \nZCARD key                           \nZCARD key                 c`xcalc`$\'\\x0a\\x0a!xcalc%n%n$`NaNZCARD key                           \nZCARD key                           \nZCARD key                 c`xcalc`$\'\\x0a\\x0a!xcalc%n%n$`NaNZCARD key                           \nZCARD key                           \nZCARD key                 c`xcalc`$\'\\x0a\\x0a!xcalc%n%n$`NaNZCARD key                           \nZCARD key                           \nZCARD key                 c`xcalc`$\'\\x0a\\x0a!xcalc%n%n$`NaNZCARD key                           \nZCARD key                           \nZCARD key                 c`xcalc`$\'\\x0a\\x0a!xcalc%n%n$`NaNZCARD key                           \nZCARD key                           \nZCARD key                 c`xcalc`$\'\\x0a\\x0a!xcalc%n%n$`NaNZCARD key                           \nZCARD key                           \nZCARD key                 c`xcalc`$\'\\x0a\\x0a!xcalc%n%n$`NaNZCARD key                           \nZCARD key                           \nZCARD key                 c`xcalc`$\'\\x0a\\x0a!xcalc%n%n$`NaNZCARD key                           \nZCARD key                           \nZCARD key                 c`xcalc`$\'\\x0a\\x0a!xcalc%n%n$`NaNZCARD key                           \nZCARD key                           \nZCARD key                 c`xcalc`$\'\\x0a\\x0a!xcalc%n%n$`NaNZCARD key                           \nZCARD key                           \nZCARD key                 c`xcalc`$\'\\x0a\\x0a!xcalc%n%n$`NaNZCARD key                           \nZCARD key                           \nZCARD key                 c`xcalc`$\'\\x0a\\x0a!xcalc%n%n$`NaNZCARD key                           \nZCARD key                           \nZCARD key                 c`xcalc`$\'\\x0a\\x0a!xcalc%n%n$`NaNZCARD key                           \nZCARD key                           \nZCARD key                 c`xcalc`$\'\\x0a\\x0a!xcalc%n%n$`NaNZCARD key                           \nZCARD key                           \nZCARD key                 c`xcalc`$\'\\x0a\\x0a!xcalc%n%n$`NaNZCARD key                           \nZCARD key                           \nZCARD key                 c`xcalc`$\'\\x0a\\x0a!xcalc%n%n$`NaNZCARD key                           \nZCARD key                           \nZCARD key                \nZCARD key                 c`xcalc`$\'\\x0a\\x0a!xcalc%n%n$`NaNZCARD key                           \nZCARD key                           \nZCARD key                 c`xcalc`$\'\\x0a\\x0a!xcalc%n%n$`NaNZCARD key                           \nZCARD key                           \nZCARD key                 c`xcalc`$\'\\x0a\\x0a!xcalc%n%n$`NaNZCARD key                           \nZCARD key                           \nZCARD key                 c`xcalc`$\'\\x0a\\x0a!xcalc%n%n$`NaNZCARD key                           \nZCARD key                           \nZCARD key                 c`xcalc`$\'\\x0a\\x0a!xcalc%n%n$`NaNZCARD key                           \nZCARD key                           \nZCARD key                 c`xcalc`$\'\\x0a\\x0a!xcalc%n%n$`NaNZCARD key                           \nZCARD key                           \nZCARD key                 c`xcalc`$\'\\x0a\\x0a!xcalc%n%n$`NaNZCARD key                           \nZCARD key                           \nZCARD key                 c`xcalc`$\'\\x0a\\x0a!xcalc%n%n$`NaNZCARD key                           \nZCARD key                           \nZCARD key                 c`xcalc`$\'\\x0a\\x0a!xcalc%n%n$`NaNZCARD key                           \nZCARD key                           \nZCARD key                 c`xcalc`$\'\\x0a\\x0a!xcalc%n%n$`NaNZCARD key                           \nZCARD key                           \nZCARD key                 c`xcalc`$\'\\x0a\\x0a!xcalc%n%n$`NaNZCARD key                           \nZCARD key                           \nZCARD key                 c`xcalc`$\'\\x0a\\x0a!xcalc%n%n$`NaNZCARD key                           \nZCARD key                           \nZCARD key                 c`xcalc`$\'\\x0a\\x0a!xcalc%n%n$`NaNZCARD key                           \nZCARD key                           \nZCARD key                 c`xcalc`$\'\\x0a\\x0a!xcalc%n%n$`NaNZCARD key                           \nZCARD key                           \nZCARD key                 c`xcalc`$\'\\x0a\\x0a!xcalc%n%n$`NaNZCARD key                           \nZCARD key                           \nZCARD key                 c`xcalc`$\'\\x0a\\x0a!xcalc%n%n$`NaNZCARD key                           \nZCARD key                           \nZCARD key                 c`xcalc`$\'\\x0a\\x0a!xcalc%n%n$`NaNZCARD key                           \nZCARD key                           \nZCARD key                 c`xcalc`$\'\\x0a\\x0a!xcalc%n%n$`NaNZCARD key                           \nZCARD key                           \nZCARD key                 c`xcalc`$\'\\x0a\\x0a!xcalc%n%n$`NaNZCARD key                           \nZCARD key                           \nZCARD key                 c`xcalc`$\'\\x0a\\x0a!xcalc%n%n$`NaNZCARD key                           \nZCARD key                           \nZCARD key                 c`xcalc`$\'\\x0a\\x0a!xcalc%n%n$`NaNZCARD key                           \nZCARD key                           \nZCARD key                 c`xcalc`$\'\\x0a\\x0a!xcalc%n%n$`NaNZCARD key                           \nZCARD key                           \nZCARD key                 c`xcalc`$\'\\x0a\\x0a!xcalc%n%n$`NaNZCARD key                           \nZCARD key                           \nZCARD key                 c`xcalc`$\'\\x0a\\x0a!xcalc%n%n$`NaNZCARD key                           \nZCARD key                           \nZCARD key                 c`xcalc`$\'\\x0a\\x0a!xcalc%n%n$`NaNZCARD key                           \nZCARD key                           \nZCARD key                 c`xcalc`$\'\\x0a\\x0a!xcalc%n%n$`NaNZCARD key                           \nZCARD key                           \nZCARD key                 c`xcalc`$\'\\x0a\\x0a!xcalc%n%n$`NaNZCARD key                           \nZCARD key                           \nZCARD key                 c`xcalc`$\'\\x0a\\x0a!xcalc%n%n$`NaNZCARD key                           \nZCARD key                           \nZCARD key                 c`xcalc`$\'\\x0a\\x0a!xcalc%n%n$`NaNZCARD key                           \nZCARD key                           \nZCARD key                 c`xcalc`$\'\\x0a\\x0a!xcalc%n%n$`NaNZCARD key                           \nZCARD key                           \nZCARD key                 c`xcalc`$\'\\x0a\\x0a!xcalc%n%n$`NaNZCARD key                           \nZCARD key                           \nZCARD key                 c`xcalc`$\'\\x0a\\x0a!xcalc%n%n$`NaNZCARD key                           \nZCARD key                           \nZCARD key                 c`xcalc`$\'\\x0a\\x0a!xcalc%n%n$`NaNZCARD key                           \nZCARD key                           \nZCARD key                 c`xcalc`$\'\\x0a\\x0a!xcalc%n%n$`NaNZCARD key                           \nZCARD key                           \nZCARD key                 c`xcalc`$\'\\x0a\\x0a!xcalc%n%n$`NaNZCARD key                           \nZCARD key                           \nZCARD key                 c`xcalc`$\'\\x0a\\x0a!xcalc%n%n$`NaNZCARD key                           \nZCARD key                           \nZCARD key                 c`xcalc`$\'\\x0a\\x0a!xcalc%n%n$`NaNZCARD key                           \nZCARD key                           \nZCARD key                 c`xcalc`$\'\\x0a\\x0a!xcalc%n%n$`NaNZCARD key                           \nZCARD key                           \nZCARD key                 c`xcalc`$\'\\x0a\\x0a!xcalc%n%n$`NaNZCARD key                           \nZCARD key                           \nZCARD key                 c`xcalc`$\'\\x0a\\x0a!xcalc%n%n$`NaNZCARD key                           \nZCARD key                           \nZCARD key                 c`xcalc`$\'\\x0a\\x0a!xcalc%n%n$`NaNZCARD key                           \nZCARD key                           \nZCARD key                 c`xcalc`$\'\\x0a\\x0a!xcalc%n%n$`NaNZCARD key                           \nZCARD key                           \nZCARD key                 c`xcalc`$\'\\x0a\\x0a!xcalc%n%n$`NaNZCARD key                           \nZCARD key                           \nZCARD key                 c`xcalc`$\'\\x0a\\x0a!xcalc%n%n$`NaNZCARD key                           \nZCARD key                           \nZCARD key                 c`xcalc`$\'\\x0a\\x0a!xcalc%n%n$`NaNZCARD key                           \nZCARD key                           \nZCARD key                 c`xcalc`$\'\\x0a\\x0a!xcalc%n%n$`NaNZCARD key                           \nZCARD key                           \nZCARD key                 c`xcalc`$\'\\x0a\\x0a!xcalc%n%n$`NaNZCARD key                           \nZCARD key                           \nZCARD key                 c`xcalc`$\'\\x0a\\x0a!xcalc%n%n$`NaNZCARD key                           \nZCARD key                           \nZCARD key                 c`xcalc`$\'\\x0a\\x0a!xcalc%n%n$`NaNZCARD key                           \nZCARD key                           \nZCARD key                 c`xcalc`$\'\\x0a\\x0a!xcalc%n%n$`NaNZCARD key                           \nZCARD key                           \nZCARD key                 c`xcalc`$\'\\x0a\\x0a!xcalc%n%n$`NaNZCARD key                           \nZCARD key                           \nZCARD key                 c`xcalc`$\'\\x0a\\x0a!xcalc%n%n$`NaNZCARD key                           \nZCARD key                           \nZCARD key                 c`xcalc`$\'\\x0a\\x0a!xcalc%n%n$`NaNZCARD key                           \nZCARD key                           \nZCARD key                 c`xcalc`$\'\\x0a\\x0a!xcalc%n%n$`NaNZCARD key                           \nZCARD key                           \nZCARD key                 c`xcalc`$\'\\x0a\\x0a!xcalc%n%n$`NaNZCARD key                           \nZCARD key                           \nZCARD key                 c`xcalc`$\'\\x0a\\x0a!xcalc%n%n$`NaNZCARD key                           \nZCARD key                           \nZCARD key                 c`xcalc`$\'\\x0a\\x0a!xcalc%n%n$`NaNZCARD key                           \nZCARD key                           \nZCARD key                 c`xcalc`$\'\\x0a\\x0a!xcalc%n%n$`NaNZCARD key                           \nZCARD key                           \nZCARD key                 c`xcalc`$\'\\x0a\\x957057908434a!xcalc%n%n$`NaNZCARD key                           \nZCARD key                           \nZCARD key                 c`xcalc`$\'\\x0a\\x0a!xcalc%n%n$`NaNZCARD key                           \nZCARD key                           \nZCARD key                 c`xcalc`$\'\\x0a\\x0a!xcalc%n%n$`NaNZCARD key                           \nZCARD key                           \nZCARD key                 c`xcalc`$\'\\x0a\\x0a!xcalc%n%n$`NaNZCARD key                           \nZCARD key                           \nZCARD key                 c`xcalc`$\'\\x0a\\x0a!xcalc%n%n$`NaNZCARD key                           \nZCARD key                           \nZCARD key                 c`xcalc`$\'\\x0a\\x0a!xcalc%n%n$`NaNZCARD key                           \nZCARD key                           \nZCARD key                 c`xcalc`$\'\\x0a\\x0a!xcalc%n%n$`NaNZCARD key                           \nZCARD key                           \nZCARD key                 c`xcalc`$\'\\x0a\\x0a!xcalc%n%n$`NaNZCARD key                           \nZCARD key                           \nZCARD key                 c`xcalc`$\'\\x0a\\x0a!xcalc%n%n$`NaNZCARD key                           \nZCARD key                           \nZCARD key                 c`xcalc`$\'\\x0a\\x0a!xcalc%n%n$`NaNZCARD key                           \nZCARD key                           \nZCARD key                 c`xcalc`$\'\\x0a\\x-1a!xcalc%n%n$`NaNZCARD key                           \nZCARD key                           \nZCARD key                 c`xcalc`$\'\\x0a\\x0a!xcalc%n%n$`NaNZCARD key                           \nZCARD key                           \nZCARD key                 c`xcalc`$\'\\x0a\\x0a!xcalc%n%n$`NaNZCARD key                           \nZCARD key                           \nZCARD key                 c`xcalc`$\'\\x0a\\x0a!xcalc%n%n$`NaNZCARD key                           \nZCARD key                           \nZCARD key                 c`xcalc`$\'\\x0a\\x0a!xcalc%n%n$`NaNZCARD key                           \nZCARD key                           \nZCARD key                 c`xcalc`$\'\\x0a\\x0a!xcalc%n%n$`NaNZCARD key                           \nZCARD key                           \nZCARD key                 c`xcalc`$\'\\x0a\\x0a!xcalc%n%n$`NaNZCARD key                           \nZCARD key                           \nZCARD key                 c`xcalc`$\'\\x0a\\x0a!xcalc%n%n$`NaNZCARD key                           \nZCARD key                           \nZCARD key                 c`xcalc`$\'\\x0a\\x0a!xcalc%n%n$`NaNZCARD key                           \nZCARD key                           \nZCARD key                 c`xcalc`$\'\\x0a\\x170141183460469231731687303715884105727a!xcalc%n%n$`NaNZCARD key                           \nZCARD key                           \nZCARD key                 c`xcalc`$\'\\x0a\\x0a!xcalc%n%n$`NaNZCARD key                           \nZCARD key                 "         \nZCARD key                     \x8e     \n'
p20
sas.