(dp0
S'parentFilename'
p1
S'intercept115.1563_0.pickle'
p2
sS'time'
p3
NsS'filename'
p4
S'intercept115.1563_0.1585_0.pickle'
p5
sS'seed'
p6
S'15857281089505291758'
p7
sS'fuzzer'
p8
S'Radamsa'
p9
sS'networkData'
p10
(lp11
(dp12
S'latency'
p13
NsS'from'
p14
S'cli'
p15
sS'index'
p16
I0
sS'timeouts'
p17
I0
sS'isFuzzed'
p18
I01
sS'data'
p19
S'\xef\xac\xacgeoradiusbyme\xf3\xc2\xa0\xf3\xa0\x81\x94\xa0\x81\xa6mb\nre'
p20
sas.