(dp0
S'parentFilename'
p1
S'intercept131.6413_0.1084_0.1103_0.pickle'
p2
sS'time'
p3
NsS'filename'
p4
S'intercept131.6413_0.1084_0.1103_0.5723_0.pickle'
p5
sS'seed'
p6
S'5723692767713780979'
p7
sS'fuzzer'
p8
S'Radamsa'
p9
sS'networkData'
p10
(lp11
(dp12
S'latency'
p13
NsS'from'
p14
S'cli'
p15
sS'index'
p16
I0
sS'timeouts'
p17
I0
sS'isFuzzed'
p18
I01
sS'data'
p19
S'\xf3\xa0\x80\xbbh\xf3\xa0\x80\xb6hv+O\xf3\xa0\xf0'
p20
sas.