(dp0
S'parentFilename'
p1
S'intercept1.8187_0.pickle'
p2
sS'time'
p3
NsS'filename'
p4
S'intercept1.8187_0.6621_0.pickle'
p5
sS'seed'
p6
S'6621134453743676721'
p7
sS'fuzzer'
p8
S'Radamsa'
p9
sS'networkData'
p10
(lp11
(dp12
S'latency'
p13
NsS'from'
p14
S'cli'
p15
sS'index'
p16
I0
sS'timeouts'
p17
I0
sS'isFuzzed'
p18
I01
sS'data'
p19
S'MGET  [k\xe1\x9a\x80ey MGET key                     \nMGET key                 \nMGET key [k\xe1\x9a\x80ey ...]        ..]\xf3\xa0\x80\xa4    \xff\xfe                 \nMGET key [key ...]                \nMGET key [key ...]               \nMGET\x81key [keET\x81key [keET\x81key [keET\x81key [keET\x81key [keET\x81key [key ...]                \nMGET key [k\xe1\x9a\x80ey ...]\xf3\xa0\x80\xa4    \xff\xfe            \nMGET key [key ...]                \nMGET key [key ...]                \nMGET key [key ...]                \n'
p20
sas.