(dp0
S'parentFilename'
p1
S'intercept140.1485_0.1790_0.1138_0.pickle'
p2
sS'time'
p3
NsS'filename'
p4
S'intercept140.1485_0.1790_0.1138_0.6200_0.pickle'
p5
sS'seed'
p6
S'6200451465547228879'
p7
sS'fuzzer'
p8
S'Radamsa'
p9
sS'networkData'
p10
(lp11
(dp12
S'latency'
p13
NsS'from'
p14
S'cli'
p15
sS'index'
p16
I0
sS'timeouts'
p17
I0
sS'isFuzzed'
p18
I01
sS'data'
p19
S'incrby\xe2\x80\xabiy\n\xf3\xa0\x81\xa4r\n'
p20
sas.