(dp0
S'parentFilename'
p1
S'intercept202.8812_0.pickle'
p2
sS'time'
p3
NsS'filename'
p4
S'intercept202.8812_0.1115_0.pickle'
p5
sS'seed'
p6
S'11159909666817054027'
p7
sS'fuzzer'
p8
S'Radamsa'
p9
sS'networkData'
p10
(lp11
(dp12
S'latency'
p13
NsS'from'
p14
S'cli'
p15
sS'index'
p16
I0
sS'timeouts'
p17
I0
sS'isFuzzed'
p18
I01
sS'data'
p19
S'\xfbr"rrd\xd3\xb5aqrrsrrrrrrrrr\xf2r3402823669209384\xce18446744073709551617rrrrrrrrrrrrrrrrsrrrrrrrrrrrrrr\x80d\nscaa\x01care\n'
p20
sas.