(dp0
S'parentFilename'
p1
S'intercept117.pickle'
p2
sS'time'
p3
NsS'filename'
p4
S'intercept117.1574_0.pickle'
p5
sS'seed'
p6
S'1574793755516858642'
p7
sS'fuzzer'
p8
S'Radamsa'
p9
sS'networkData'
p10
(lp11
(dp12
S'latency'
p13
NsS'from'
p14
S'cli'
p15
sS'index'
p16
I0
sS'timeouts'
p17
I0
sS'isFuzzed'
p18
I01
sS'data'
p19
S'geo$`$PATH\\r\\n"xcalc$+$&$!!\'xcalc`xcalc`\\x0a\\u0000NaNNa\x00\x00\xff\xffN$$1%s%#xNaN$`$!!radius\n'
p20
sas.