(dp0
S'parentFilename'
p1
S'intercept270.1200_0.pickle'
p2
sS'time'
p3
NsS'filename'
p4
S'intercept270.1200_0.1607_0.pickle'
p5
sS'seed'
p6
S'16076914501619971752'
p7
sS'fuzzer'
p8
S'Radamsa'
p9
sS'networkData'
p10
(lp11
(dp12
S'latency'
p13
NsS'from'
p14
S'cli'
p15
sS'index'
p16
I0
sS'timeouts'
p17
I0
sS'isFuzzed'
p18
I01
sS'data'
p19
S'ebyle$PATH!aaaa%d%n+inf$!!\\r\\n\\r\\n\\x00$PATHNaN\\0%n\\x0a$1NaNNaN\\x00$&\\x0d\\r\\n\\x00$PATHNaN\\0%n\\x0a$1NaNNaN\\x00$&\\x0d\\r\\n\\x00xca\\x0a\\PATH!aaaa%d%n+inf$!!\\r\\n\\r\\n\\x00$PATHNaN\\0%n\\x0a$1NaNNaN\\x00$&\\x0d\\r\\n\\x00xca\\n\\x00$PATHNaN\\0%n\\x0a$1NaNNaN\\x00$&\\x0d\\r\\n\\x00xca\\x0a\\PATH!xca\\6297297969653alc)+inf\\naaa%d%n;xcalc`xc"xcalc%s\\x0d$PATH\\x0dx\n'
p20
sas.