(dp0
S'parentFilename'
p1
S'intercept77.pickle'
p2
sS'time'
p3
NsS'filename'
p4
S'intercept77.1734_0.pickle'
p5
sS'seed'
p6
S'17342042830812979875'
p7
sS'fuzzer'
p8
S'Radamsa'
p9
sS'networkData'
p10
(lp11
(dp12
S'latency'
p13
NsS'from'
p14
S'cli'
p15
sS'index'
p16
I0
sS'timeouts'
p17
I0
sS'isFuzzed'
p18
I01
sS'data'
p19
S'auth\nauth\nauth\nauth\nauth\nauth\nauth\nauth\nauth\nauth\nauth\nauth\nauth\nauth\nauth\nauth\nauth\nauth\nauth\nauth\nauth\nauth\nauth\nauth\nauth\nauth\nauth\nauth\nauth\nauth\nauth\nauth\nauth\nauth\nauth\nauth\nauth\nauth\nauth\nauth\nauth\nauth\nauth\nauth\nauth\nauth\nauth\nauth\nauth\nauth\nauth\nauth\nauth\nauth\nauth\nauth\nauth\nauth\nauth\nauth\nauth\nauth\nauth\nauth\nauth\nauth\nauth\nauth\nauth\nauth\nauth\nauth\nauth\nauth\nauth\nauth\nauth\nauth\nauth\nauth\nauth\nau\xf3\xa0\x80\xb3th\xf3\xa0\x80\xa1\nauth\nauth\nauth\nauth\nauth\nauth\nauth\nauth\nauth\nauth\nauth\nauth\nauth\nauth\nauth\nauth\nauth\nauth\nauth\nauth\nauth\nauth\nauth\nauth\nauth\nauth\nauth\nauth\nauth\nauth\nauth\nauth\nauth\nauth\nauth\nauth\nauth\naut\xe2\x80\x83h\nauth\nauth\nauth\nauth\nauth\nauth\nauth\nauth\nauth\nauth\nauth\nauth\nauth\nauth\nauth\nauth\nauth\nauth\nauth\nauth\nauth\nauth\nauth\nauth\nauth\nauth\nauth\nauth\nauth\nauth\nauth\nauth\nauth\nauth\nauth\nauth\nauth\nauth\nauth\nauth\nauth\nauth\nauth\nauth\nauth\nauth\nauth\nauth\nauth\nauth\nauth\nauth\nauth\nauth\nauth\nauth\nauth\nauth\nauth\nauth\nauth\nauth\nauth\nauth\nauth\nauth\nauth\nauth\nauth\nauth\nauth\nauth\nauth\nauth\nauth\nauth\nauth\nauth\nauth\nauth\nauth\nauth\nauth\nauth\nauth\nauth\nauth\nau\xf3\xa0\x80\xb3th\xf3\xa0\x80\xa1\nauth\nauth\nauth\nauth\nauth\nauth\nauth\nauth\nauth\nauth\nauth\nauth\nauth\nauth\nauth\nauth\nauth\nauth\nauth\nauth\nauth\nauth\nauth\nauth\nauth\nauth\nauth\nauth\nauth\nauth\nauth\nauth\nauth\nauth\nauth\nauth\nauth\naut\xe2\x80\x83h\nauth\nauth\nauth\nauth\nauth\nauth\nauth\nauth\nauth\nauth\nauth\nauth\nauth\nauth\nauth\nauth\nauth\nauth\nauth\nauth\nauth\nauth\nauth\nauth\nauth\nauth\nauth\nauth\nauth\nauth\nauth\nauth\nauth\nauth\nauth\nauth\nauth\nauth\nauth\nauth\nauth\nauth\nauth\nauth\nauth\nauth\nauth\nauth\nauth\nauth\nauth\nauth\nauth\nauth\nauth\nauth\nauth\nauth\nauth\nauth\nauth\nauth\nauth\nauth\nauth\nauth\nauth\nauth\nauth\nauth\nauth\nauth\nauth\nauth\nauth\nauth\nauth\nauth\nauth\nauth\nauth\nauth\n\xe1\xa0\x8eauth\nauth\nauth\nauth\nauth\nauth\nauth\nauth\nauth\nauth\nauth\nauth\nauth\nauth\nauth\nauth\nauth\nauth\nauth\nauth\nauth\nauth\nauth\nauth\nauth\nauth\nauth\nauth\nauth\nauth\nauth\nauth\nauth\nauth\nauth\nauth\nauth\nauth\nauth\nauth\nauth\nauth\nauth\nauth\nauth\nauth\nauth\nauth\nauth\nauth\nauth\nau\xf3\xa0\x80\xb3th\xf3\xa0\x80\xa1\nauth\nauth\nauth\nauth\nauth\nauth\nauth\nauth\nauth\nauth\nauth\nauth\nauth\nauth\nauth\nauth\nauth\nauth\nauth\nauth\nauth\nauth\nauth\nauth\nauth\nauth\nauth\nauth\nauth\nauth\nauth\nauth\nauth\nauth\nauth\nauth\nauth\naut\xe2\x80\x83h\nauth\nauth\nauth\nauth\nauth\nauth\nauth\nauth\nauth\nauth\nauth\nauth\nauth\nauth\nauth\nauth\nauth\nauth\nauth\nauth\nauth\nauth\nauth\nauth\nauth\nauth\nauth\nauth\nauth\nauth\nauth\nauth\nauth\nauth\nauth\nauth\nauth\nauth\nauth\nauth\nauth\nauth\nauth\nauth\nauth\nauth\nauth\nauth\nauth\nauth\nauth\nauth\nauth\nauth\nauth\nauth\nauth\nauth\nauth\nauth\nauth\nauth\nauth\nauth\nauth\nauth\nauth\nauth\nauth\nauth\nauth\nauth\nauth\nauth\nauth\nauth\nauth\nauth\nauth\nauth\nauth\nauth\n\xe1\xa0\x8eauth\nauth\nauth\nauth\nauth\nauth\nauth\nauth\nauth\nauth\nau\xe2\x81\xa8t\xca\xb0h\nauth\nauth\nauth\nauth\nauth\nauth\nauth\nauth\nauth\nauth\nauth\nauth\nauth\nauth\nauth\nauth\nauth\nauth\nauth\nauth\nauth\nauth\nauth\nauth\nauth\nauth\nauth\nauth\nauth\nauth\nauth\nauth\nauth\nauth\nauth\nauth\nauth\nauth\nauth\nauth\nauth\nauth\nauth\nauth\nauth\nauth\nauth\nauth\nauth\nauth\nauth\nauth\nauth\nauth\nauth\nauth\nauth\nauth\nauth\nauth\nauth\nauth\n'
p20
sas.