(dp0
S'parentFilename'
p1
S'intercept208.1255_0.pickle'
p2
sS'time'
p3
NsS'filename'
p4
S'intercept208.1255_0.3363_0.pickle'
p5
sS'seed'
p6
S'3363214311312077687'
p7
sS'fuzzer'
p8
S'Radamsa'
p9
sS'networkData'
p10
(lp11
(dp12
S'latency'
p13
NsS'from'
p14
S'cli'
p15
sS'index'
p16
I0
sS'timeouts'
p17
I0
sS'isFuzzed'
p18
I01
sS'data'
p19
S'se\xf0\x9d\x9f\x96tete\nseteteT\xf3\xa0\x81\xb3x\xf3\xe3\x85\xa4\xa0\x81\x95\n'
p20
sas.