(dp0
S'parentFilename'
p1
S'intercept258.1131_0.1067_0.1361_0.pickle'
p2
sS'time'
p3
NsS'filename'
p4
S'intercept258.1131_0.1067_0.1361_0.5553_0.pickle'
p5
sS'seed'
p6
S'5553043932639923370'
p7
sS'fuzzer'
p8
S'Radamsa'
p9
sS'networkData'
p10
(lp11
(dp12
S'latency'
p13
NsS'from'
p14
S'cli'
p15
sS'index'
p16
I0
sS'timeouts'
p17
I0
sS'isFuzzed'
p18
I01
sS'data'
p19
S'\\z\xe0\xf3\x00\xaf\xa1\x8e\xf3\xa0\x00\xe3\x00\xb2\xe3\x88\x80z\xe2\xb4\x86e\n'
p20
sas.