(dp0
S'parentFilename'
p1
S'intercept142.3605_0.pickle'
p2
sS'time'
p3
NsS'filename'
p4
S'intercept142.3605_0.1078_0.pickle'
p5
sS'seed'
p6
S'10786784953164216818'
p7
sS'fuzzer'
p8
S'Radamsa'
p9
sS'networkData'
p10
(lp11
(dp12
S'latency'
p13
NsS'from'
p14
S'cli'
p15
sS'index'
p16
I0
sS'timeouts'
p17
I0
sS'isFuzzed'
p18
I01
sS'data'
p19
S'\xe2\xf3\xa0\x80\xbd\x80l\x9a\xf3\xa0\x81\x96info\n'
p20
sas.