(dp0
S'parentFilename'
p1
S'intercept112.9876_0.pickle'
p2
sS'time'
p3
NsS'filename'
p4
S'intercept112.9876_0.5021_0.pickle'
p5
sS'seed'
p6
S'5021359031282360582'
p7
sS'fuzzer'
p8
S'Radamsa'
p9
sS'networkData'
p10
(lp11
(dp12
S'latency'
p13
NsS'from'
p14
S'cli'
p15
sS'index'
p16
I0
sS'timeouts'
p17
I0
sS'isFuzzed'
p18
I01
sS'data'
p19
S'ge\xc3*\xf3\r\xa0~\xb7\x9eod\xf3\xa2\x81\xa9sI\xc2\xa0\n'
p20
sas.