(dp0
S'parentFilename'
p1
S'intercept99.1402_0.pickle'
p2
sS'time'
p3
NsS'filename'
p4
S'intercept99.1402_0.1342_0.pickle'
p5
sS'seed'
p6
S'13427597368289873988'
p7
sS'fuzzer'
p8
S'Radamsa'
p9
sS'networkData'
p10
(lp11
(dp12
S'latency'
p13
NsS'from'
p14
S'cli'
p15
sS'index'
p16
I0
sS'timeouts'
p17
I0
sS'isFuzzed'
p18
I01
sS'data'
p19
S'\x1ddi"scard\xf2\x1ddi"sc\xd7ard\xf2\x1ddi"scard\xf2\x1ddi"sc\xd7ard\xf2'
p20
sas.