(dp0
S'parentFilename'
p1
S'intercept100.1584_0.2398_0.pickle'
p2
sS'time'
p3
NsS'filename'
p4
S'intercept100.1584_0.2398_0.1442_0.pickle'
p5
sS'seed'
p6
S'14428455967314975069'
p7
sS'fuzzer'
p8
S'Radamsa'
p9
sS'networkData'
p10
(lp11
(dp12
S'latency'
p13
NsS'from'
p14
S'cli'
p15
sS'index'
p16
I0
sS'timeouts'
p17
I0
sS'isFuzzed'
p18
I01
sS'data'
p19
S'\xf1\x9f\xf3\xa0\x80\xb0\xe2\x80\x8c\x92\xaa\xf3\xa0\xe1\x85s\x81\x84\xf3'
p20
sas.