(dp0
S'parentFilename'
p1
S'intercept44.9162_0.pickle'
p2
sS'time'
p3
NsS'filename'
p4
S'intercept44.9162_0.7453_0.pickle'
p5
sS'seed'
p6
S'7453202819867945016'
p7
sS'fuzzer'
p8
S'Radamsa'
p9
sS'networkData'
p10
(lp11
(dp12
S'latency'
p13
NsS'from'
p14
S'cli'
p15
sS'index'
p16
I0
sS'timeouts'
p17
I0
sS'isFuzzed'
p18
I01
sS'data'
p19
S'SETRAN\xef\xbe\xa0GE \xf3\xa0\x81\x9dkey offset --0alue  \xf3\xa0\x81\xa2      \n'
p20
sas.