(dp0
S'parentFilename'
p1
S'intercept131.6413_0.1084_0.pickle'
p2
sS'time'
p3
NsS'filename'
p4
S'intercept131.6413_0.1084_0.1060_0.pickle'
p5
sS'seed'
p6
S'10603073839692876729'
p7
sS'fuzzer'
p8
S'Radamsa'
p9
sS'networkData'
p10
(lp11
(dp12
S'latency'
p13
NsS'from'
p14
S'cli'
p15
sS'index'
p16
I0
sS'timeouts'
p17
I0
sS'isFuzzed'
p18
I01
sS'data'
p19
S'h\xa0\x81\x81\xb8O\x93O\n\xf3\xa0\x81\xb8O\x93\xa6\x81\x89O\n'
p20
sas.