(dp0
S'parentFilename'
p1
S'intercept50.9385_0.1138_0.pickle'
p2
sS'time'
p3
NsS'filename'
p4
S'intercept50.9385_0.1138_0.2074_0.pickle'
p5
sS'seed'
p6
S'2074341153113517291'
p7
sS'fuzzer'
p8
S'Radamsa'
p9
sS'networkData'
p10
(lp11
(dp12
S'latency'
p13
NsS'from'
p14
S'cli'
p15
sS'index'
p16
I0
sS'timeouts'
p17
I0
sS'isFuzzed'
p18
I01
sS'data'
p19
S"HSEdTi y d%n%saaaa%d%n$`;xcalc%dNaN$(xcalc)\\18446744073709551617$`!xcalc;xcalc$1$'\\x00$`$++infHSEdTi y d%n%saaaa%d%n$`;xcalc%dNaN$(xcalc)\\18446744073709551617$`!xcalc;xcalc$1$'\\x00$`$++inf"
p20
sas.