(dp0
S'parentFilename'
p1
S'intercept209.1386_0.pickle'
p2
sS'time'
p3
NsS'filename'
p4
S'intercept209.1386_0.1664_0.pickle'
p5
sS'seed'
p6
S'16646998023136190805'
p7
sS'fuzzer'
p8
S'Radamsa'
p9
sS'networkData'
p10
(lp11
(dp12
S'latency'
p13
NsS'from'
p14
S'cli'
p15
sS'index'
p16
I0
sS'timeouts'
p17
I0
sS'isFuzzed'
p18
I01
sS'data'
p19
S"snx\n\n\n\n\n\n\n\n\n\n\n\n\n\n\n\n\n\n\n\n\n\n\n\n\n\n\n\n\n\n\n\n\n\n\n\n\n\n\n\n\n\n\n\n\n\n\n\n\n\n\n\n\n\n\n\x0b\n\n\n\n\n\n\n\n\n\n\n\n\n\n\n\n\n\n\n\n\n\x96%p`xcalc`$'\n\n\n\n\n\n\n\n\n\n\n\n\n\n\n\n\n\n\n\n\n\n\n\n\n\n\n\n\n\n\n\n\n\n\n\n\n\n\n\n\n\n\n\n\n\n\n\n\n\n\n\n\n\n\n\n\n\n\n\n\n\n\n\n\n\n\n\n\n\n\n\n\n\n\n\n\n\n\n\n\n\n\n\n\n\x0b\n\x0b\n\n\n\n\n\n\x0b\n"
p20
sas.