(dp0
S'parentFilename'
p1
S'intercept212.1964_0.1533_0.pickle'
p2
sS'time'
p3
NsS'filename'
p4
S'intercept212.1964_0.1533_0.1675_0.pickle'
p5
sS'seed'
p6
S'16750480855245573919'
p7
sS'fuzzer'
p8
S'Radamsa'
p9
sS'networkData'
p10
(lp11
(dp12
S'latency'
p13
NsS'from'
p14
S'cli'
p15
sS'index'
p16
I0
sS'timeouts'
p17
I0
sS'isFuzzed'
p18
I01
sS'data'
p19
S'\xf3\xa0\x80\xb9si\xe3e\xe2\xed\xaa\xad\x81\xa0\xf3\xf3\xa0\x80\xbf\xa0\x80\xa8\n'
p20
sas.