(dp0
S'parentFilename'
p1
S'intercept151.1721_0.pickle'
p2
sS'time'
p3
NsS'filename'
p4
S'intercept151.1721_0.1091_0.pickle'
p5
sS'seed'
p6
S'10915535603453234105'
p7
sS'fuzzer'
p8
S'Radamsa'
p9
sS'networkData'
p10
(lp11
(dp12
S'latency'
p13
NsS'from'
p14
S'cli'
p15
sS'index'
p16
I0
sS'timeouts'
p17
I0
sS'isFuzzed'
p18
I01
sS'data'
p19
S'lp\xf3\xe2\x81\xa7\xa0\x81\x95ush\n'
p20
sas.