(dp0
S'parentFilename'
p1
S'intercept232.7746_0.pickle'
p2
sS'time'
p3
NsS'filename'
p4
S'intercept232.7746_0.1323_0.pickle'
p5
sS'seed'
p6
S'13233978736362670336'
p7
sS'fuzzer'
p8
S'Radamsa'
p9
sS'networkData'
p10
(lp11
(dp12
S'latency'
p13
NsS'from'
p14
S'cli'
p15
sS'index'
p16
I0
sS'timeouts'
p17
I0
sS'isFuzzed'
p18
I01
sS'data'
p19
S'o\xe5c\xf3\xf3\xa0\xca\xb8\x81\xa0\xa0\x80\xa3tch\xf3\xa0\x81\xb4\xe0\xb9\x82\xf3\xa0\xb8\xf3'
p20
sas.