(dp0
S'parentFilename'
p1
S'intercept156.1543_0.pickle'
p2
sS'time'
p3
NsS'filename'
p4
S'intercept156.1543_0.1484_0.pickle'
p5
sS'seed'
p6
S'14842770334053404187'
p7
sS'fuzzer'
p8
S'Radamsa'
p9
sS'networkData'
p10
(lp11
(dp12
S'latency'
p13
NsS'from'
p14
S'cli'
p15
sS'index'
p16
I0
sS'timeouts'
p17
I0
sS'isFuzzed'
p18
I01
sS'data'
p19
S'\xf3\xa0\x80\xa7l\xf3\xf3\xa0\x81\x94\xf3\xa0\x80\xa9\xe2\x80\x8f\xf3\xa0\x81\x85\xb6'
p20
sas.