(dp0
S'parentFilename'
p1
S'intercept125.1345_0.pickle'
p2
sS'time'
p3
NsS'filename'
p4
S'intercept125.1345_0.1621_0.pickle'
p5
sS'seed'
p6
S'16214494541891815663'
p7
sS'fuzzer'
p8
S'Radamsa'
p9
sS'networkData'
p10
(lp11
(dp12
S'latency'
p13
NsS'from'
p14
S'cli'
p15
sS'index'
p16
I0
sS'timeouts'
p17
I0
sS'isFuzzed'
p18
I01
sS'data'
p19
S'hggggeta\xe0\xb9\xe2@\xe2\xe2\xe2\x80\x83\x82\xf3\xf3\xa0\x80\xa8ll\n'
p20
sas.