(dp0
S'parentFilename'
p1
S'intercept42.1259_0.pickle'
p2
sS'time'
p3
NsS'filename'
p4
S'intercept42.1259_0.1910_0.pickle'
p5
sS'seed'
p6
S'1910140839429480931'
p7
sS'fuzzer'
p8
S'Radamsa'
p9
sS'networkData'
p10
(lp11
(dp12
S'latency'
p13
NsS'from'
p14
S'cli'
p15
sS'index'
p16
I0
sS'timeouts'
p17
I0
sS'isFuzzed'
p18
I01
sS'data'
p19
S'\xcc\x0bREM\xc3\x9f k\xe2\x80\x87ey memb\xf3\xa0\x80\xb2er [member ...]        \nZREM key member ...]        \nZREM key member [member ...]         \nZREM key member [member [member ...]        \n'
p20
sas.