(dp0
S'parentFilename'
p1
S'intercept170.pickle'
p2
sS'time'
p3
NsS'filename'
p4
S'intercept170.6779_0.pickle'
p5
sS'seed'
p6
S'6779036383369246664'
p7
sS'fuzzer'
p8
S'Radamsa'
p9
sS'networkData'
p10
(lp11
(dp12
S'latency'
p13
NsS'from'
p14
S'cli'
p15
sS'index'
p16
I0
sS'timeouts'
p17
I0
sS'isFuzzed'
p18
I01
sS'data'
p19
S'pexo\ni\xf3\xf3\xba\x80\x81\xa0\x80\xacxpi\xf3\xa0\x80\xb2\xf3\xa0\x81\x80re\n'
p20
sas.