(dp0
S'parentFilename'
p1
S'intercept218.1515_0.pickle'
p2
sS'time'
p3
NsS'filename'
p4
S'intercept218.1515_0.1182_0.pickle'
p5
sS'seed'
p6
S'11822691314579974597'
p7
sS'fuzzer'
p8
S'Radamsa'
p9
sS'networkData'
p10
(lp11
(dp12
S'latency'
p13
NsS'from'
p14
S'cli'
p15
sS'index'
p16
I0
sS'timeouts'
p17
I0
sS'isFuzzed'
p18
I01
sS'data'
p19
S'sm\xf3\xa0\x81\xa6\xf3\xa0\x80\xbdomo\xf0\x9d\x85\xa0ve\xf3\xa0\x81\x9b\n'
p20
sas.