(dp0
S'parentFilename'
p1
S'intercept203.1462_0.1349_0.1518_0.1045_0.pickle'
p2
sS'time'
p3
NsS'filename'
p4
S'intercept203.1462_0.1349_0.1518_0.1045_0.1727_0.pickle'
p5
sS'seed'
p6
S'17273877960886293102'
p7
sS'fuzzer'
p8
S'Radamsa'
p9
sS'networkData'
p10
(lp11
(dp12
S'latency'
p13
NsS'from'
p14
S'cli'
p15
sS'index'
p16
I0
sS'timeouts'
p17
I0
sS'isFuzzed'
p18
I01
sS'data'
p19
S's\x80\xba\xf3\xa0\x80\xfb\xee(\xf3\x80\xba\xf3\xa0\x80\xfb\xee(\xf3\xa0\x80\xf3\xa0\x81\xa0\xbd\xa7\xf3\x81t\n\x8a\r\xa0'
p20
sas.