(dp0
S'parentFilename'
p1
S'intercept42.1542_0.5167_0.9547_0.pickle'
p2
sS'time'
p3
NsS'filename'
p4
S'intercept42.1542_0.5167_0.9547_0.2926_0.pickle'
p5
sS'seed'
p6
S'2926726792822808946'
p7
sS'fuzzer'
p8
S'Radamsa'
p9
sS'networkData'
p10
(lp11
(dp12
S'latency'
p13
NsS'from'
p14
S'cli'
p15
sS'index'
p16
I0
sS'timeouts'
p17
I0
sS'isFuzzed'
p18
I01
sS'data'
p19
S'ZREM key membe\xf3\xa0\x81\x86   \nZREM key membe\xf3\xa0\x81\x9dr [member ...]  \xe2\x80\xae   \xf3\xa0\x81\xa8   \xf3\xa0\x81\xa8   \n'
p20
sas.