(dp0
S'parentFilename'
p1
S'intercept208.1255_0.pickle'
p2
sS'time'
p3
NsS'filename'
p4
S'intercept208.1255_0.2242_0.pickle'
p5
sS'seed'
p6
S'2242217927487533083'
p7
sS'fuzzer'
p8
S'Radamsa'
p9
sS'networkData'
p10
(lp11
(dp12
S'latency'
p13
NsS'from'
p14
S'cli'
p15
sS'index'
p16
I0
sS'timeouts'
p17
I0
sS'isFuzzed'
p18
I01
sS'data'
p19
S'setete\n\xf3\xa0\x81\xe1\x85\x9f\xb3x\n'
p20
sas.