(dp0
S'parentFilename'
p1
S'intercept181.pickle'
p2
sS'time'
p3
NsS'filename'
p4
S'intercept181.1097_0.pickle'
p5
sS'seed'
p6
S'10970293853259251041'
p7
sS'fuzzer'
p8
S'Radamsa'
p9
sS'networkData'
p10
(lp11
(dp12
S'latency'
p13
NsS'from'
p14
S'cli'
p15
sS'index'
p16
I0
sS'timeouts'
p17
I0
sS'isFuzzed'
p18
I01
sS'data'
p19
S'p\xf3\xf3\x18\xe2\x81\xa9\xa0\x81\xb8\xa0\x81\x93\xe2\x80\xae\xf3\xa0\x81\x95\xe0\xb9\x84\xf3\xa0\x81\xb1ttl\n'
p20
sas.