(dp0
S'parentFilename'
p1
S'intercept131.1074_0.pickle'
p2
sS'time'
p3
NsS'filename'
p4
S'intercept131.1074_0.1073_0.pickle'
p5
sS'seed'
p6
S'1073616435216399615'
p7
sS'fuzzer'
p8
S'Radamsa'
p9
sS'networkData'
p10
(lp11
(dp12
S'latency'
p13
NsS'from'
p14
S'cli'
p15
sS'index'
p16
I0
sS'timeouts'
p17
I0
sS'isFuzzed'
p18
I01
sS'data'
p19
S'1%n\\0!!%#x$PATH\\u0000!xcalc&#000;$`$(xcalc)\\0$&%n\\u18446744073709551616!xcalc&#000;`xcalc`$!!xf\\a1%n\\0!!%#x$PATH\\u0000!xcalc&#000;$`$(xcalc)\\0$&%n\\u18446744073709551615!xcalc&#000;`xcalc`$!!xf\\a'
p20
sas.