(dp0
S'parentFilename'
p1
S'intercept197.6084_0.pickle'
p2
sS'time'
p3
NsS'filename'
p4
S'intercept197.6084_0.8153_0.pickle'
p5
sS'seed'
p6
S'8153159196188305133'
p7
sS'fuzzer'
p8
S'Radamsa'
p9
sS'networkData'
p10
(lp11
(dp12
S'latency'
p13
NsS'from'
p14
S'cli'
p15
sS'index'
p16
I0
sS'timeouts'
p17
I0
sS'isFuzzed'
p18
I01
sS'data'
p19
S"rpush$PA\x95H\\r\\n%s'xcalc;xcalcaaaa%d%n&#000;$'$0\\r\\n\\n\\u0000$(xcalc)!xcalc+inf$`\nrpush$PATH\\r\\n%s'xcalc;xcalcaaaa%d%n&#000;$'$1\\r\\n\\n\\u0$(xcalc)!xcalc+inf$`\n"
p20
sas.