(dp0
S'parentFilename'
p1
S'intercept196.1343_0.pickle'
p2
sS'time'
p3
NsS'filename'
p4
S'intercept196.1343_0.1512_0.pickle'
p5
sS'seed'
p6
S'15125467386651872540'
p7
sS'fuzzer'
p8
S'Radamsa'
p9
sS'networkData'
p10
(lp11
(dp12
S'latency'
p13
NsS'from'
p14
S'cli'
p15
sS'index'
p16
I0
sS'timeouts'
p17
I0
sS'isFuzzed'
p18
I01
sS'data'
p19
S'qp\xb3\xf3\xa0\x81\xba\xa0\xf3\xa0\xf3\x80\x94-\xa5\x94\r\xa6\x81\xb4op\n'
p20
sas.