(dp0
S'parentFilename'
p1
S'intercept2.1096_0.pickle'
p2
sS'time'
p3
NsS'filename'
p4
S'intercept2.1096_0.5349_0.pickle'
p5
sS'seed'
p6
S'5349773706132811969'
p7
sS'fuzzer'
p8
S'Radamsa'
p9
sS'networkData'
p10
(lp11
(dp12
S'latency'
p13
NsS'from'
p14
S'cli'
p15
sS'index'
p16
I0
sS'timeouts'
p17
I0
sS'isFuzzed'
p18
I01
sS'data'
p19
S'INC \xc0\xa0      \nINC        \nINC           \x1f \nINC        \nINC           \x1f  \nINC \xc0\xa0      \nINC       \xff\xff\x00\x00  \n'
p20
sas.