(dp0
S'parentFilename'
p1
S'intercept47.1497_0.1548_0.pickle'
p2
sS'time'
p3
NsS'filename'
p4
S'intercept47.1497_0.1548_0.1467_0.pickle'
p5
sS'seed'
p6
S'14670352601652103107'
p7
sS'fuzzer'
p8
S'Radamsa'
p9
sS'networkData'
p10
(lp11
(dp12
S'latency'
p13
NsS'from'
p14
S'cli'
p15
sS'index'
p16
I0
sS'timeouts'
p17
I0
sS'isFuzzed'
p18
I01
sS'data'
p19
S'ZRANGEBYSCO\xfdE key mi\xe2\x80\xaan mi\xe2\x80\xaan key mi\xe2\x80\xaa\t \xf3\xa0\x81\x97MNGEBYSCO\xfdE key mi\xe2\x80\xaan \xf3\xa0\x81\x97MIT offet] \n'
p20
sas.