(dp0
S'parentFilename'
p1
S'intercept202.1288_0.pickle'
p2
sS'time'
p3
NsS'filename'
p4
S'intercept202.1288_0.1230_0.pickle'
p5
sS'seed'
p6
S'12301423071995688685'
p7
sS'fuzzer'
p8
S'Radamsa'
p9
sS'networkData'
p10
(lp11
(dp12
S'latency'
p13
NsS'from'
p14
S'cli'
p15
sS'index'
p16
I0
sS'timeouts'
p17
I0
sS'isFuzzed'
p18
I01
sS'data'
p19
S'si\xe3\x7f\x8da\xf3\xa0\xe2\x80\xf3\xa0\x81\xac\xaa\x81\x98\n'
p20
sas.