(dp0
S'parentFilename'
p1
S'intercept93.1823_0.pickle'
p2
sS'time'
p3
NsS'filename'
p4
S'intercept93.1823_0.8611_0.pickle'
p5
sS'seed'
p6
S'8611668728580297440'
p7
sS'fuzzer'
p8
S'Radamsa'
p9
sS'networkData'
p10
(lp11
(dp12
S'latency'
p13
NsS'from'
p14
S'cli'
p15
sS'index'
p16
I0
sS'timeouts'
p17
I0
sS'isFuzzed'
p18
I01
sS'data'
p19
S'bon\xc7\xf8fSigg\t\n\x8f\x8e\xe2\x80\x81\xe2\x80\x89\n'
p20
sas.