(dp0
S'parentFilename'
p1
S'intercept21.1070_0.6526_0.4566_0.pickle'
p2
sS'time'
p3
NsS'filename'
p4
S'intercept21.1070_0.6526_0.4566_0.1737_0.pickle'
p5
sS'seed'
p6
S'17378771162154727320'
p7
sS'fuzzer'
p8
S'Radamsa'
p9
sS'networkData'
p10
(lp11
(dp12
S'latency'
p13
NsS'from'
p14
S'cli'
p15
sS'index'
p16
I0
sS'timeouts'
p17
I0
sS'isFuzzed'
p18
I01
sS'data'
p19
S'kfy\xf3\xa0\x81\x9c \xf0\x9d\x85\xa0m \xcf\xcf\xcf\xcf\xbf\xbf   \xf3\xa0\x81\xaf    \r           \xc0\xa0\n'
p20
sas.