(dp0
S'parentFilename'
p1
S'intercept170.pickle'
p2
sS'time'
p3
NsS'filename'
p4
S'intercept170.1517_0.pickle'
p5
sS'seed'
p6
S'15173300162512477125'
p7
sS'fuzzer'
p8
S'Radamsa'
p9
sS'networkData'
p10
(lp11
(dp12
S'latency'
p13
NsS'from'
p14
S'cli'
p15
sS'index'
p16
I0
sS'timeouts'
p17
I0
sS'isFuzzed'
p18
I01
sS'data'
p19
S'pe\xe2\x80\x8cx\xe0\xb9\x84pire\xf3\xa0\x80\xb0\n'
p20
sas.