(dp0
S'parentFilename'
p1
S'intercept5.1127_0.pickle'
p2
sS'time'
p3
NsS'filename'
p4
S'intercept5.1127_0.5462_0.pickle'
p5
sS'seed'
p6
S'5462008968668113090'
p7
sS'fuzzer'
p8
S'Radamsa'
p9
sS'networkData'
p10
(lp11
(dp12
S'latency'
p13
NsS'from'
p14
S'cli'
p15
sS'index'
p16
I0
sS'timeouts'
p17
I0
sS'isFuzzed'
p18
I01
sS'data'
p19
S"DECR key  $'\\\xef\xbf\xbfx0a%n$PATH'xcalc;xcalc$1$(xcalc                 \\u0000\\u0000              \xe2\x80\x89                             \n"
p20
sas.