(dp0
S'parentFilename'
p1
S'intercept212.5368_0.6849_0.pickle'
p2
sS'time'
p3
NsS'filename'
p4
S'intercept212.5368_0.6849_0.1070_0.pickle'
p5
sS'seed'
p6
S'10701448346677480242'
p7
sS'fuzzer'
p8
S'Radamsa'
p9
sS'networkData'
p10
(lp11
(dp12
S'latency'
p13
NsS'from'
p14
S'cli'
p15
sS'index'
p16
I0
sS'timeouts'
p17
I0
sS'isFuzzed'
p18
I01
sS'data'
p19
S'it\xf1\xf3\x87\x9e\xa0\xf3nt\x81\x81\xa0r\xe2r/\xb3v\xa7e\xf3\xa0\x81\x97\x81/\xf2/\xf2x\n'
p20
sas.