(dp0
S'parentFilename'
p1
S'intercept211.9216_0.pickle'
p2
sS'time'
p3
NsS'filename'
p4
S'intercept211.9216_0.3759_0.pickle'
p5
sS'seed'
p6
S'3759299536415538628'
p7
sS'fuzzer'
p8
S'Radamsa'
p9
sS'networkData'
p10
(lp11
(dp12
S'latency'
p13
NsS'from'
p14
S'cli'
p15
sS'index'
p16
I0
sS'timeouts'
p17
I0
sS'isFuzzed'
p18
I01
sS'data'
p19
S'\xef\xb7\xba\xf3\xa0\x81\x9ds\xbc\xcd\x85t\n'
p20
sas.