(dp0
S'parentFilename'
p1
S'intercept13.1250_0.pickle'
p2
sS'time'
p3
NsS'filename'
p4
S'intercept13.1250_0.1609_0.pickle'
p5
sS'seed'
p6
S'16097120723187310360'
p7
sS'fuzzer'
p8
S'Radamsa'
p9
sS'networkData'
p10
(lp11
(dp12
S'latency'
p13
NsS'from'
p14
S'cli'
p15
sS'index'
p16
I0
sS'timeouts'
p17
I0
sS'isFuzzed'
p18
I01
sS'data'
p19
S'LPUSH\xf0\x90\x80\x80 key value [value [value [value [value [value ...]        #  \n'
p20
sas.