(dp0
S'parentFilename'
p1
S'intercept258.1379_0.9732_0.1787_0.1236_0.1096_0.1072_0.pickle'
p2
sS'time'
p3
NsS'filename'
p4
S'intercept258.1379_0.9732_0.1787_0.1236_0.1096_0.1072_0.1597_0.pickle'
p5
sS'seed'
p6
S'1597057689814236068'
p7
sS'fuzzer'
p8
S'Radamsa'
p9
sS'networkData'
p10
(lp11
(dp12
S'latency'
p13
NsS'from'
p14
S'cli'
p15
sS'index'
p16
I0
sS'timeouts'
p17
I0
sS'isFuzzed'
p18
I01
sS'data'
p19
S'\x86iore\x02\xacziore\xf3\xa0re`xcalcalc`!xcalrelc&"2505525576094034*1393224717;`xcalc`%n\n'
p20
sas.