(dp0
S'parentFilename'
p1
S'intercept142.3605_0.5769_0.pickle'
p2
sS'time'
p3
NsS'filename'
p4
S'intercept142.3605_0.5769_0.1041_0.pickle'
p5
sS'seed'
p6
S'10410898499074826383'
p7
sS'fuzzer'
p8
S'Radamsa'
p9
sS'networkData'
p10
(lp11
(dp12
S'latency'
p13
NsS'from'
p14
S'cli'
p15
sS'index'
p16
I0
sS'timeouts'
p17
I0
sS'isFuzzed'
p18
I01
sS'data'
p19
S'f%n\\r\\n\\58114\xc0\xe2\x01\x8e\xbbxcalc%n&#0\xc00\xc0\xb351505477763073;\x00'
p20
sas.