(dp0
S'parentFilename'
p1
S'intercept67.1842_0.1113_0.pickle'
p2
sS'time'
p3
NsS'filename'
p4
S'intercept67.1842_0.1113_0.5340_0.pickle'
p5
sS'seed'
p6
S'5340847335578524315'
p7
sS'fuzzer'
p8
S'Radamsa'
p9
sS'networkData'
p10
(lp11
(dp12
S'latency'
p13
NsS'from'
p14
S'cli'
p15
sS'index'
p16
I0
sS'timeouts'
p17
I0
sS'isFuzzed'
p18
I01
sS'data'
p19
S'\xf3\xa0\x81\x89PUBLISH chanel message   \xe0\xb9\x81     ssage    \xf3\xa0\x80\xca\xb0\xb8      ssage    \xf3\xa0\x80\xca\xb0\xb8           "   \x1f \x1f \n'
p20
sas.