(dp0
S'parentFilename'
p1
S'intercept196.4800_0.9753_0.9254_0.1006_0.pickle'
p2
sS'time'
p3
NsS'filename'
p4
S'intercept196.4800_0.9753_0.9254_0.1006_0.5694_0.pickle'
p5
sS'seed'
p6
S'5694757996396945495'
p7
sS'fuzzer'
p8
S'Radamsa'
p9
sS'networkData'
p10
(lp11
(dp12
S'latency'
p13
NsS'from'
p14
S'cli'
p15
sS'index'
p16
I0
sS'timeouts'
p17
I0
sS'isFuzzed'
p18
I01
sS'data'
p19
S'\x80\xbc\xa0\xf3\xa0\x81\xa5\x81\x83\x90\xa0\x80\xa9\x80\xbc\xa0\xf3\xa0\x81\xa5\x81\x83\x90\xa0\x80\xa9op\xf3\xa0\x81\x81\n'
p20
sas.