(dp0
S'parentFilename'
p1
S'intercept72.2920_0.1691_0.5890_0.pickle'
p2
sS'time'
p3
NsS'filename'
p4
S'intercept72.2920_0.1691_0.5890_0.3278_0.pickle'
p5
sS'seed'
p6
S'3278648426686766926'
p7
sS'fuzzer'
p8
S'Radamsa'
p9
sS'networkData'
p10
(lp11
(dp12
S'latency'
p13
NsS'from'
p14
S'cli'
p15
sS'index'
p16
I0
sS'timeouts'
p17
I0
sS'isFuzzed'
p18
I01
sS'data'
p19
S'\xba\xc0\x9bvalue [  \n  \nA  \xa1  \xa1\x8f   \n \xc0\x1d\xbc>  \xe2\xa0\xef@\n  \n'
p20
sas.