(dp0
S'parentFilename'
p1
S'intercept13.7871_0.6883_0.pickle'
p2
sS'time'
p3
NsS'filename'
p4
S'intercept13.7871_0.6883_0.1270_0.pickle'
p5
sS'seed'
p6
S'12707373139544203671'
p7
sS'fuzzer'
p8
S'Radamsa'
p9
sS'networkData'
p10
(lp11
(dp12
S'latency'
p13
NsS'from'
p14
S'cli'
p15
sS'index'
p16
I0
sS'timeouts'
p17
I0
sS'isFuzzed'
p18
I01
sS'data'
p19
S'LPUSH key\xe2\x80\x81 value [val\xf0\x90\x80\x80ue ./.]  \xc3\x9f    \xe2\x80\x89     \nLPUSH\r lue [val\xf0\x90\x80\x80ue ./.]  \xc3\x9f    \xe2\x80\x89     \nLPUSH\r \xf3\xa0\x81\xbdkey value [value ue ue ue ue ue ue ue ue ue ue ue ue ue ueueueueueueueueueueueueueueueueueueueueueueueueueueueueueueueueueueueueueueueueueueueueueueueueueueueueueueueue ue ue ue ue ue ue ue ue ue ue ue ue ue ue ue ue ue ue ue ue ue ue ue ue ue ue ue ue ue ue ue ue ue ue ue ue ue ue ue ue ue ue ue ue ue ue ue ue ue ue ue ue ue ue ue ue ue ue ue ue ue ue ue ue ue ue ue ue ue ue ue ue ue ue ue ue ./\xb1.]         \xed\xaa\x9b\xad\xad  \xef\xbb\xbe\xce\x90  \n'
p20
sas.