(dp0
S'parentFilename'
p1
S'intercept262.1182_0.2946_0.4931_0.pickle'
p2
sS'time'
p3
NsS'filename'
p4
S'intercept262.1182_0.2946_0.4931_0.1167_0.pickle'
p5
sS'seed'
p6
S'11670241763627974498'
p7
sS'fuzzer'
p8
S'Radamsa'
p9
sS'networkData'
p10
(lp11
(dp12
S'latency'
p13
NsS'from'
p14
S'cli'
p15
sS'index'
p16
I0
sS'timeouts'
p17
I0
sS'isFuzzed'
p18
I01
sS'data'
p19
S'y\xe1\xa0\x8e\xf3\xa0\x81\x87r\xd1n\xf3\xa0\x81\xbdg\xef\xbb\xbee\xe0\xbf\xadbylex\n\x00'
p20
sas.