(dp0
S'parentFilename'
p1
S'intercept164.pickle'
p2
sS'time'
p3
NsS'filename'
p4
S'intercept164.4429_0.pickle'
p5
sS'seed'
p6
S'4429939003394621341'
p7
sS'fuzzer'
p8
S'Radamsa'
p9
sS'networkData'
p10
(lp11
(dp12
S'latency'
p13
NsS'from'
p14
S'cli'
p15
sS'index'
p16
I0
sS'timeouts'
p17
I0
sS'isFuzzed'
p18
I01
sS'data'
p19
S'\t\xf0\x9d\x9f\xb6met\xf2\xa0\x80\xb1\xe1\xa0\x8e\n'
p20
sas.