(dp0
S'parentFilename'
p1
S'intercept11.1412_0.pickle'
p2
sS'time'
p3
NsS'filename'
p4
S'intercept11.1412_0.4323_0.pickle'
p5
sS'seed'
p6
S'4323238279254796191'
p7
sS'fuzzer'
p8
S'Radamsa'
p9
sS'networkData'
p10
(lp11
(dp12
S'latency'
p13
NsS'from'
p14
S'cli'
p15
sS'index'
p16
I0
sS'timeouts'
p17
I0
sS'isFuzzed'
p18
I01
sS'data'
p19
S'BIke\xed\xba\xady [start end]\xca\xb5        \xf7dL \nBITCOUNT ke\xed\xba\xady [start end]         \xf7dL \n'
p20
sas.