(dp0
S'parentFilename'
p1
S'intercept4.1978_0.1326_0.pickle'
p2
sS'time'
p3
NsS'filename'
p4
S'intercept4.1978_0.1326_0.7742_0.pickle'
p5
sS'seed'
p6
S'7742703585842989147'
p7
sS'fuzzer'
p8
S'Radamsa'
p9
sS'networkData'
p10
(lp11
(dp12
S'latency'
p13
NsS'from'
p14
S'cli'
p15
sS'index'
p16
I0
sS'timeouts'
p17
I0
sS'isFuzzed'
p18
I01
sS'data'
p19
S'INCRBQFLOAT ke( i   dtnmnby  \nINCRBQFLOAT ke( i  \xcd\x85 dtnmnby  \nINCRBQFLOAT ke( i   etnmncy  \nINCRBQFKOAT ke( i   etnmncy  \nINCRBQFKOAT ke( i   etnmncy  \nINCRBQFKOAT ke( i   etnmncy  \nINCRBQFLOAT ke( i   dtnmnby  \nINCRBQFLOAT ke( i   etnmncy  \nINCRBQFKOAT ke( i   etnmncy  \nINCRBQFLOAT ke( i   dtnmnby  \nINCRBQFKOAT ke( i   etnmncy  \n'
p20
sas.