(dp0
S'parentFilename'
p1
S'intercept143.2769_0.1199_0.pickle'
p2
sS'time'
p3
NsS'filename'
p4
S'intercept143.2769_0.1199_0.5577_0.pickle'
p5
sS'seed'
p6
S'5577608356363267010'
p7
sS'fuzzer'
p8
S'Radamsa'
p9
sS'networkData'
p10
(lp11
(dp12
S'latency'
p13
NsS'from'
p14
S'cli'
p15
sS'index'
p16
I0
sS'timeouts'
p17
I0
sS'isFuzzed'
p18
I01
sS'data'
p19
S'k\x841\xe0\xb9\x82\x95127\xca\xb8\xca\xb8ey\xf3\xa0\x80\xb8\xbfys\xf3\xa0\x80\xb0\xef'
p20
sas.