(dp0
S'parentFilename'
p1
S'intercept275.3391_0.1729_0.1632_0.pickle'
p2
sS'time'
p3
NsS'filename'
p4
S'intercept275.3391_0.1729_0.1632_0.1698_0.pickle'
p5
sS'seed'
p6
S'16982259344865899499'
p7
sS'fuzzer'
p8
S'Radamsa'
p9
sS'networkData'
p10
(lp11
(dp12
S'latency'
p13
NsS'from'
p14
S'cli'
p15
sS'index'
p16
I0
sS'timeouts'
p17
I0
sS'isFuzzed'
p18
I01
sS'data'
p19
S'\xa3\n\xe2\x80\x8d\x94\x98\xf3\xa0\x81\xa8\xf3\xa0\x81\x82co\x1fr\xf3\xa0\x81\x91\xe2\xe2\x80\x84\x80\x87e\xb7'
p20
sas.