(dp0
S'parentFilename'
p1
S'intercept121.7156_0.pickle'
p2
sS'time'
p3
NsS'filename'
p4
S'intercept121.7156_0.1021_0.pickle'
p5
sS'seed'
p6
S'10218327397125267089'
p7
sS'fuzzer'
p8
S'Radamsa'
p9
sS'networkData'
p10
(lp11
(dp12
S'latency'
p13
NsS'from'
p14
S'cli'
p15
sS'index'
p16
I0
sS'timeouts'
p17
I0
sS'isFuzzed'
p18
I01
sS'data'
p19
S'g\xed\xaa\xad\xade\xed\xaa\xf3\xa0\xf3\xa0\x81\xb3\x80\xb9\xade{e{\xaa\xad\xadet\n'
p20
sas.