(dp0
S'parentFilename'
p1
S'intercept27.8110_0.pickle'
p2
sS'time'
p3
NsS'filename'
p4
S'intercept27.8110_0.1083_0.pickle'
p5
sS'seed'
p6
S'10839127171141692692'
p7
sS'fuzzer'
p8
S'Radamsa'
p9
sS'networkData'
p10
(lp11
(dp12
S'latency'
p13
NsS'from'
p14
S'cli'
p15
sS'index'
p16
I0
sS'timeouts'
p17
I0
sS'isFuzzed'
p18
I01
sS'data'
p19
S'S    \xf3\xa0\x81\x8b S    \xf3\xa0\x81\x8b            !\xf0\x90\x80\x80 \xf3\xa0\x80\xa1   \n'
p20
sas.