(dp0
S'parentFilename'
p1
S'intercept116.pickle'
p2
sS'time'
p3
NsS'filename'
p4
S'intercept116.1331_0.pickle'
p5
sS'seed'
p6
S'13316702369017438438'
p7
sS'fuzzer'
p8
S'Radamsa'
p9
sS'networkData'
p10
(lp11
(dp12
S'latency'
p13
NsS'from'
p14
S'cli'
p15
sS'index'
p16
I0
sS'timeouts'
p17
I0
sS'isFuzzed'
p18
I01
sS'data'
p19
S'geora\xe2\x80\x84dius\xa0by\xcb\x91m\xe2\x81\xa0b\xf3\xa0\x81\x92er_ro\n'
p20
sas.