(dp0
S'parentFilename'
p1
S'intercept21.1070_0.1588_0.pickle'
p2
sS'time'
p3
NsS'filename'
p4
S'intercept21.1070_0.1588_0.7991_0.pickle'
p5
sS'seed'
p6
S'7991965454298554452'
p7
sS'fuzzer'
p8
S'Radamsa'
p9
sS'networkData'
p10
(lp11
(dp12
S'latency'
p13
NsS'from'
p14
S'cli'
p15
sS'index'
p16
I0
sS'timeouts'
p17
I0
sS'isFuzzed'
p18
I01
sS'data'
p19
S'kf\x81\x94    \xf3\xa0\x81\xaf  \xf3\xf3\xa0\x81\x92\xa0\x80\xb3 \xc0\n\xa0\x0e \xf3\xa0\x82\xa8! \xaf\xe2\x80\x8d   \n'
p20
sas.