(dp0
S'parentFilename'
p1
S'intercept140.4865_0.pickle'
p2
sS'time'
p3
NsS'filename'
p4
S'intercept140.4865_0.1658_0.pickle'
p5
sS'seed'
p6
S'16583410106543775241'
p7
sS'fuzzer'
p8
S'Radamsa'
p9
sS'networkData'
p10
(lp11
(dp12
S'latency'
p13
NsS'from'
p14
S'cli'
p15
sS'index'
p16
I0
sS'timeouts'
p17
I0
sS'isFuzzed'
p18
I01
sS'data'
p19
S'ininincrbyincrbyincrbyincrbyincrbyincrbyincrbyincrbyincrbyincrbyincrbyincrbyincrbyincrbyincrbyincrbyincrbyincrbyincrbyincrbyincrbyincrbyincrbyincrbyincrbyincrbyincrbyincrbyincrbyincrbyincrbyincrbyincrbyincrbyincrbyincrbyincrbyincrbyincrbyincrbyincrbyincrbyincrbyincrbyincrbyincrbyincrbyincrbyincrbyincrbyincrbyincrbyincrbyincrbyincrbyincrbyincrbyincrbyincrbyincrbyincrbyincrbyincrbyincrbyincrbyincrbyincrbyincrbyincrbyincrbyincrbyincrbyincrbyincrbyincrbyincrbyincrbyincrbyincrbyincrbyincrbyincrbyincrbyincrbyincrby\nincrby\nincrincrby\nincrby\nby\nincrby\nincrincrby\nincrby\nby\nincrby\n'
p20
sas.