(dp0
S'parentFilename'
p1
S'intercept13.1250_0.1609_0.pickle'
p2
sS'time'
p3
NsS'filename'
p4
S'intercept13.1250_0.1609_0.6234_0.pickle'
p5
sS'seed'
p6
S'6234999043242389502'
p7
sS'fuzzer'
p8
S'Radamsa'
p9
sS'networkData'
p10
(lp11
(dp12
S'latency'
p13
NsS'from'
p14
S'cli'
p15
sS'index'
p16
I0
sS'timeouts'
p17
I0
sS'isFuzzed'
p18
I01
sS'data'
p19
S'LPU0SH\xf0\x90\x80\x80 key value [value [value [v\xf3\xa0\x81\x84al\xca\xb1ue .\xf3\xa0\x81\xb4..]        #  \n'
p20
sas.