(dp0
S'parentFilename'
p1
S'intercept265.1405_0.1461_0.1468_0.pickle'
p2
sS'time'
p3
NsS'filename'
p4
S'intercept265.1405_0.1461_0.1468_0.7490_0.pickle'
p5
sS'seed'
p6
S'7490238693343625931'
p7
sS'fuzzer'
p8
S'Radamsa'
p9
sS'networkData'
p10
(lp11
(dp12
S'latency'
p13
NsS'from'
p14
S'cli'
p15
sS'index'
p16
I0
sS'timeouts'
p17
I0
sS'isFuzzed'
p18
I01
sS'data'
p19
S'\xee\xab\xad\xe3\x82\x82\x85\xed\xaa\xad\xed\xaa\xad\xed\xaa\xad\xe2\x80\x85\x0b'
p20
sas.