(dp0
S'parentFilename'
p1
S'intercept219.1735_0.7818_0.pickle'
p2
sS'time'
p3
NsS'filename'
p4
S'intercept219.1735_0.7818_0.1299_0.pickle'
p5
sS'seed'
p6
S'12999866456616024631'
p7
sS'fuzzer'
p8
S'Radamsa'
p9
sS'networkData'
p10
(lp11
(dp12
S'latency'
p13
NsS'from'
p14
S'cli'
p15
sS'index'
p16
I0
sS'timeouts'
p17
I0
sS'isFuzzed'
p18
I01
sS'data'
p19
S'so\xe2\xf3\xa0\x81\xa2\x80\xadt\nso\xe2\x80\xa9t\n'
p20
sas.