(dp0
S'parentFilename'
p1
S'intercept13.7871_0.6883_0.pickle'
p2
sS'time'
p3
NsS'filename'
p4
S'intercept13.7871_0.6883_0.9506_0.pickle'
p5
sS'seed'
p6
S'950688739066091127'
p7
sS'fuzzer'
p8
S'Radamsa'
p9
sS'networkData'
p10
(lp11
(dp12
S'latency'
p13
NsS'from'
p14
S'cli'
p15
sS'index'
p16
I0
sS'timeouts'
p17
I0
sS'isFuzzed'
p18
I01
sS'data'
p19
S'LPUSH key\xe2\x80\x81 value [value ./.]      \xe2\x80\x89   \xca\xb6  \nLPUSH\r \xf3\xa0\x81\xbdke        \xef\xb7\x90    \nLPUSH\r \xf3\xa0\x81\xbdke [value ./.]      \xe2\x80\x89   \xca\xb6  \n'
p20
sas.