(dp0
S'parentFilename'
p1
S'intercept79.5298_0.3780_0.pickle'
p2
sS'time'
p3
NsS'filename'
p4
S'intercept79.5298_0.3780_0.1178_0.pickle'
p5
sS'seed'
p6
S'11787837784819408415'
p7
sS'fuzzer'
p8
S'Radamsa'
p9
sS'networkData'
p10
(lp11
(dp12
S'latency'
p13
NsS'from'
p14
S'cli'
p15
sS'index'
p16
I0
sS'timeouts'
p17
I0
sS'isFuzzed'
p18
I01
sS'data'
p19
S'bwbaaaaaaaaaaaaaaaaaaaaaaaaaaaaaaaaaaaaaaaaaaaaaaaaaaaaaaaaaaaaaaaaaaaaaaaaaaaaaaaaaaaaaaaaaaaaaaaaaaaaaaaaaaaaaaaaaaaaaaaaaaaaaaaggg\xea\xea\xea\xea\xea\xea\xeabwbaaaaaaaaaaaaaaaaaaaaaaaaaaaaaaaaaaaaaaaaaaaaaaaaaaaaaaaaaaaaaaaaaaaaaaaaaaaaaaaaaaaaaaaaaaaaaaaaaaaaaaaaaaaaaaaaaaaaaaaaaaaaaaaggg\xea\xea\xea\xea\xea\xea\xeabwbaaaaaaaaaaaaaaaaaaaaaaaaaaaaaaaaaaaaaaaaaaaaaaaaaaaaaaaa\xe1aaaaaaaaaaaaaaaaaaaaaaaaaaaaaggg\xea\xea\xea\xea\xea\xea\xea\xea\xea\xea\xea\xea\xea\xaa\xea\xea\xea\xea\xea\xea\xea\xea\xea\xea\xea\xea\xea\xea'
p20
sas.