(dp0
S'parentFilename'
p1
S'intercept0.3982_0.pickle'
p2
sS'time'
p3
NsS'filename'
p4
S'intercept0.3982_0.1743_0.pickle'
p5
sS'seed'
p6
S'17436736342145985218'
p7
sS'fuzzer'
p8
S'Radamsa'
p9
sS'networkData'
p10
(lp11
(dp12
S'latency'
p13
NsS'from'
p14
S'cli'
p15
sS'index'
p16
I0
sS'timeouts'
p17
I0
sS'isFuzzed'
p18
I01
sS'data'
p19
S'APPEND key value                  \nAPPEND key value                  \nAPPEND key value                  \nAPPEND key value                  \nAPPEND key value                  \nAPPEND key value                  \nAPPEND key value                  \nAPPEND key value                  \nAPPEND key value                  \nAPPEND key value                  \nAPPEND key value                  \nAPPEND key value                  \nAPPEND key value                  \nAPPEND key value                  \nAPPEND key value                  \nAPPEND key value                  \nAPPEND key value                  \nAPPEND key value                  \nAPPEND key value                  \nAPPEND key value                  \nAPPEND key value                  \nAPPEND key value                  \nAPPEND key value                  \nAPPEND key value                  \nAPPEND key value                  \nAPPEND key value                  \nAPPEND key value                  \nAPPEND key value                  \nAPPEND key value                  \nAPPEND key value                aaaaaaaaaaaaaaaaaaaaaaaaaaaaaaaaaaaaaaaaaaaaaaaaaaaaaaaaaaaaaaaaaaaaaaaaaaaaaaaaaaaaaaaaaaaaaaaaaaaaaaaaaaaaaaaaaaaaaaaaaaaaaaaaaaaaaaaaaaaaaaaaaaaaaaaaaaaaaaaaaaaaaaaaaaaaaaaaaaaaaaaaaaaaaaaaaaaaaaaaaaaaaaaaaaaaaaaaaaaaaaaaaaaaaaaaaaaaaaaaaaaaaaaaaaaaaaaa  \nAPPEND key value                  \nAPPEND key value                  \nAPPEND key value                  \nAPPEND key value                  \nAPPEND key value                  \nAPPEND key value                  \nAPPEND key value                  \nAPPEND key value                  \nAPPEND key value                  \nAPPEND key value                  \nAPPEND key value                  \nAPPEND key value                  \nAPPEND key value                  \nAPPEND key value                  \nAPPEND key value                  \nAPPEND key value                  \nAPPEND key value                  \nAPPEND key value                  \nAPPEND key value                  \nAPPEND key value                  \nAPPEND key value                  \nAPPEND key value                  \nAPPEND key value                  \nAPPEND key value                  \nAPPEND key value                  \nAPPEND key value                  \nAPPEND key value                  \nAPPEND key value                  \nAPPEND key value                  \nAPPEND key value                  \nAPPEND key value                  \nAPPEND key value                  \nAPPEND key value                  \nAPPEND key value                  \nAPPEND key value                  \nAPPEND key value                  \nAPPEND key value                  \nAPPEND key value                  \nAPPEND key value                  \nAPPEND key value                  \nAPPEND key value                  \nAPPEND key value                  \nAPPEND key value                  \nAPPEND key value                  \nAPPEND key value                  \nAPPEND key value                  \nAPPEND key value                  \nAPPEND key value                  \nAPPEND key value                  \nAPPEND key value                  \nAPPEND key value                  \nAPPEND key value                  \nAPPEND key value                  \nAPPEND key value                  \nAPPEND key value                  \nAPPEND key value                  \nAPPEND key value                  \nAPPEND key value                  \nAPPEND key value                  \nAPPEND key value                  \nAPPEND key value                  \nAPPEND key value                  \nAPPEND key value                  \nAPPEND key value                  \nAPPEND key value                  \nAPPEND key value                  \nAPPEND key value                  \nAPPEND key value                  \nAPPEND key value                  \nAPPEND key value                  \nAPPEND key value                  \nAPPEND key value                  \nAPPEND key value                  \nAPPEND key value                  \nAPPEND key value                  \nAPPEND key value                  \nAPPEND key value                  \nAPPEND key value                  \nAPPEND key value                  \nAPPEND key value                  \nAPPEND key value                  \nAPPEND key value                  \nAPPEND key value                  \nAPPEND key value                  \nAPPEND key value                  \nAPPEND key value                  \nAPPEND key value                  \nAPPEND key value                  \nAPPEND key value                  \nAPPEND key value                  \nAPPEND key value                  \nAPPEND key value                  \nAPPEND key value                  \nAPPEND key value                  \nAPPEND key value                  \nAPPEND key value                  \nAPPEND key value                  \nAPPEND key value                  \nAPPEND key value                  \nAPPEND key value                  \nAPPEND key value                  \nAPPEND key value                  \nAPPEND key value                  \nAPPEND key value                  \nAPPEND key value                  \nAPPEND key value                  \nAPPEND key value                  \nAPPEND key value                  \nAPPEND key value                  \nAPPEND key value                  \nAPPEND key value                  \nAPPEND key value                  \nAPPEND key value                  \nAPPEND key value                  \nAPPEND key value                  \nAPPEND key value                  \nAPPEND key value                  \nAPPEND key value                  \nAPPEND key value                  \nAPPEND key value                  \nAPPEND key value                  \nAPPEND key value                  \nAPPEND key value                  \nAPPEND key value                  \nAPPEND key value                  \nAPPEND key value                  \nAPPEND key value                  \nAPPEND key value                  \nAPPEND key value                  \nAPPEND key value                  \nAPPEND key value                  \nAPPEND key value                  \nAPPEND key value                  \nAPPEND key value                  \nAPPEND key value                  \nAPPEND key value                  \nAPPEND key value                  \nAPPEND key value                  \nAPPEND key value                  \nAPPEND key value                  \nAPPEND key value                  \nAPPEND key value                  \nAPPEND key value                  \nAPPEND key value                  \nAPPEND key value                  \nAPPEND key value                  \nAPPEND key value                  \nAPPEND key value                  \nAPPEND key value                  \nAPPEND key value                  \nAPPEND key value                  \nAPPEND key value                  \nAPPEND key value                  \nAPPEND key value                  \nAPPEND key value                  \nAPPEND key value                  \nAPPEND key value                  \nAPPEND key value                  \nAPPEND key value                  \nAPPEND key value                  \nAPPEND key value                  \nAPPEND key value                  \nAPPEND key value                  \nAPPEND key value                  \nAPPEND key value                  \nAPPEND key value                  \nAPPEND key value                  \nAPPEND key value                  \nAPPEND key value                  \nAPPEND key value                  \nAPPEND key value                  \nAPPEND key value                  \nAPPEND key value                  \nAPPEND key value                  \nAPPEND key value                  \nAPPEND key value                  \nAPPEND key value                  \nAPPEND key value                  \nAPPEND key value                  \nAPPEND key value                  \nAPPEND key value                  \nAPPEND key value                  \nAPPEND key value                  \nAPPEND key value                  \nAPPEND key value                  \nAPPEND key value                  \nAPPEND key value                  \nAPPEND key value                  \nAPPEND key value                  \nAPPEND key value                  \nAPPEND key value                  \nAPPEND key value                  \nAPPEND key value                  \nAPPEND key value                  \nAPPEND key value                  \nAPPEND key value                  \nAPPEND key value                  \nAPPEND key value                  \nAPPEND key value                  \nAPPEND key value                  \nAPPEND key value                  \nAPPEND key value                  \nAPPEND key value                  \nAPPEND key value                  \nAPPEND key value                  \nAPPEND key value                  \nAPPEND key value                  \nAPPEND key value                  \nAPPEND key value                  \nAPPEND key value                  \nAPPEND key value                  \nAPPEND key value  \xf3\xa0\x81\x8e                \n'
p20
sas.