(dp0
S'parentFilename'
p1
S'intercept125.pickle'
p2
sS'time'
p3
NsS'filename'
p4
S'intercept125.1809_0.pickle'
p5
sS'seed'
p6
S'18096756551891320932'
p7
sS'fuzzer'
p8
S'Radamsa'
p9
sS'networkData'
p10
(lp11
(dp12
S'latency'
p13
NsS'from'
p14
S'cli'
p15
sS'index'
p16
I0
sS'timeouts'
p17
I0
sS'isFuzzed'
p18
I01
sS'data'
p19
S'hg\xe2\x80\xaa\retalll\x84\xf3\xa0\x80\xa41\x95(\xe2\x80\x84\n'
p20
sas.