(dp0
S'parentFilename'
p1
S'intercept224.6334_0.2859_0.1299_0.1763_0.pickle'
p2
sS'time'
p3
NsS'filename'
p4
S'intercept224.6334_0.2859_0.1299_0.1763_0.1698_0.pickle'
p5
sS'seed'
p6
S'16980694614692597567'
p7
sS'fuzzer'
p8
S'Radamsa'
p9
sS'networkData'
p10
(lp11
(dp12
S'latency'
p13
NsS'from'
p14
S'cli'
p15
sS'index'
p16
I0
sS'timeouts'
p17
I0
sS'isFuzzed'
p18
I01
sS'data'
p19
S'strennen\nstrennen\nstrennen\nstrennen\nstrennen\nstrennen\nstrennen\nstrennen\nstrennen\nstrennen\nstrennen\nstrennen\nstrennen\nstrennen\nstrennen\nstrennen\nstrennen\nstrennen\nstrennen\nstrennen\nstrennen\nstrennen\nstrennen\nstrennen\nstrennen\nstrennen\nstrennen\nstrennen\nstrennen\nstrennen\nstrennen\nstrennen\nstrennen\nstrennen\nstrennen\nstrennen\nstrennen\nstrennen\nstrennen\nstrennen\nstrennen\nstrennen\nstrennen\nstrennen\nstrennen\nstrennen\nstrennen\nstrennen\nstrennen\nstrennen\nstrennen\nstrennen\nstrennen\nstrennen\nstrennen\nstrennen\nstrennen\nstrennen\nstrennen\nstrennen\nstrennen\nstrennen\nstrennen\nstrennen\nstrennen\nstrennen\nstrennen\nstrennen\nstrennen\nstrennen\nstrennen\nstrennen\nstrennen\nstrennen\nstrennen\nstrennen\nstrennen\nstrennen\nstrennen\nstrennen\nstrennen\nstrennen\nstrennen\nstrennen\nstren\xe2\x81\xa5nen\nst\xf3\xa0\x81\x80rennen\nstrennen\ns\xf3\xa0\x80\xb2trennen\nstrennen\nstrennen\nstrennen\nstrennen\nstrennen\nstrennen\nstrennen\nstrennen\ns\xf3\xa0\x80\xb2trennen\nstrennen\nstrennen\nstrennen\nstrennen\nstrennen\nstrennen\nstrennen\nstrennen\x1astreennen\n'
p20
sas.