(dp0
S'parentFilename'
p1
S'intercept52.pickle'
p2
sS'time'
p3
NsS'filename'
p4
S'intercept52.5726_0.pickle'
p5
sS'seed'
p6
S'5726630809536533581'
p7
sS'fuzzer'
p8
S'Radamsa'
p9
sS'networkData'
p10
(lp11
(dp12
S'latency'
p13
NsS'from'
p14
S'cli'
p15
sS'index'
p16
I0
sS'timeouts'
p17
I0
sS'isFuzzed'
p18
I01
sS'data'
p19
S'HMSET key field value [field value ...\xf3\xa0\x81\xb2]  \n'
p20
sas.