(dp0
S'parentFilename'
p1
S'intercept157.6099_0.pickle'
p2
sS'time'
p3
NsS'filename'
p4
S'intercept157.6099_0.9204_0.pickle'
p5
sS'seed'
p6
S'9204115579411735847'
p7
sS'fuzzer'
p8
S'Radamsa'
p9
sS'networkData'
p10
(lp11
(dp12
S'latency'
p13
NsS'from'
p14
S'cli'
p15
sS'index'
p16
I0
sS'timeouts'
p17
I0
sS'isFuzzed'
p18
I01
sS'data'
p19
S'\xcb\xf3+/v/\xa0\x81\xac\x90m\xf3\x0c\xf3\xa0\x81.\xa0\x80\xa7\xf3\xa0\x81\xf3\xa0\xe2\x80\x82\x80\x8c\xaco'
p20
sas.