(dp0
S'parentFilename'
p1
S'intercept97.1400_0.3008_0.4681_0.pickle'
p2
sS'time'
p3
NsS'filename'
p4
S'intercept97.1400_0.3008_0.4681_0.7137_0.pickle'
p5
sS'seed'
p6
S'71370800264713523'
p7
sS'fuzzer'
p8
S'Radamsa'
p9
sS'networkData'
p10
(lp11
(dp12
S'latency'
p13
NsS'from'
p14
S'cli'
p15
sS'index'
p16
I0
sS'timeouts'
p17
I0
sS'isFuzzed'
p18
I01
sS'data'
p19
S'de\xfb\xee(\xffn\x08\x80\xa1y.r\xa3c\xf3H\x0b\n'
p20
sas.