(dp0
S'parentFilename'
p1
S'intercept242.7014_0.7250_0.pickle'
p2
sS'time'
p3
NsS'filename'
p4
S'intercept242.7014_0.7250_0.1276_0.pickle'
p5
sS'seed'
p6
S'12761750991144681396'
p7
sS'fuzzer'
p8
S'Radamsa'
p9
sS'networkData'
p10
(lp11
(dp12
S'latency'
p13
NsS'from'
p14
S'cli'
p15
sS'index'
p16
I0
sS'timeouts'
p17
I0
sS'isFuzzed'
p18
I01
sS'data'
p19
S'xclaaaaaaaaaaaaaaaaaaaaaabaaaaaaaa\xf3\xa0\x81\xacaaaaaaim\nxclaaaaaaaaaaaaaaaaaaaaaabaaaaaaaa\xf3\xa0\x81\xacaaaaaaim\nxclaaaaaaaaaaaaaaaaaaaaaabaaaaaaaa\xf3\xa0\x81\xacaaaaaaim\n'
p20
sas.