(dp0
S'parentFilename'
p1
S'intercept203.1462_0.1349_0.1676_0.5974_0.2308_0.pickle'
p2
sS'time'
p3
NsS'filename'
p4
S'intercept203.1462_0.1349_0.1676_0.5974_0.2308_0.3571_0.pickle'
p5
sS'seed'
p6
S'3571596811074503723'
p7
sS'fuzzer'
p8
S'Radamsa'
p9
sS'networkData'
p10
(lp11
(dp12
S'latency'
p13
NsS'from'
p14
S'cli'
p15
sS'index'
p16
I0
sS'timeouts'
p17
I0
sS'isFuzzed'
p18
I01
sS'data'
p19
S's\xf3c\xe2\x80\x8234028236692093846340\xe2\x80\xa82823669209384634633\xe3-74607431768210\xf0\x9d\x9f\x96943\x91\x96rip\xf3\xa0\x80\xfb\xee\x0c\t\x7f\x81\x8at\xf3\xf3\xa0\x81\xa8\x88(\xbd\xf3\xa0\xa0'
p20
sas.