(dp0
S'parentFilename'
p1
S'intercept64.8452_0.3437_0.pickle'
p2
sS'time'
p3
NsS'filename'
p4
S'intercept64.8452_0.3437_0.7714_0.pickle'
p5
sS'seed'
p6
S'7714765439950658417'
p7
sS'fuzzer'
p8
S'Radamsa'
p9
sS'networkData'
p10
(lp11
(dp12
S'latency'
p13
NsS'from'
p14
S'cli'
p15
sS'index'
p16
I0
sS'timeouts'
p17
I0
sS'isFuzzed'
p18
I01
sS'data'
p19
S'\xef\xb7\xba\xf3\xa0\x81\xabPSUBSCRI\xf3\xa0\x81\xbbBE pattern [p patt\x9ae2n [3e9223372036854775802p6 59nt5tpa[at\xc2\xa0tern [p patt\x9ae2n [3e5p6 59nt5tpa[at\xc2\xa0tern [p patte0n [3e5p6 59nt5tpa[at\xc2\xa0tern ...]      \xe2\x80\x81  \n  '
p20
sas.