(dp0
S'parentFilename'
p1
S'intercept201.1616_0.pickle'
p2
sS'time'
p3
NsS'filename'
p4
S'intercept201.1616_0.5853_0.pickle'
p5
sS'seed'
p6
S'5853257007349640685'
p7
sS'fuzzer'
p8
S'Radamsa'
p9
sS'networkData'
p10
(lp11
(dp12
S'latency'
p13
NsS'from'
p14
S'cli'
p15
sS'index'
p16
I0
sS'timeouts'
p17
I0
sS'isFuzzed'
p18
I01
sS'data'
p19
S"ssssssaaaaaaaaaaaaaaaaaaaaaaaaaa$!!%d+inf'xcalc;xcalcaaaa%d%n&\xe3\x80\x80#0;aaaa%d%n\\x340282366920938463463374607431768211457;xcalc'xcalc'xcalc\\r\\n$&NaN%n'xcalc$!!$PATHaaaaaaaaaaaaaaaaaaaaaaaaaaaaaaaaaaaaaaaaaaaaaaaaaaaaaaaaaaaaaaaaaaaaaaaaaaaaaaaaaaaaaaaaaaaaaaaaaaaaaaaaaaaaaaaaaaaaaaaaaaaaaaaaaaaaaassssssccann\n\x00"
p20
sas.