(dp0
S'parentFilename'
p1
S'intercept79.5298_0.1019_0.9037_0.pickle'
p2
sS'time'
p3
NsS'filename'
p4
S'intercept79.5298_0.1019_0.9037_0.1765_0.pickle'
p5
sS'seed'
p6
S'17656279117016363184'
p7
sS'fuzzer'
p8
S'Radamsa'
p9
sS'networkData'
p10
(lp11
(dp12
S'latency'
p13
NsS'from'
p14
S'cli'
p15
sS'index'
p16
I0
sS'timeouts'
p17
I0
sS'isFuzzed'
p18
I01
sS'data'
p19
S'\xf3\xa0\xf3\xa0\x81\xb4\xe2\x80\x85\x81\n\xb4g\xa6b\x0e\xa6b\x0e\xf1\x81'
p20
sas.