(dp0
S'parentFilename'
p1
S'intercept58.8183_0.pickle'
p2
sS'time'
p3
NsS'filename'
p4
S'intercept58.8183_0.1224_0.pickle'
p5
sS'seed'
p6
S'12244244419085181151'
p7
sS'fuzzer'
p8
S'Radamsa'
p9
sS'networkData'
p10
(lp11
(dp12
S'latency'
p13
NsS'from'
p14
S'cli'
p15
sS'index'
p16
I0
sS'timeouts'
p17
I0
sS'isFuzzed'
p18
I01
sS'data'
p19
S'HLEN key                   \xf3\xa0\x81\xad\xe2\x80\x87  \nHLEN key                   \xf3\xa0\x81\xad\xe2\x80\x87  \nHLEN key                   \xf3\xa0\x81\xad\xe2\x80\x87  \n          \nHLEN key              \nHLEN key                     \nHLEN key    key                     \nHLEN key                     \nHLEN key                     \nHLEN key                     \nHLEN       \nHLEN key                     \n'
p20
sas.