(dp0
S'parentFilename'
p1
S'intercept118.5640_0.4348_0.pickle'
p2
sS'time'
p3
NsS'filename'
p4
S'intercept118.5640_0.4348_0.1335_0.pickle'
p5
sS'seed'
p6
S'1335626117568741457'
p7
sS'fuzzer'
p8
S'Radamsa'
p9
sS'networkData'
p10
(lp11
(dp12
S'latency'
p13
NsS'from'
p14
S'cli'
p15
sS'index'
p16
I0
sS'timeouts'
p17
I0
sS'isFuzzed'
p18
I01
sS'data'
p19
S'ge\x08\xe2\x81\xa0o\xf3\x841\x95340282366920938463463374607431768211452\xa0\x81\x0brad\xf3\xa0\x81\x82iu\xf3\xa0\x8a\x81\xf3\xa0\x81\x8cs_ro\xe2\x80\xf3\xa0\x81\x88\x84\n'
p20
sas.