(dp0
S'parentFilename'
p1
S'intercept170.1517_0.1539_0.pickle'
p2
sS'time'
p3
NsS'filename'
p4
S'intercept170.1517_0.1539_0.1790_0.pickle'
p5
sS'seed'
p6
S'17902979602859201640'
p7
sS'fuzzer'
p8
S'Radamsa'
p9
sS'networkData'
p10
(lp11
(dp12
S'latency'
p13
NsS'from'
p14
S'cli'
p15
sS'index'
p16
I0
sS'timeouts'
p17
I0
sS'isFuzzed'
p18
I01
sS'data'
p19
S'\xf3\xa0\xf3\xa0\x80\xa2\x80\xb2\xa0\x81\x82\xf3\xadJ\x80\xe1\x85\x9f\xb0\n'
p20
sas.