(dp0
S'parentFilename'
p1
S'intercept275.3391_0.1343_0.5667_0.pickle'
p2
sS'time'
p3
NsS'filename'
p4
S'intercept275.3391_0.1343_0.5667_0.5336_0.pickle'
p5
sS'seed'
p6
S'5336976114737466025'
p7
sS'fuzzer'
p8
S'Radamsa'
p9
sS'networkData'
p10
(lp11
(dp12
S'latency'
p13
NsS'from'
p14
S'cli'
p15
sS'index'
p16
I0
sS'timeouts'
p17
I0
sS'isFuzzed'
p18
I01
sS'data'
p19
S'c\xf3\xa0\x80\xb9|\xf3\xa0\x80\xafo\xef\xbe\xf3\xa0\x80\xe2\x80\xab\xb8\xa0\xc0\x8a\xed\xaa\xad\xa3c|\x8a\xc0\xa3\xc0\xca\xb3o'
p20
sas.