(dp0
S'parentFilename'
p1
S'intercept64.1405_0.6087_0.pickle'
p2
sS'time'
p3
NsS'filename'
p4
S'intercept64.1405_0.6087_0.4995_0.pickle'
p5
sS'seed'
p6
S'49951539956257675'
p7
sS'fuzzer'
p8
S'Radamsa'
p9
sS'networkData'
p10
(lp11
(dp12
S'latency'
p13
NsS'from'
p14
S'cli'
p15
sS'index'
p16
I0
sS'timeouts'
p17
I0
sS'isFuzzed'
p18
I01
sS'data'
p19
S'\xf3\xa0\x80\xbaPSUBSBSCRIBSCRIBSCRIBSCRIBSCRIBSCRIBSCRIBSCRIBSCRIBSCRIBSCRIBSCRIBSC\xf3\xa0\x81\x81RIBSCRIBSCRIBSCRIBSCRIBSCRIBSCRIBSCRIBSCRIBSCRIBSCRIBSCRIBSCRIBE patt\xf3\xa0\x81\x89ern [+/v+patternf [pattern ...]        \xe2\x80\x82     \nSCRIBSCRIBSCRIBSCRIBSCRIBSCRIBE patt\xf3\xa0\x81\x89ern [+/v+patternf [pattern ...]        \xe2\x80\x82     \n'
p20
sas.