(dp0
S'parentFilename'
p1
S'intercept211.9216_0.pickle'
p2
sS'time'
p3
NsS'filename'
p4
S'intercept211.9216_0.8524_0.pickle'
p5
sS'seed'
p6
S'8524455692729204923'
p7
sS'fuzzer'
p8
S'Radamsa'
p9
sS'networkData'
p10
(lp11
(dp12
S'latency'
p13
NsS'from'
p14
S'cli'
p15
sS'index'
p16
I0
sS'timeouts'
p17
I0
sS'isFuzzed'
p18
I01
sS'data'
p19
S's\xf3\xa0\x80\xa1\xf3\xa0\x80\xf3\xa0\x80\xb8\xa1\xbct\t'
p20
sas.