(dp0
S'parentFilename'
p1
S'intercept108.2778_0.pickle'
p2
sS'time'
p3
NsS'filename'
p4
S'intercept108.2778_0.2226_0.pickle'
p5
sS'seed'
p6
S'2226158559310251457'
p7
sS'fuzzer'
p8
S'Radamsa'
p9
sS'networkData'
p10
(lp11
(dp12
S'latency'
p13
NsS'from'
p14
S'cli'
p15
sS'index'
p16
I0
sS'timeouts'
p17
I0
sS'isFuzzed'
p18
I01
sS'data'
p19
S'ddx\xc3\xa0\xa0\x81\xb6\xe2\x80\xaf\xf3\xa0\x80\xb5h\xf3\xa0\x81\xf3\xe2\xf3\xa0\x80\xbc\x81\x9f\xa0\x80\xa7\xbarede\n'
p20
sas.