(dp0
S'parentFilename'
p1
S'intercept147.pickle'
p2
sS'time'
p3
NsS'filename'
p4
S'intercept147.6209_0.pickle'
p5
sS'seed'
p6
S'6209853258356187087'
p7
sS'fuzzer'
p8
S'Radamsa'
p9
sS'networkData'
p10
(lp11
(dp12
S'latency'
p13
NsS'from'
p14
S'cli'
p15
sS'index'
p16
I0
sS'timeouts'
p17
I0
sS'isFuzzed'
p18
I01
sS'data'
p19
S'linsertinsertinsertinsertinsertinsertinsertinsertinsertinsertinsertinsertinsertinsertinsertinserti\x13sertinsertinsertinsertinsertinnsertinsertinsertinsertinsertinsertinsertinsertinsertinsertinsertinsertinsertinsertinsertinsertinsertinsertinsertinsertinsertinsertinsertinsertinsertinsertinsertinsertinsertinsertinsertinsertinsertinsertinsertinsertinsertinsertinsertinsertinsertinsertinsertinsertinsertinsertinsertinsertinsertinsertinsertinsertinsertinsertinsertinsertinsertins&#000;\\r\\n$1\'xcalcNaN%n\\n%n%d$\'$!!&#000;inser\xd8tinnsertinsertinsertinsertinsert!xcalc$\'%naaaa%d%n$1+inf\\0$+$1"xcalc\\n!!\'xcalc`xcalc`$&%n\'xcalc$&$`%#xinsertinsertinsertinsertinsertinsertinsertinsertinsertinsertinsert\x00insertinsertinsertinsertinsertinsertinsertinsertinsertinsertinsertinsertinsertinsertinsertinsertinsertinsertinsertinsertinsertinsertinsertinsertinsertinsertinsertinsertinsertinsertinsertinsertinsertinsertinsertinsertinsertinsertinsertinsertinsertinsertinsertinsertinsertinsertinsertinsertinsertinsertinsertinsertinsertinsertinsertinsertinsertinsertinsertinsertinsertinsertinsertinsertinsertinsertinsertinsertinsertinsertinsertinsertinsertinsertinsertinsertinsertinsertinsertinsertinsertinsertinsertinsertinsertinsertinsertinsertinsertinsertinsertinsertaaaa%d%n%s"xcalc\'xncalc\\x--9223372036854677504%#x\\x-32767a!xcalc&#1;$!!$&\\x18446744073709551617aaaaa%d%n$(xcalc)NaN'
p20
sas.