(dp0
S'parentFilename'
p1
S'intercept201.pickle'
p2
sS'time'
p3
NsS'filename'
p4
S'intercept201.1480_0.pickle'
p5
sS'seed'
p6
S'14805115476576156180'
p7
sS'fuzzer'
p8
S'Radamsa'
p9
sS'networkData'
p10
(lp11
(dp12
S'latency'
p13
NsS'from'
p14
S'cli'
p15
sS'index'
p16
I0
sS'timeouts'
p17
I0
sS'isFuzzed'
p18
I01
sS'data'
p19
S'\xf3\xa0\x81\x9c\xca\xb8\xf3\xa0\x81\xf3\xa0\x81\x99\x90s\xe2\x80\x8cca\xf3\xa0\x80\xaen\xef\xac\xab\n'
p20
sas.