(dp0
S'parentFilename'
p1
S'intercept164.4429_0.2242_0.pickle'
p2
sS'time'
p3
NsS'filename'
p4
S'intercept164.4429_0.2242_0.1200_0.pickle'
p5
sS'seed'
p6
S'12003649149422009450'
p7
sS'fuzzer'
p8
S'Radamsa'
p9
sS'networkData'
p10
(lp11
(dp12
S'latency'
p13
NsS'from'
p14
S'cli'
p15
sS'index'
p16
I0
sS'timeouts'
p17
I0
sS'isFuzzed'
p18
I01
sS'data'
p19
S'G\x8e\xe2\x80\x87\xc0\x8b'
p20
sas.