(dp0
S'parentFilename'
p1
S'intercept183.1769_0.4633_0.2664_0.3425_0.pickle'
p2
sS'time'
p3
NsS'filename'
p4
S'intercept183.1769_0.4633_0.2664_0.3425_0.4533_0.pickle'
p5
sS'seed'
p6
S'4533889182379666611'
p7
sS'fuzzer'
p8
S'Radamsa'
p9
sS'networkData'
p10
(lp11
(dp12
S'latency'
p13
NsS'from'
p14
S'cli'
p15
sS'index'
p16
I0
sS'timeouts'
p17
I0
sS'isFuzzed'
p18
I01
sS'data'
p19
S'\x80\xe2\x80\xf3\xa0\xca\xb4\x81\xa2\x8e\x80\x81u\x0e'
p20
sas.