(dp0
S'parentFilename'
p1
S'intercept240.pickle'
p2
sS'time'
p3
NsS'filename'
p4
S'intercept240.6278_0.pickle'
p5
sS'seed'
p6
S'6278285917826879753'
p7
sS'fuzzer'
p8
S'Radamsa'
p9
sS'networkData'
p10
(lp11
(dp12
S'latency'
p13
NsS'from'
p14
S'cli'
p15
sS'index'
p16
I0
sS'timeouts'
p17
I0
sS'isFuzzed'
p18
I01
sS'data'
p19
S'\xef\xbc\x8fx\xe1ck\xe0\xb9\x84\r\xf3\xa0\x81\x8f\n'
p20
sas.