(dp0
S'parentFilename'
p1
S'intercept113.pickle'
p2
sS'time'
p3
NsS'filename'
p4
S'intercept113.6473_0.pickle'
p5
sS'seed'
p6
S'6473120792144159166'
p7
sS'fuzzer'
p8
S'Radamsa'
p9
sS'networkData'
p10
(lp11
(dp12
S'latency'
p13
NsS'from'
p14
S'cli'
p15
sS'index'
p16
I0
sS'timeouts'
p17
I0
sS'isFuzzed'
p18
I01
sS'data'
p19
S'ge\xf3\xa0\x81\x8eoh\xf3\xa0\x81\xa3a\xe3\x80\xe0\xb9\x81\x80sh\n'
p20
sas.