(dp0
S'parentFilename'
p1
S'intercept41.8938_0.1015_0.1333_0.pickle'
p2
sS'time'
p3
NsS'filename'
p4
S'intercept41.8938_0.1015_0.1333_0.7905_0.pickle'
p5
sS'seed'
p6
S'790543977014424529'
p7
sS'fuzzer'
p8
S'Radamsa'
p9
sS'networkData'
p10
(lp11
(dp12
S'latency'
p13
NsS'from'
p14
S'cli'
p15
sS'index'
p16
I0
sS'timeouts'
p17
I0
sS'isFuzzed'
p18
I01
sS'data'
p19
S'ZRANK key member                                                                                                                                             \xc0\xa0                                                                                                        \n'
p20
sas.