(dp0
S'parentFilename'
p1
S'intercept95.9244_0.1604_0.pickle'
p2
sS'time'
p3
NsS'filename'
p4
S'intercept95.9244_0.1604_0.2770_0.pickle'
p5
sS'seed'
p6
S'2770288898248684854'
p7
sS'fuzzer'
p8
S'Radamsa'
p9
sS'networkData'
p10
(lp11
(dp12
S'latency'
p13
NsS'from'
p14
S'cli'
p15
sS'index'
p16
I0
sS'timeouts'
p17
I0
sS'isFuzzed'
p18
I01
sS'data'
p19
S'ddddddddddddddddddddddddddddddddddddddddddddddddddddd6dddddddddddddddd%d%n$1%d\\x0a%d%p+inf%n;xcalc&#1;!!\\r\\n\\n$1%p%ndddddddddddddddddd\x00ddddddddddddddddddddddddddddddddddddddddddddddddddddddddddddddddddddddddddddddddddddddddddddddddddddddddddddddddddddddddddddddddddddddddddddddddddddddddddddddddddddddddddddddddddddddddddddddddddddddddddddddddddddddddddddddddddbug\nddddddddddddddddddddddddddddddddddddddddddddddddddddd6dddddddddddddddd%d%n$1%d\\x0a%d%p+inf%n;xcalc&#1;!!\\r\\n\\n$1%p%ndddddddddddddddddd\x00ddddddddddddddddddddddddddddddddddddddddddddddddddddddddddddddddddddddddddddddddddddddddddddddddddddddddddddddddddddddddddddddddddddddddddddddddddddddddddddddddddddddddddddddddddddddddddddddddddddddddddddddddddddddddddddddddddbug\n'
p20
sas.