(dp0
S'parentFilename'
p1
S'intercept5.7971_0.1696_0.pickle'
p2
sS'time'
p3
NsS'filename'
p4
S'intercept5.7971_0.1696_0.1336_0.pickle'
p5
sS'seed'
p6
S'13364504811818161932'
p7
sS'fuzzer'
p8
S'Radamsa'
p9
sS'networkData'
p10
(lp11
(dp12
S'latency'
p13
NsS'from'
p14
S'cli'
p15
sS'index'
p16
I0
sS'timeouts'
p17
I0
sS'isFuzzed'
p18
I01
sS'data'
p19
S'\xddsfs m  ke-32708799\xf3\xa0\xa0\x81\x9dy   \xe2\x80\x8c         m    \xf3\xa0\x81\x9dy   \xe2\x80\x8c '
p20
sas.