(dp0
S'parentFilename'
p1
S'intercept48.9865_0.pickle'
p2
sS'time'
p3
NsS'filename'
p4
S'intercept48.9865_0.7653_0.pickle'
p5
sS'seed'
p6
S'765396347744480080'
p7
sS'fuzzer'
p8
S'Radamsa'
p9
sS'networkData'
p10
(lp11
(dp12
S'latency'
p13
NsS'from'
p14
S'cli'
p15
sS'index'
p16
I0
sS'timeouts'
p17
I0
sS'isFuzzed'
p18
I01
sS'data'
p19
S"HGET key fiel$\xe0\xb9\x81'\\x00aaaa%d%n\\x2147483647$+!xcalc$&%pd          \t"
p20
sas.