(dp0
S'parentFilename'
p1
S'intercept73.1026_0.9687_0.8049_0.1803_0.pickle'
p2
sS'time'
p3
NsS'filename'
p4
S'intercept73.1026_0.9687_0.8049_0.1803_0.2303_0.pickle'
p5
sS'seed'
p6
S'2303725362525417904'
p7
sS'fuzzer'
p8
S'Radamsa'
p9
sS'networkData'
p10
(lp11
(dp12
S'latency'
p13
NsS'from'
p14
S'cli'
p15
sS'index'
p16
I0
sS'timeouts'
p17
I0
sS'isFuzzed'
p18
I01
sS'data'
p19
S'GET      \xe2\x81\xa5            !      \nGET      \xe2\x81\xa5            !      \nGET key               !      \x0c\n'
p20
sas.