(dp0
S'parentFilename'
p1
S'intercept213.1303_0.2197_0.pickle'
p2
sS'time'
p3
NsS'filename'
p4
S'intercept213.1303_0.2197_0.4292_0.pickle'
p5
sS'seed'
p6
S'4292325776254213790'
p7
sS'fuzzer'
p8
S'Radamsa'
p9
sS'networkData'
p10
(lp11
(dp12
S'latency'
p13
NsS'from'
p14
S'cli'
p15
sS'index'
p16
I0
sS'timeouts'
p17
I0
sS'isFuzzed'
p18
I01
sS'data'
p19
S's&interrtore\ns&interstore\ns&interstore\ns&interstore\ns&intersort\ne'
p20
sas.