(dp0
S'parentFilename'
p1
S'intercept21.1070_0.6526_0.pickle'
p2
sS'time'
p3
NsS'filename'
p4
S'intercept21.1070_0.6526_0.1779_0.pickle'
p5
sS'seed'
p6
S'17794450033678960575'
p7
sS'fuzzer'
p8
S'Radamsa'
p9
sS'networkData'
p10
(lp11
(dp12
S'latency'
p13
NsS'from'
p14
S'cli'
p15
sS'index'
p16
I0
sS'timeouts'
p17
I0
sS'isFuzzed'
p18
I01
sS'data'
p19
S'Ukfy\xf3\xa0\x81\x9c ?m \xef\xbf     \xf3\xa0\x81W\xaf    \r   \xc0\xa0            !\n'
p20
sas.