(dp0
S'parentFilename'
p1
S'intercept51.1594_0.pickle'
p2
sS'time'
p3
NsS'filename'
p4
S'intercept51.1594_0.1168_0.pickle'
p5
sS'seed'
p6
S'11689865895946559203'
p7
sS'fuzzer'
p8
S'Radamsa'
p9
sS'networkData'
p10
(lp11
(dp12
S'latency'
p13
NsS'from'
p14
S'cli'
p15
sS'index'
p16
I0
sS'timeouts'
p17
I0
sS'isFuzzed'
p18
I01
sS'data'
p19
S'GSET\xf2\xe1\xa0\x8e\xa0\x80\xbcN\xf0\x90\x80\x80X key gheeeeeeeeeeld val\xf3\xed\xba\xad\xa0\x81\x93uee  \n'
p20
sas.