(dp0
S'parentFilename'
p1
S'intercept227.4636_0.1354_0.pickle'
p2
sS'time'
p3
NsS'filename'
p4
S'intercept227.4636_0.1354_0.6779_0.pickle'
p5
sS'seed'
p6
S'6779576665912024351'
p7
sS'fuzzer'
p8
S'Radamsa'
p9
sS'networkData'
p10
(lp11
(dp12
S'latency'
p13
NsS'from'
p14
S'cli'
p15
sS'index'
p16
I0
sS'timeouts'
p17
I0
sS'isFuzzed'
p18
I01
sS'data'
p19
S'\xbesu\xf3\xa0\x81\xf3\xa0\x81\x80\xa9nion\xef\xa1\xbf\n'
p20
sas.