(dp0
S'parentFilename'
p1
S'intercept21.1070_0.1588_0.pickle'
p2
sS'time'
p3
NsS'filename'
p4
S'intercept21.1070_0.1588_0.1635_0.pickle'
p5
sS'seed'
p6
S'16351387207701565064'
p7
sS'fuzzer'
p8
S'Radamsa'
p9
sS'networkData'
p10
(lp11
(dp12
S'latency'
p13
NsS'from'
p14
S'cli'
p15
sS'index'
p16
I0
sS'timeouts'
p17
I0
sS'isFuzzed'
p18
I01
sS'data'
p19
S"kfy\xf4\xa0\x81\x94    \xf3\xa0\x81\xaf\xf3\xa0\x81\xaf\xf3\xa0\x81\x9b    \r       \xf0\x9e\x85\xa0      \xb3\xa0\x81\xaf    \xb3\xa0\x81\xaf $'%s$1$1\\0!xcalc\\0`xcalc`$1\\r  \n"
p20
sas.