(dp0
S'parentFilename'
p1
S'intercept37.5994_0.1613_0.1439_0.pickle'
p2
sS'time'
p3
NsS'filename'
p4
S'intercept37.5994_0.1613_0.1439_0.1090_0.pickle'
p5
sS'seed'
p6
S'10901803198447156064'
p7
sS'fuzzer'
p8
S'Radamsa'
p9
sS'networkData'
p10
(lp11
(dp12
S'latency'
p13
NsS'from'
p14
S'cli'
p15
sS'index'
p16
I0
sS'timeouts'
p17
I0
sS'isFuzzed'
p18
I01
sS'data'
p19
S'ZCCCCCCCCAD kdy\x1f\xef\xb7\xba   \x85     \xf3\xa0\x81\xbd     \xe0\xb9\x80\xf3\xa0\x81\xad          \n'
p20
sas.