(dp0
S'parentFilename'
p1
S'intercept44.9162_0.4861_0.1454_0.pickle'
p2
sS'time'
p3
NsS'filename'
p4
S'intercept44.9162_0.4861_0.1454_0.5469_0.pickle'
p5
sS'seed'
p6
S'5469873534579809864'
p7
sS'fuzzer'
p8
S'Radamsa'
p9
sS'networkData'
p10
(lp11
(dp12
S'latency'
p13
NsS'from'
p14
S'cli'
p15
sS'index'
p16
I0
sS'timeouts'
p17
I0
sS'isFuzzed'
p18
I01
sS'data'
p19
S'TETRANGF key key offset -257aluey offset key offset -128alue        \n'
p20
sas.