(dp0
S'parentFilename'
p1
S'intercept68.1783_0.pickle'
p2
sS'time'
p3
NsS'filename'
p4
S'intercept68.1783_0.1628_0.pickle'
p5
sS'seed'
p6
S'16284618928576307525'
p7
sS'fuzzer'
p8
S'Radamsa'
p9
sS'networkData'
p10
(lp11
(dp12
S'latency'
p13
NsS'from'
p14
S'cli'
p15
sS'index'
p16
I0
sS'timeouts'
p17
I0
sS'isFuzzed'
p18
I01
sS'data'
p19
S'\x99UNSUASCRIB\x9dE [pette\xeen .\xc0\xae \x1f\t\n\xf3\xa0\x81\x9d\x1f'
p20
sas.