(dp0
S'parentFilename'
p1
S'intercept196.2238_0.1771_0.1113_0.pickle'
p2
sS'time'
p3
NsS'filename'
p4
S'intercept196.2238_0.1771_0.1113_0.3440_0.pickle'
p5
sS'seed'
p6
S'3440668378102760374'
p7
sS'fuzzer'
p8
S'Radamsa'
p9
sS'networkData'
p10
(lp11
(dp12
S'latency'
p13
NsS'from'
p14
S'cli'
p15
sS'index'
p16
I0
sS'timeouts'
p17
I0
sS'isFuzzed'
p18
I01
sS'data'
p19
S'\xb1\xf3\xa0\x81\x81\x97\xf3\xf3\xa0\x80\xa0\x80\xa5o\xb1p\xe2\xf3\xa0\x81\xb9\x80\xe2\x80\x8e\x88\x98'
p20
sas.