(dp0
S'parentFilename'
p1
S'intercept228.1370_0.pickle'
p2
sS'time'
p3
NsS'filename'
p4
S'intercept228.1370_0.1523_0.pickle'
p5
sS'seed'
p6
S'15239435880495519150'
p7
sS'fuzzer'
p8
S'Radamsa'
p9
sS'networkData'
p10
(lp11
(dp12
S'latency'
p13
NsS'from'
p14
S'cli'
p15
sS'index'
p16
I0
sS'timeouts'
p17
I0
sS'isFuzzed'
p18
I01
sS'data'
p19
S"su\\r\\n%n%n&#000;&#000;%n$(xc\xe2\x80\x8ealc)\\r\\n`xcalc`\\r%p'xcalc$!!\\x0dnionstore\n"
p20
sas.