(dp0
S'parentFilename'
p1
S'intercept196.4800_0.9753_0.pickle'
p2
sS'time'
p3
NsS'filename'
p4
S'intercept196.4800_0.9753_0.1956_0.pickle'
p5
sS'seed'
p6
S'1956994655753077651'
p7
sS'fuzzer'
p8
S'Radamsa'
p9
sS'networkData'
p10
(lp11
(dp12
S'latency'
p13
NsS'from'
p14
S'cli'
p15
sS'index'
p16
I0
sS'timeouts'
p17
I0
sS'isFuzzed'
p18
I01
sS'data'
p19
S'r\xf3\xa0\x81\xa8p\xf3\xf3\xa0\x81\xf3\xa0\xf3\xa0\x81\xf3\xa0\xf3\xa0\x81\xa5\x81\x83\x10\xa0\x80\xa9o\x08\x08\x08\x08\n\n\n'
p20
sas.