(dp0
S'parentFilename'
p1
S'intercept239.1048_0.8689_0.pickle'
p2
sS'time'
p3
NsS'filename'
p4
S'intercept239.1048_0.8689_0.1652_0.pickle'
p5
sS'seed'
p6
S'16524732499920803855'
p7
sS'fuzzer'
p8
S'Radamsa'
p9
sS'networkData'
p10
(lp11
(dp12
S'latency'
p13
NsS'from'
p14
S'cli'
p15
sS'index'
p16
I0
sS'timeouts'
p17
I0
sS'isFuzzed'
p18
I01
sS'data'
p19
S'\xf3\xf3\xa0\x80\xf3\xa0\x81\x8d\xaawwa\xaf\x80\xaawwa\xaf\x80\xaawatch'
p20
sas.