(dp0
S'parentFilename'
p1
S'intercept37.5994_0.8737_0.1029_0.1516_0.pickle'
p2
sS'time'
p3
NsS'filename'
p4
S'intercept37.5994_0.8737_0.1029_0.1516_0.1000_0.pickle'
p5
sS'seed'
p6
S'10001343457490739652'
p7
sS'fuzzer'
p8
S'Radamsa'
p9
sS'networkData'
p10
(lp11
(dp12
S'latency'
p13
NsS'from'
p14
S'cli'
p15
sS'index'
p16
I0
sS'timeouts'
p17
I0
sS'isFuzzed'
p18
I01
sS'data'
p19
S'ZCCCCCCCCAD kdy     \xef\xbc\x8f                     \nZCC\xe8CCCCCCACCCCCCCCACC\xf3A\x81\x80CCCCCCACCCCCCCCACCCCCCCACC\xf3A\x81\x80CCCCCCACCCCCCCCACCCCCCCCACCCCCCC\xe2\x81\xa6CACCCCCCCCACCCCCCCCACCCCCCCCACCCCCCCCACCCCCCCCACCCCCCCCACCCCCCCCACCCCCCCCACCCCCCCCACCCCCCCCACCCCCCCCACCCC\xf3\xa0\x81\x9bCC\xff\xff\x00\x00CCACCCCCCCCCACCCCCCCCACCCCCCCCACCCCCCCCACCCCCCCCAD kdy\xf3\xa0\x81\xb8                          \n'
p20
sas.