(dp0
S'parentFilename'
p1
S'intercept31.1254_0.1082_0.6413_0.pickle'
p2
sS'time'
p3
NsS'filename'
p4
S'intercept31.1254_0.1082_0.6413_0.1283_0.pickle'
p5
sS'seed'
p6
S'12839617078010978895'
p7
sS'fuzzer'
p8
S'Radamsa'
p9
sS'networkData'
p10
(lp11
(dp12
S'latency'
p13
NsS'from'
p14
S'cli'
p15
sS'index'
p16
I0
sS'timeouts'
p17
I0
sS'isFuzzed'
p18
I01
sS'data'
p19
S"SUN   \nSUN   \nSUN   \nSUN `xcalc`$&\\x0d$(xcalc);xcalc%#x+inf$'`xcalc`$&%s\\x0aaaaaaaaaaaaaaaaaaaaaaaaaaaaaaaaaaaaaaaaaaaaaaaaaaaaaaaaaaaaaaaaaaaaaaaaaaaaaaaaaaaaaaaaaaaaaaaaaaaaaaaaaaaaaaaaaaaaaaaaaaaaaaaaaaaa%d%n  \nSUN   \nSUN   \nSUN   \n"
p20
sas.