(dp0
S'parentFilename'
p1
S'intercept165.4761_0.pickle'
p2
sS'time'
p3
NsS'filename'
p4
S'intercept165.4761_0.1166_0.pickle'
p5
sS'seed'
p6
S'11664559915708719861'
p7
sS'fuzzer'
p8
S'Radamsa'
p9
sS'networkData'
p10
(lp11
(dp12
S'latency'
p13
NsS'from'
p14
S'cli'
p15
sS'index'
p16
I0
sS'timeouts'
p17
I0
sS'isFuzzed'
p18
I01
sS'data'
p19
S'nvlti\xf3\xa0tinvlti\xf3\xa0\xf3\xa0\x80\xf3\xa0\x80\xba\xba\xba\xef\n\n\xf3\xf3\xa0\n\xa0\n\x81\xa0\xf3\xa0\x81\xaa\x81\xa6\xa6\n'
p20
sas.