(dp0
S'parentFilename'
p1
S'intercept171.2130_0.7529_0.pickle'
p2
sS'time'
p3
NsS'filename'
p4
S'intercept171.2130_0.7529_0.1181_0.pickle'
p5
sS'seed'
p6
S'11818366765127228601'
p7
sS'fuzzer'
p8
S'Radamsa'
p9
sS'networkData'
p10
(lp11
(dp12
S'latency'
p13
NsS'from'
p14
S'cli'
p15
sS'index'
p16
I0
sS'timeouts'
p17
I0
sS'isFuzzed'
p18
I01
sS'data'
p19
S'\xf3\xa0\x81\xf3\xa0\x80\xb0\x8c\xa0\x80\xb0\x8cp\x81\xf3\xa0\x80\xb0\x8cp\x8cpbad\n'
p20
sas.