(dp0
S'parentFilename'
p1
S'intercept265.1405_0.1461_0.pickle'
p2
sS'time'
p3
NsS'filename'
p4
S'intercept265.1405_0.1461_0.4034_0.pickle'
p5
sS'seed'
p6
S'4034298688118378030'
p7
sS'fuzzer'
p8
S'Radamsa'
p9
sS'networkData'
p10
(lp11
(dp12
S'latency'
p13
NsS'from'
p14
S'cli'
p15
sS'index'
p16
I0
sS'timeouts'
p17
I0
sS'isFuzzed'
p18
I01
sS'data'
p19
S'\n\n\n\n\n\n\n\n\n\n\n\n\n\n\n\n\n\n\n\n\n\n\n\n\n\n\n\n\n\n\n\n\n\n\n\n\n\n\n\n\n\n\n\n\n\n\n\n\n\n\n\n\n\n\n\n\n\n'
p20
sas.