(dp0
S'parentFilename'
p1
S'intercept13.7871_0.pickle'
p2
sS'time'
p3
NsS'filename'
p4
S'intercept13.7871_0.1165_0.pickle'
p5
sS'seed'
p6
S'1165580937121127179'
p7
sS'fuzzer'
p8
S'Radamsa'
p9
sS'networkData'
p10
(lp11
(dp12
S'latency'
p13
NsS'from'
p14
S'cli'
p15
sS'index'
p16
I0
sS'timeouts'
p17
I0
sS'isFuzzed'
p18
I01
sS'data'
p19
S'LPUSH key value\xef\xb7\xba [value ./.]           \nLPUSH key value ./.]           \n'
p20
sas.