(dp0
S'parentFilename'
p1
S'intercept66.1661_0.pickle'
p2
sS'time'
p3
NsS'filename'
p4
S'intercept66.1661_0.9617_0.pickle'
p5
sS'seed'
p6
S'9617244562275952239'
p7
sS'fuzzer'
p8
S'Radamsa'
p9
sS'networkData'
p10
(lp11
(dp12
S'latency'
p13
NsS'from'
p14
S'cli'
p15
sS'index'
p16
I0
sS'timeouts'
p17
I0
sS'isFuzzed'
p18
I01
sS'data'
p19
S'MSET ke\xff\xff\x00\x00y val\xf3\xa0\x80\xbcue [key value ...]   \xcd\x8f \n'
p20
sas.