(dp0
S'parentFilename'
p1
S'intercept50.9385_0.pickle'
p2
sS'time'
p3
NsS'filename'
p4
S'intercept50.9385_0.5253_0.pickle'
p5
sS'seed'
p6
S'5253694954418911234'
p7
sS'fuzzer'
p8
S'Radamsa'
p9
sS'networkData'
p10
(lp11
(dp12
S'latency'
p13
NsS'from'
p14
S'cli'
p15
sS'index'
p16
I0
sS'timeouts'
p17
I0
sS'isFuzzed'
p18
I01
sS'data'
p19
S'HSEdi y die\xf3\xa0\x81\xbafl vanue  \xed\xaa\xad \n\xb7\xbaHSEdi y diefl vanue  \xed\xaa\xad \n\xef\xb7\xbaHSEdi y diefl \xe2\x80\x81vanue  \xed\xaa\xad \n\xef\xb7\xbaHSEdi y diefl vanue  \xed\xaa\xad \n'
p20
sas.