(dp0
S'parentFilename'
p1
S'intercept47.pickle'
p2
sS'time'
p3
NsS'filename'
p4
S'intercept47.1575_0.pickle'
p5
sS'seed'
p6
S'15753115044896317367'
p7
sS'fuzzer'
p8
S'Radamsa'
p9
sS'networkData'
p10
(lp11
(dp12
S'latency'
p13
NsS'from'
p14
S'cli'
p15
sS'index'
p16
I0
sS'timeouts'
p17
I0
sS'isFuzzed'
p18
I01
sS'data'
p19
S'ZRANGEBY+/v9SCORECORES] [LIMIT offset count]  \nZRANGEBYSCORE key minmax [W\xf3\xa0\x81\x85ITHSCORES] [LIMIT offset count+/v9]  \nZRANGEBYSCORE key \xe2\x81\xa9minmax [W\xf3\xa0\x81\x85ITHSCORES] [LIMIT offset count]  \nZRANGEBYSCORE key minmax [W\xf3\xa0\x81\x85ITHSCORES] [LIMIT offset count]  \nZRANGEBYSCORE key minmax [W\xf3\xa0\x81\x85ITHSCORES] [LIMIT offset count]  \nZRANGEBYSCORE key minmax [W\xf3\xa0\x81\x85ITHSCORES] [LIMIT offset count]  \nZRANGEBYSCORE key minmax [W\xf3\xa0\x81\x85ITHSCORES] [LIMIT offset count]  \nZRANGEBYSCORE key minmax [W\xf3\xa0\x81\x85ITHSCORES] [LIMIT offset count]  \nZRANGEBYSCORE key minmax [W\xf3\xa0\x81\x85ITHSCORES] [LIMIT offset count]  \nZRANGEBYSCORE key minmax [W\xf3\xa0\x81\x85ITHSCORES] [LIMIT offset count]  \nZRANGEBYSCORE key minmax [W\xf3\xa0\x81\x85ITHSCORES] [LIMIT offset count]  \nZRANGEBYSCORE key minmax [W\xf3\xa0\x81\x85ITHSCORES] [LIMIT offset count]  \nZRANGEBYSCORE key minmax [W\xf3\xa0\x81\x85ITHSCORES] [LIMIT offset count]  \nZRANGEBYSCORE key minmax [W\xf3\xa0\x81\x85ITHSCORES] [LIMIT offset count]  \nZRANGEBYSCORE key minmax [W\xf3\xa0\x81\x85ITHSCORES] [LIMIT offset count]  \nZRANGEBYSCORE key minmax [W\xf3\xa0\x81\x85ITHSCORES] [LIMIT offset count]  \nZRANGEBYSCORE key minmax [W\xf3\xa0\x81\x85ITHSCORES] [LIMIT offset count]  \nZRANGEBYSCORE key minmax [W\xf3\xa0\x81\x85ITHSCORES] [LIMIT offset count]  \nZRANGEBYSCORE key minmax [W\xf3\xa0\x81\x85ITHSCORES] [LIMIT offset count]  \nZRANGEBYSCORE key minmax [W\xf3\xa0\x81\x85ITHSCORES] [LIMIT offset count]  \nZRANGEBYSCORE key minmax [W\xf3\xa0\x81\x85ITHSCORES] [LIMIT offset count]  \nZRANGEBYSCORE key minmax [W\xf3\xa0\x81\x85ITHSCORES] [LIMIT offset count]  \nZRANGEBYSCORE key minmax [W\xf3\xa0\x81\x85ITHSCORES] [LIMIT offset count]  \nZRANGEBYSCORE key minmax [W\xf3\xa0\x81\x85ITHSCORES] [LIMIT offset count]  \nZRANGEBYSCORE key minmax [W\xf3\xa0\x81\x85ITHSCORES] [LIMIT offset count]  \nZRANGEBYSCORE key minmax [W\xf3\xa0\x81\x85ITHSCORES] [LIMIT offset count]  \nZRANGEBYSCORE key minmax [W\xf3\xa0\x81\x85ITHSCORES] [LIMIT offset count]  \nZRANGEBYSCORE key minmax [W\xf3\xa0\x81\x85ITHSCORES] [LIMIT offset count]  \nZRANGEBYSCORE key minmax [W\xf3\xa0\x81\x85ITHSCORES] [LIMIT offset count]  \nZRANGEBYSCORE key minmax [W\xf3\xa0\x81\x85ITHSCORES] [LIMIT offset count]  \nZRANGEBYSCORE key minmax [W\xf3\xa0\x81\x85ITHSCORES] [LIMIT offset count]  \nZRANGEBYSCORE key minmax [W\xf3\xa0\x81\x85ITHSCORES] [LIMIT offset count]  \nZRANGEBYSCORE key minmax [W\xf3\xa0\x81\x85ITHSCORES] [LIMIT offset count]  \nZRANGEBYSCORE key minmax [W\xf3\xa0\x81\x85ITHSCORES] [LIMIT offset count]  \nZRANGEBYSCORE key minmax [W\xf3\xa0\x81\x85ITHSCORES] [LIMIT offset count]  \nZRANGEBYSCORE key minmax [W\xf3\xa0\x81\x85ITHSCORES] [LIMIT offset count]  \nZRANGEBYSCORE key minmax [W\xf3\xa0\x81\x85ITHSCORES] [LIMIT offset count]  \nZRANGEBYSCORE key minmax [W\xf3\xa0\x81\x85ITHSCORES] [LIMIT offset count]  \nZRANGEBYSCORE key minmax [W\xf3\xa0\x81\x85ITHSCORES] [LIMIT offset count]  \nZRANGEBYSCORE key minmax [W\xf3\xa0\x81\x85ITHSCORES] [LIMIT offset count]  \nZRANGEBYSCORE key minmax [W\xf3\xa0\x81\x85ITHSCORES] [LIMIT offset count]  \nZRANGEBYSCORE key minmax [W\xf3\xa0\x81\x85ITHSCORES] [LIMIT offset count]  \nZRANGEBYSCORE key minmax [W\xf3\xa0\x81\x85ITHSCORES] [LIMIT offset count]  \nZRANGEBYSCORE key minmax [W\xf3\xa0\x81\x85ITHSCORES] [LIMIT offset count]  \nZRANGEBYSCORE key minmax [W\xf3\xa0\x81\x85ITHSCORES] [LIMIT offset count]  \nZRANGEBYSCORE key minmax [W\xf3\xa0\x81\x85ITHSCORES] [LIMIT offset count]  \nZRANGEBYSCORE key minmax [W\xf3\xa0\x81\x85ITHSCORES] [LIMIT offset count]  \nZRANGEBYSCORE key minmax [W\xf3\xa0\x81\x85ITHSCORES] [LIMIT offset count]  \nZRANGEBYSCORE key minmax [W\xf3\xa0\x81\x85ITHSCORES] [LIMIT offset count]  \nZRANGEBYSCORE key minmax [W\xf3\xa0\x81\x85ITHSCORES] [LIMIT offset count]  \nZRANGEBYSCORE key minmax [W\xf3\xa0\x81\x85ITHSCORES] [LIMIT offset count]  \nZRANGEBYSCORE key minmax [W\xf3\xa0\x81\x85ITHSCORES] [LIMIT offset count]  \nZRANGEBYSCORE key minmax [W\xf3\xa0\x81\x85ITHSCORES] [LIMIT offset count]  \nZRANGEBYSCORE key minmax [W\xf3\xa0\x81\x85ITHSCORES] [LIMIT offset count]  \nZRANGEBYSCORE key minmax [W\xf3\xa0\x81\x85ITHSCORES] [LIMIT offset count]  \nZRANGEBYSCORE key minmax [W\xf3\xa0\x81\x85ITHSCORES] [LIMIT offset count]  \nZRANGEBYSCORE key minmax [W\xf3\xa0\x81\x85ITHSCORES] [LIMIT offset count]  \nZRANGEBYSCORE key minmax [W\xf3\xa0\x81\x85ITHSCORES] [LIMIT offset count]  \nZRANGEBYSCORE key minmax [W\xf3\xa0\x81\x85ITHSCORES] [LIMIT offset count]  \nZRANGEBYSCORE key minmax [W\xf3\xa0\x81\x85ITHSCORES] [LIMIT offset count]  \nZRANGEBYSCORE key minmax [W\xf3\xa0\x81\x85ITHSCORES] [LIMIT offset count]  \nZRANGEBYSCORE key minmax [W\xf3\xa0\x81\x85ITHSCORES] [LIMIT offset count]  \nZRANGEBYSCORE key minmax [W\xf3\xa0\x81\x85ITHSCORES] [LIMIT offset count]  \nZRANGEBYSCORE key minmax [W\xf3\xa0\x81\x85ITHSCORES] [LIMIT offset count]  \nZRANGEBYSCORE key minmax [W\xf3\xa0\x81\x85ITHSCORES] [LIMIT offset count]  \nZRANGEBYSCORE key minmax [W\xf3\xa0\x81\x85ITHSCORES] [LIMIT offset count]  \nZRANGEBYSCORE key minmax [W\xf3\xa0\x81\x85ITHSCORES] [LIMIT offset count]  \nZRANGEBYSCORE key minmax [W\xf3\xa0\x81\x85ITHSCORES] [LIMIT offset count]  \nZRANGEBYSCORE key minmax [W\xf3\xa0\x81\x85ITHSCORES] [LIMIT offset count]  \nZRANGEBYSCORE key minmax [W\xf3\xa0\x81\x85ITHSCORES] [LIMIT offset count]  \nZRANGEBYSCORE key minmax [W\xf3\xa0\x81\x85ITHSCORES] [LIMIT offset count]  \nZRANGEBYSCORE key minmax [W\xf3\xa0\x81\x85ITHSCORES] [LIMIT offset count]  \nZRANGEBYSCORE key minmax [W\xf3\xa0\x81\x85ITHSCORES] [LIMIT offset count]  \nZRANGEBYSCORE key minmax [W\xf3\xa0\x81\x85ITHSCORES] [LIMIT offset count]  \nZRANGEBYSCORE key minmax [W\xf3\xa0\x81\x85ITHSCORES] [LIMIT offset count]  \nZRANGEBYSCORE key minmax [W\xf3\xa0\x81\x85ITHSCORES] [LIMIT offset count]  \nZRANGEBYSCORE key minmax [W\xf3\xa0\x81\x85ITHSCORES] [LIMIT offset count]  \nZRANGEBYSCORE key minmax [W\xf3\xa0\x81\x85ITHSCORES] [LIMIT offset count]  \nZRANGEBYSCORE key minmax [W\xf3\xa0\x81\x85ITHSCORES] [LIMIT offset count]  \nZRANGEBYSCORE key minmax [W\xf3\xa0\x81\x85ITHSCORES] [LIMIT offset count]  \nZRANGEBYSCORE key minmax [W\xf3\xa0\x81\x85ITHSCORES] [LIMIT offset count]  \nZRANGEBYSCORE key minmax [W\xf3\xa0\x81\x85ITHSCORES] [LIMIT offset count]  \nZRANGEBYSCORE key minmax [W\xf3\xa0\x81\x85ITHSCORES] [LIMIT offset count]  \nZRANGEBYSCORE key minmax [W\xf3\xa0\x81\x85ITHSCORES] [LIMIT offset count]  \nZRANGEBYSCORE key minmax [W\xf3\xa0\x81\x85ITHSCORES] [LIMIT offset count]  \nZRANGEBYSCORE key minmax [W\xf3\xa0\x81\x85ITHSCORES] [LIMIT offset count]  \nZRANGEBYSCORE key minmax [W\xf3\xa0\x81\x85ITHSCORES] [LIMIT offset count]  \nZRANGEBYSCORE key minmax [W\xf3\xa0\x81\x85ITHSCORES] [LIMIT offset count]  \nZRANGEBYSCORE key minmax [W\xf3\xa0\x81\x85ITHSCORES] [LIMIT offset count]  \nZRANGEBYSCORE key minmax [W\xf3\xa0\x81\x85ITHSCORES] [LIMIT offset count]  \nZRANGEBYSCORE key minmax [W\xf3\xa0\x81\x85ITHSCORES] [LIMIT offset count]  \nZRANGEBYSCORE key minmax [W\xf3\xa0\x81\x85ITHSCORES] [LIMIT offset count]  \nZRANGEBYSCORE key minmax [W\xf3\xa0\x81\x85ITHSCORES] [LIMIT offset count]  \nZRANGEBYSCORE key minmax [W\xf3\xa0\x81\x85ITHSCORES] [LIMIT offset count]  \nZRANGEBYSCORE key minmax [W\xf3\xa0\x81\x85ITHSCORES] [LIMIT offset count]  \nZRANGEBYSCORE key minmax [W\xf3\xa0\x81\x85ITHSCORES] [LIMIT offset count]  \nZRANGEBYSCORE key minmax [W\xf3\xa0\x81\x85ITHSCORES] [LIMIT offset count]  \nZRANGEBYSCORE key minmax [W\xf3\xa0\x81\x85ITHSCORES] [LIMIT offset count]  \nZRANGEBYSCORE key minmax [W\xf3\xa0\x81\x85ITHSCORES] [LIMIT offset count]  \nZRANGEBYSCORE key minmax [W\xf3\xa0\x81\x85ITHSCORES] [LIMIT offset count]  \nZRANGEBYSCORE key minmax [W\xf3\xa0\x81\x85ITHSCORES] [LIMIT offset count]  \nZRANGEBYSCORE key minmax [W\xf3\xa0\x81\x85ITHSCORES] [LIMIT offset count]  \nZRANGEBYSCORE key minmax [W\xf3\xa0\x81\x85ITHSCORES] [LIMIT offset count]  \nZRANGEBYSCORE key minmax [W\xf3\xa0\x81\x85ITHSCORES] [LIMIT offset count]  \nZRANGEBYSCORE key minmax [W\xf3\xa0\x81\x85ITHSCORES] [LIMIT offset count]  \nZRANGEBYSCORE key minmax [W\xf3\xa0\x81\x85ITHSCORES] [LIMIT offset count]  \nZRANGEBYSCORE key minmax [W\xf3\xa0\x81\x85ITHSCORES] [LIMIT offset count]  \nZRANGEBYSCORE key minmax [W\xf3\xa0\x81\x85ITHSCORES] [LIMIT offset count]  \nZRANGEBYSCORE key minmax [W\xf3\xa0\x81\x85ITHSCORES] [LIMIT offset count]  \nZRANGEBYSCORE key minmax [W\xf3\xa0\x81\x85ITHSCORES] [LIMIT offset count]  \nZRANGEBYSCORE key minmax [W\xf3\xa0\x81\x85ITHSCORES] [LIMIT offset count]  \nZRANGEBYSCORE key minmax [W\xf3\xa0\x81\x85ITHSCORES] [LIMIT offset count]  \nZRANGEBYSCORE key minmax [W\xf3\xa0\x81\x85ITHSCORES] [LIMIT offset count]  \nZRANGEBYSCORE key minmax [W\xf3\xa0\x81\x85ITHSCORES] [LIMIT offset count]  \nZRANGEBYSCORE key minmax [W\xf3\xa0\x81\x85ITHSCORES] [LIMIT offset count]  \nZRANGEBYSCORE key minmax [W\xf3\xa0\x81\x85ITHSCORES] [LIMIT offset count]  \nZRANGEBYSCORE key minmax [W\xf3\xa0\x81\x85ITHSCORES] [LIMIT offset count]  \nZRANGEBYSCORE key minmax [W\xf3\xa0\x81\x85ITHSCORES] [LIMIT offset count]  \nZRANGEBYSCORE key minmax [W\xf3\xa0\x81\x85ITHSCORES] [LIMIT offset count]  \nZRANGEBYSCORE key minmax [W\xf3\xa0\x81\x85ITHSCORES] [LIMIT offset count]  \nZRANGEBYSCORE key minmax [W\xf3\xa0\x81\x85ITHSCORES] [LIMIT offset count]  \nZRANGEBYSCORE key minmax [W\xf3\xa0\x81\x85ITHSCORES] [LIMIT offset count]  \nZRANGEBYSCORE key minmax [W\xf3\xa0\x81\x85ITHSCORES] [LIMIT offset count]  \nZRANGEBYSCORE key minmax [W\xf3\xa0\x81\x85ITHSCORES] [LIMIT offset count]  \nZRANGEBYSCORE key minmax [W\xf3\xa0\x81\x85ITHSCORES] [LIMIT offset count]  \nZRANGEBYSCORE key minmax [W\xf3\xa0\x81\x85ITHSCORES] [LIMIT offset count]  \nZRANGEBYSCORE key minmax [W\xf3\xa0\x81\x85ITHSCORES] [LIMIT offset count]  \nZRANGEBYSCORE key minmax [W\xf3\xa0\x81\x85ITHSCORES] [LIMIT offset count]  \nZRANGEBYSCORE key minmax [W\xf3\xa0\x81\x85ITHSCORES] [LIMIT offset count]  \nZRANGEBYSCORE key minmax [W\xf3\xa0\x81\x85ITHSCORES] [LIMIT offset count]  \nZRANGEBYSCORE key minmax [W\xf3\xa0\x81\x85ITHSCORES] [LIMIT offset count]  \nZRANGEBYSCORE key minmax [W\xf3\xa0\x81\x85ITHSCORES] [LIMIT offset count]  \nZRANGEBYSCORE key minmax [W\xf3\xa0\x81\x85ITHSCORES] [LIMIT offset count]  \nZRANGEBYSCORE key minmax [W\xf3\xa0\x81\x85ITHSCORES] [LIMIT offset count]  \nZRANGEBYSCORE key minmax [W\xf3\xa0\x81\x85ITHSCORES] [LIMIT offset count]  \nZRANGEBYSCORE key min max [WITHSCORES] [LIMIT offset count]  \nZRANGEBYSCORE key min max [WITHSCORES] [LIMIT offset count]  \nZRANGEBYSCORE key min max [Wy min max [W\xf3\xa0\x81\x98ITHSCORES] [LIMIT offset count]  \nZRANGEBYSCORE key min max [WITHSCORES] [LIMIT offset count]  \nZRANGEBYSCORE key min max [WITHSCORES] [LIMIT offset count]  \nZRANGEBYSCORE key min max [WITHSCORES] [LIMIT offset count]  \nZRANGEBYSCORE key min max [W\xf3\xa0\x81\xb2ITHSCORES] [LIMIT offset count]  \nZRANGEBYSCORE key min max [WITHSCORES] [LIMIT offset count]  \nZRANGEBYSCORE key min max [WITHSCORES] [LIMIT offset count]ITHSCORES] [LIMIT offset count]  \nZRANGEBYSCORE key min max [WITHSCORES] [LIMIT offset count]  \nZRANGEBYSCORE key min max [WITHSCORES] [LIMIT offset count]  \nZRANGEBYSCORE key min max [WITHSCORES] [LIMIT offset count]  \nZRANGEBYSCORE key min max [WITHSCORES] [LIMIT offset count]  \nZRANGEBYSCORE key min max [WITHSCORES] [LIMIT offset count]  \nZRANGEBYSCORE key min max [WITHSCORES] [LIMIT offset count]  \nZRANGEBYSCORE key min max [WITHSCORES] [LIMIT offset count]  \nZRANGEBYSCORE key min max [WITHSCORES] [LIMIT offset count]  \nZRANGEBYSCORE key min max [WITHSCORES] [LIMIT offset count]  \nZRANGEBYSCORE key min max [WITHSCORES] [LIMIT offset count]  \nZRANGEBYSCORE key min max [WITHSCORES] [LIMIT offset count]  \nZRANGEBYSCORE key min max [WITHSCORES] [LIMIT offset count]  \nZRANGEBYSCORE key min max [WITHSCORES] [LIMIT offset count]  \nZRANGEBYSCORE key min max [WITHSCORES] [LIMIT offset count]  \nZRANGEBYSCORE key min max [WITHSCORES] [LIMIT offset count]  \nZRANGEBYSCORE key min max [WITHSCORES] [LIMIT offset count]  \nZRANGEBYSCORE key min max [WITHSCORES] [LIMIT offset count]  \nZRANGEBYSCORE key min max [WITHSCORES] [LIMIT offset count]  \nZRANGEBYSCORE key min max [WITHSCORES] [LIMIT offset count]  \nZRANGEBYSCORE key min max [WITHSCORES] [LIMIT offset count]  \nZRANGEBYSCORE key min max [WITHSCORES] [LIMIT offset count]  \nZRANGEBYSCORE key min max [WITHSCORES] [LIMIT offset count]  \nZRANGEBYSCORE key min max [WITHSCORES] [LIMIT offset count]  \nZRANGEBYSCORE key min max [WITHSCORES] [LIMIT offset count]  \nZRANGEBYSCORE key min max [WITHSCORES] [LIMIT offset count]  \nZRANGEBYSCORE key min max [WITHSCORES] [LIMIT offset count]  \nZRANGEBYSCORE key min max [WITHSCORES] [LIMIT offset count]  \nZRANGEBYSCORE key min max [WITHSCORES] [LIMIT offset count]  \nZRANGEBYSCORE key min max [WITHSCORES] [LIMIT offset count]  \nZRANGEBYSCORE key min max [WITHSCORES] [LIMIT offset count]  \nZRANGEBYSCORE key min max [WITHSCORES] [LIMIT offset count]  \nZRANGEBYSCORE key min max [WITHSCORES] [LIMIT offset count]  \nZRANGEBYSCORE key min max [WITHSCORES] [LIMIT offset count]  \nZRANGEBYSCORE key min max [WITHSCORES] [LIMIT offset count]  \nZRANGEBYSCORE key min max [WITHSCORES] [LIMIT offset count]  \nZRANGEBYSCORE key min max [WITHSCORES] [LIMIT offset count]  \nZRANGEBYSCORE key min max [WITHSCORES] [LIMIT offset count]  \nZRANGEBYSCORE key min max [WITHSCORES] [LIMIT offset count]  \nZRANGEBYSCORE key min max [WITHSCORES] [LIMIT offset count]  \nZRANGEBYSCORE key min max [WITHSCORES] [LIMIT offset count]  \nZRANGEBYSCORE key min max [WITHSCORES] [LIMIT offset count]  \nZRANGEBYSCORE key min max [WITHSCORES] [LIMIT offset count]  \nZRANGEBYSCORE key min max [WITHSCORES] [LIMIT offset count]  \nZRANGEBYSCORE key min max [WITHSCORES] [LIMIT offset count]  \nZRANGEBYSCORE key min max [WITHSCORES] [LIMIT offset count]  \nZRANGEBYSCORE key min max [WITHSCORES] [LIMIT offset count]  \nZRANGEBYSCORE key min max [WITHSCORES] [LIMIT offset count]  \nZRANGEBYSCORE key min max [WITHSCORES] [LIMIT offset count]  \nZRANGEBYSCORE key min max [WITHSCORES] [LIMIT offset count]  \nZRANGEBYSCORE key min max [WITHSCORES] [LIMIT offset count]  \nZRANGEBYSCORE key min max [WITHSCORES] [LIMIT offset count]  \nZRANGEBYSCORE key min max [WITHSCORES] [LIMIT offset count]  \nZRANGEBYSCORE key min max [WITHSCORES] [LIMIT offset count]  \nZRANGEBYSCORE key min max [WITHSCORES] [LIMIT offset count]  \nZRANGEBYSCORE key min max [WITHSCORES] [LIMIT offset count]  \nZRANGEBYSCORE key min max [WITHSCORES] [LIMIT offset count]  \nZRANGEBYSCORE key min max [WITHSCORES] [LIMIT offset count]  \nZRANGEBYSCORE key min max [WITHSCORES] [LIMIT offset count]  \nZRANGEBYSCORE key min max [WITHSCORES] [LIMIT offset count]  \nZRANGEBYSCORE key min max [WITHSCORES] [LIMIT offset count]  \nZRANGEBYSCORE key min max [WITHSCORES] [LIMIT offset count]  \nZRANGEBYSCORE key min max [WITHSCORES] [LIMIT offset count]  \nZRANGEBYSCORE key min max [WITHSCORES] [LIMIT offset count]  \nZRANGEBYSCORE key min max [WITHSCORES] [LIMIT offset count]  \nZRANGEBYSCORE key min max [WITHSCORES] [LIMIT offset count]  \nZRANGEBYSCORE key min max [WITHSCORES] [LIMIT offset count]  \nZRANGEBYSCORE key min max [WITHSCORES] [LIMIT offset count]  \nZRANGEBYSCORE key min max [WITHSCORES] [LIMIT offset count]  \nZRANGEBYSCORE key min max [WITHSCORES] [LIMIT offset count]  \nZRANGEBYSCORE key min max [WITHSCORES] [LIMIT offset count]  \nZRANGEBYSCORE key min max [WITHSCORES] [LIMIT offset count]  \nZRANGEBYSCORE key min max [WITHSCORES] [LIMIT offset count]  \nZRANGEBYSCORE key min max [WITHSCORES] [LIMIT offset count]  \nZRANGEBYSCORE key min max [WITHSCORES] [LIMIT offset count]  \nZRANGEBYSCORE key min max [WITHSCORES] [LIMIT offset count]  \nZRANGEBYSCORE key min max [WITHSCORES] [LIMIT offset count]  \nZRANGEBYSCORE key min max [WITHSCORES] [LIMIT offset count]  \nZRANGEBYSCORE key min max [WITHSCORES] [LIMIT offset count]  \nZRANGEBYSCORE key min max [WITHSCORES] [LIMIT offset count]  \nZRANGEBYSCORE key min max [WITHSCORES] [LIMIT offset count]  \nZRANGEBYSCORE key min max [WITHSCORES] [LIMIT offset count]  \nZRANGEBYSCORE key min max [WITHSCORES] [LIMIT offset count]  \nZRANGEBYSCORE key min max [WITHSCORES] [LIMIT offset count]  \nZRANGEBYSCORE key min max [WITHSCORES] [LIMIT offset count]  \nZRANGEBYSCORE key min max [WITHSCORES] [LIMIT offset count]  \nZRANGEBYSCORE key min max [WITHSCORES] [LIMIT offset count]  \nZRANGEBYSCORE key min max [WITHSCORES] [LIMIT offset count]  \nZRANGEBYSCORE key min max [WITHSCORES] [LIMIT offset count]  \nZRANGEBYSCORE key min max [WITHSCORES] [LIMIT offset count]  \nZRANGEBYSCORE key min max [WITHSCORES] [LIMIT offset count]  \nZRANGEBYSCORE key min max [WITHSCORES] [LIMIT offset count]  \nZRANGEBYSCORE key min max [WITHSCORES] [LIMIT offset count]  \nZRANGEBYSCORE key min max [WITHSCORES] [LIMIT offset count]  \nZRANGEBYSCORE key min max [WITHSCORES] [LIMIT offset count]  \nZRANGEBYSCORE key min max [WITHSCORES] [LIMIT offset count]  \nZRANGEBYSCORE key min max [WITHSCORES] [LIMIT offset count]  \nZRANGEBYSCORE key min max [WITHSCORES] [LIMIT offset count]  \nZRANGEBYSCORE key min max [WITHSCORES] [LIMIT offset count]  \nZRANGEBYSCORE key min max [WITHSCORES] [LIMIT offset count]  \nZRANGEBYSCORE key min max [WITHSCORES] [LIMIT offset count]  \nZRANGEBYSCORE key min max [WITHSCORES] [LIMIT offset count]  \nZRANGEBYSCORE key min max [WITHSCORES] [LIMIT offset count]  \nZRANGEBYSCORE key min max [WITHSCORES] [LIMIT offset count]  \nZRANGEBYSCORE key min max [WITHSCORES] [LIMIT offset count]  \nZRANGEBYSCORE key min max [WITHSCORES] [LIMIT offset count]  \nZRANGEBYSCORE key min max [WITHSCORES] [LIMIT offset count]  \nZRANGEBYSCORE key min max [WITHSCORES] [LIMIT offset count]  \nZRANGEBYSCORE key min max [WITHSCORES] [LIMIT offset count]  \nZRANGEBYSCORE key min max [WITHSCORES] [LIMIT offset count]  \nZRANGEBYSCORE key min max [WITHSCORES] [LIMIT offset count]  \nZRANGEBYSCORE key min max [WITHSCORES] [LIMIT offset count]  \nZRANGEBYSCORE key min max [WITHSCORES] [LIMIT offset count]  \nZRANGEBYSCORE key min max [WITHSCORES] [LIMIT offset count]  \nZRANGEBYSCORE key min max [WITHSCORES] [LIMIT offset count]  \nZRANGEBYSCORE key min max [WITHSCORES] [LIMIT offset count]  \nZRANGEBYSCORE key min max [WITHSCORES] [LIMIT offset count]  \nZRANGEBYSCORE key min max [WITHSCORES] [LIMIT offset count]  \nZRANGEBYSCORE key min max [WITHSCORES] [LIMIT offset count]  \nZRANGEBYSCORE key min max [WITHSCORES] [LIMIT offset count]  \nZRANGEBYSCORE key min max [WITHSCORES] [LIMIT offset count]  \nZRANGEBYSCORE key min max [WITHSCORES] [LIMIT offset count]  \nZRANGEBYSCORE key min max [WITHSCORES] [LIMIT offset count]  \nZRANGEBYSCORE key min max [WITHSCORES] [LIMIT offset count]  \nZRANGEBYSCORE key min max [WITHSCORES] [LIMIT offset count]  \nZRANGEBYSCORE key min max [WITHSCORES] [LIMIT offset count]  \nZRANGEBYSCORE key min max [WITHSCORES] [LIMIT offset count]  \nZRANGEBYSCORE key min max [WITHSCORES] [LIMIT offset count]  \nZRANGEBYSCORE key min max [WITHSCORES] [LIMIT offset count]  \nZRANGEBYSCORE key min max [WITHSCORES] [LIMIT offset count]  \nZRANGEBYSCORE key min max [WITHSCORES] [LIMIT offset count]  \nZRANGEBYSCORE key min max [WITHSCORES] [LIMIT offset count]  \nZRANGEBYSCORE key min max [WITHSCORES] [LIMIT offset count]  \nZRANGEBYSCORE key min max [WITHSCORES] [LIMIT offset count]  \nZRANGEBYSCORE key min max [WITHSCORES] [LIMIT offset count]  \nZRANGEBYSCORE key min max [WITHSCORES] [LIMIT offset count]  \nZRANGEBYSCORE key min max [WITHSCORES] [LIMIT offset count]  \nZRANGEBYSCORE key min max [WITHSCORES] [LIMIT offset count]  \nZRANGEBYSCORE key min max [WITHSCORES] [LIMIT offset count]  \nZRANGEBYSCORE key min max [WITHSCORES] [LIMIT offset count]  \nZRANGEBYSCORE key min max [WITHSCORES] [LIMIT offset count]  \nZRANGEBYSCORE key min max [WITHSCORES] [LIMIT offset count]  \nZRANGEBYSCORE key min max [WITHSCORES] [LIMIT offset count]  \nZRANGEBYSCORE key min max [WITHSCORES] [LIMIT offset count]  \nZRANGEBYSCORE key min max [WITHSCORES] [LIMIT offset count]  \nZRANGEBYSCORE key min max [WITHSCORES] [LIMIT offset count]  \nZRANGEBYSCORE key min max [WITHSCORES] [LIMIT offset count]  \nZRANGEBYSCORE key min max [WITHSCORES] [LIMIT offset count]  \nZRANGEBYSCORE key min max [WITHSCORES] [LIMIT offset count]  \nZRANGEBYSCORE key min max [WITHSCORES] [LIMIT offset count]  \nZRANGEBYSCORE key min max [WITHSCORES] [LIMIT offset count]  \nZRANGEBYSCORE key min max [WITHSCORES] [LIMIT offset count]  \nZRANGEBYSCORE key min max [WITHSCORES] [LIMIT offset count]  \nZRANGEBYSCORE key min max [WITHSCORES] [LIMIT offset count]  \nZRANGEBYSCORE key min max [WITHSCORES] [LIMIT offset count]  \nZRANGEBYSCORE key min max [WITHSCORES] [LIMIT offset count]  \nZRANGEBYSCORE key min max [WITHSCORES] [LIMIT offset count]  \nZRANGEBYSCORE key min max [WITHSCORES] [LIMIT offset count]  \nZRANGEBYSCORE key min max [WITHSCORES] [LIMIT offset count]  \nZRANGEBYSCORE key min max [WITHSCORES] [LIMIT offset count]  \nZRANGEBYSCORE key min max [WITHSCORES] [LIMIT offset count]  \nZRANGEBYSCORE key min max [WITHSCORES] [LIMIT offset count]  \nZRANGEBYSCORE key min max [WITHSCORES] [LIMIT offset count]  \nZRANGEBYSCORE key min max [WITHSCORES] [LIMIT offset count]  \nZRANGEBYSCORE key min max [WITHSCORES] [LIMIT offset count]  \nZRANGEBYSCORE key min max [WITHSCORES] [LIMIT offset count]  \nZRANGEBYSCORE key min max [WITHSCORES] [LIMIT offset count]  \nZRANGEBYSCORE key min max [WITHSCORES] [LIMIT offset count]  \nZRANGEBYSCORE key min max [WITHSCORES] [LIMIT offset count]  \nZRANGEBYSCORE key min max [WITHSCORES] [LIMIT offset count]  \nZRANGEBYSCORE key min max [WITHSCORES] [LIMIT offset count]  \nZRANGEBYSCORE key min max [WITHSCORES] [LIMIT offset count]  \nZRANGEBYSCORE key min max [WITHSCORES] [LIMIT offset count]  \nZRANGEBYSCORE key min max [WITHSCORES] [LIMIT offset count]  \nZRANGEBYSCORE key min max [WITHSCORES] [LIMIT offset count]  \nZRANGEBYSCORE key min max [WITHSCORES] [LIMIT offset count]  \nZRANGEBYSCORE key min max [WITHSCORES] [LIMIT offset count]  \nZRANGEBYSCORE key min max [WITHSCORES] [LIMIT offset count]  \nZRANGEBYSCORE key min max [WITHSCORES] [LIMIT offset count]  \nZRANGEBYSCORE key min max [WITHSCORES] [LIMIT offset count]  \nZRANGEBYSCORE key min max [WITHSCORES] [LIMIT offset count]  \nZRANGEBYSCORE key min max [WITHSCORES] [LIMIT offset count]  \nZRANGEBYSCORE key min max [WITHSCORES] [LIMIT offset count]  \nZRANGEBYSCORE key min max [WITHSCORES] [LIMIT offset count]  \nZRANGEBYSCORE key min max [WITHSCORES] [LIMIT offset count]  \nZRANGEBYSCORE key min max [WITHSCORES] [LIMIT offset count]  \nZRANGEBYSCORE key min max [WITHSCORES] [LIMIT offset count]  \nZRANGEBYSCORE key min max [WITHSCORES] [LIMIT offset count]  \nZRANGEBYSCORE key min max [WITHSCORES] [LIMIT offset count]  \nZRANGEBYSCORE key min max [WITHSCORES] [LIMIT offset count]  \nZRANGEBYSCORE key min max [WITHSCORES] [LIMIT offset count]  \nZRANGEBYSCORE key min max [WITHSCORES] [LIMIT offset count]  \nZRANGEBYSCORE key min max [WITHSCORES] [LIMIT offset count]  \nZRANGEBYSCORE key min max [WITHSCORES] [LIMIT offset count]  \nZRANGEBYSCORE key min max [WITHSCORES] [LIMIT offset count]  \nZRANGEBYSCORE key min max [WITHSCORES] [LIMIT offset count]  \nZRANGEBYSCORE key min max [WITHSCORES] [LIMIT offset count]  \nZRANGEBYSCORE key min max [WITHSCORES] [LIMIT offset count]  \nZRANGEBYSCORE key min max [WITHSCORES] [LIMIT offset count]  \nZRANGEBYSCORE key min max [WITHSCORES] [LIMIT offset count]  \nZRANGEBYSCORE key min max [WITHSCORES] [LIMIT offset count]  \nZRANGEBYSCORE key min max [WITHSCORES] [LIMIT offset count]  \nZRANGEBYSCORE key min max [WITHSCORES] [LIMIT offset count]  \nZRANGEBYSCORE key min max [WITHSCORES] [LIMIT offset count]  \nZRANGEBYSCORE key min max [WITHSCORES] [LIMIT offset count]  \nZRANGEBYSCORE key min max [WITHSCORES] [LIMIT offset count]  \nZRANGEBYSCORE key min max [WITHSCORES] [LIMIT offset count]  \nZRANGEBYSCORE key min max [WITHSCORES] [LIMIT offset count]  \nZRANGEBYSCORE key min max [WITHSCORES] [LIMIT offset count]  \nZRANGEBYSCORE key min max [WITHSCORES] [LIMIT offset count]  \nZRANGEBYSCORE key min max [WITHSCORES] [LIMIT offset count]  \nZRANGEBYSCORE key min max [WITHSCORES] [LIMIT offset count]  \nZRANGEBYSCORE key min max [WITHSCORES] [LIMIT offset count]  \nZRANGEBYSCORE key min max [WITHSCORES] [LIMIT offset count]  \nZRANGEBYSCORE key min max [WITHSCORES] [LIMIT offset count]  \nZRANGEBYSCORE key min max [WITHSCORES] [LIMIT offset count]  \nZRANGEBYSCORE key min max [WITHSCORES] [LIMIT offset count]  \nZRANGEBYSCORE key min max [WITHSCORES] [LIMIT offset count]  \nZRANGEBYSCORE key min max [WITHSCORES] [LIMIT offset count]  \nZRANGEBYSCORE key min max [WITHSCORES] [LIMIT offset count]  \nZRANGEBYSCORE key min max [WITHSCORES] [LIMIT offset count]  \nZRANGEBYSCORE key min max [WITHSCORES] [LIMIT offset count]  \nZRANGEBYSCORE key min max [WITHSCORES] [LIMIT offset count]  \nZRANGEBYSCORE key min max [WITHSCORES] [LIMIT offset count]  \nZRANGEBYSCORE key min max [WITHSCORES] [LIMIT offset count]  \nZRANGEBYSCORE key min max [WITHSCORES] [LIMIT offset count]  \nZRANGEBYSCORE key min max [WITHSCORES] [LIMIT offset count]  \nZRANGEBYSCORE key min max [WITHSCORES] [LIMIT offset count]  \nZRANGEBYSCORE key min max [WITHSCORES] [LIMIT offset count]  \nZRANGEBYSCORE key min max [WITHSCORES] [LIMIT offset count]  \nZRANGEBYSCORE key min max [WITHSCORES] [LIMIT offset count]  \nZRANGEBYSCORE key min max [WITHSCORES] [LIMIT offset count]  \nZRANGEBYSCORE key min max [WITHSCORES] [LIMIT offset count]  \nZRANGEBYSCORE key min max [WITHSCORES] [LIMIT offset count]  \nZRANGEBYSCORE key min max [WITHSCORES] [LIMIT offset count]  \nZRANGEBYSCORE key min max [WITHSCORES] [LIMIT offset count]  \nZRANGEBYSCORE key min max [WITHSCORES] [LIMIT offset count]  \nZRANGEBYSCORE key min max [WITHSCORES] [LIMIT offset count]  \nZRANGEBYSCORE key min max [WITHSCORES] [LIMIT offset count]  \nZRANGEBYSCORE key min max [WITHSCORES] [LIMIT offset count]  \nZRANGEBYSCORE key min max [WITHSCORES] [LIMIT offset count]  \nZRANGEBYSCORE key min max [WITHSCORES] [LIMIT offset count]  \nZRANGEBYSCORE key min max [WITHSCORES] [LIMIT offset count]  \nZRANGEBYSCORE key min max [WITHSCORES] [LIMIT offset count]  \nZRANGEBYSCORE key min max [WITHSCORES] [LIMIT offset count]  \nZRANGEBYSCORE key min max [WITHSCORES] [LIMIT offset count]  \nZRANGEBYSCORE key min max [WITHSCORES] [LIMIT offset count]  \nZRANGEBYSCORE key min max [WITHSCORES] [LIMIT offset count]  \nZRANGEBYSCORE key min max [WITHSCORES] [LIMIT offset count]  \nZRANGEBYSCORE key min max [WITHSCORES] [LIMIT offset count]  \nZRANGEBYSCORE key min max [WITHSCORES] [LIMIT offset count]  \nZRANGEBYSCORE key min max [WITHSCORES] [LIMIT offset count]  \nZRANGEBYSCORE key min max [WITHSCORES] [LIMIT offset count]  \nZRANGEBYSCORE key min max [WITHSCORES] [LIMIT offset count]  \nZRANGEBYSCORE key min max [WITHSCORES] [LIMIT offset count]  \nZRANGEBYSCORE key min max [WITHSCORES] [LIMIT offset count]  \nZRANGEBYSCORE key min max [WITHSCORES] [LIMIT offset count]  \nZRANGEBYSCORE key min max [WITHSCORES] [LIMIT offset count]  \nZRANGEBYSCORE key min max [WITHSCORES] [LIMIT offset count]  \nZRANGEBYSCORE key min max [WITHSCORES] [LIMIT offset count]  \nZRANGEBYSCORE key min max [WITHSCORES] [LIMIT offset count]  \nZRANGEBYSCORE key min max [WITHSCORES] [LIMIT offset count]  \nZRANGEBYSCORE key min max [WITHSCORES] [LIMIT offset count]  \nZRANGEBYSCORE key min max [WITHSCORES] [LIMIT offset count]  \nZRANGEBYSCORE key min max [WITHSCORES] [LIMIT offset count]  \nZRANGEBYSCORE key min max [WITHSCORES] [LIMIT offset count]  \nZRANGEBYSCORE key min max [WITHSCORES] [LIMIT offset count]  \nZRANGEBYSCORE key min max [WITHSCORES] [LIMIT offset count]  \nZRANGEBYSCORE key min max [WITHSCORES] [LIMIT offset count]  \nZRANGEBYSCORE key min max [WITHSCORES] [LIMIT offset count]  \nZRANGEBYSCORE key min max [WITHSCORES] [LIMIT offset count]  \nZRANGEBYSCORE key min max [WITHSCORES] [LIMIT offset count]  \nZRANGEBYSCORE key min max [WITHSCORES] [LIMIT offset count]  \nZRANGEBYSCORE key min max [WITHSCORES] [LIMIT offset count]  \nZRANGEBYSCORE key min max [WITHSCORES] [LIMIT offset count]  \n'
p20
sas.