(dp0
S'parentFilename'
p1
S'intercept118.5640_0.pickle'
p2
sS'time'
p3
NsS'filename'
p4
S'intercept118.5640_0.1266_0.pickle'
p5
sS'seed'
p6
S'12667355003400111620'
p7
sS'fuzzer'
p8
S'Radamsa'
p9
sS'networkData'
p10
(lp11
(dp12
S'latency'
p13
NsS'from'
p14
S'cli'
p15
sS'index'
p16
I0
sS'timeouts'
p17
I0
sS'isFuzzed'
p18
I01
sS'data'
p19
S'ge\xe2\x81\xa0o\xf3\xa0\x81\x8bradiu\xf3\xa0\x81\x8cs_rradiu\xf3\xa0\x81\x8cs_ro\xe2\x80\xf3\xa0\x81\x88\x84\n'
p20
sas.