(dp0
S'parentFilename'
p1
S'intercept116.1657_0.2266_0.pickle'
p2
sS'time'
p3
NsS'filename'
p4
S'intercept116.1657_0.2266_0.6318_0.pickle'
p5
sS'seed'
p6
S'6318168359025961273'
p7
sS'fuzzer'
p8
S'Radamsa'
p9
sS'networkData'
p10
(lp11
(dp12
S'latency'
p13
NsS'from'
p14
S'cli'
p15
sS'index'
p16
I0
sS'timeouts'
p17
I0
sS'isFuzzed'
p18
I01
sS'data'
p19
S'e\xf3\xa0\x81\xado\x1aauJtbymce\xb8\xe2rre_\x80\xf3\xa0\x81\x98\x85o\x1auJtKymce\xb8\xe2rre_\x80\xf3\xa0\x81\x98\x85o\x1aymce\xb8\xe2rmce\xb8\xe2rre_\x80\xf3\xa0\x81\x98\x85o\n'
p20
sas.