(dp0
S'faultaddress'
p1
I1449103879
sS'crashData'
p2
(dp3
S'serverpid'
p4
I9164
sS'asanOutput'
p5
S'=================================================================\n==9164==ERROR: AddressSanitizer: heap-buffer-overflow on address 0x602000002e52 at pc 0x55a42d9b3058 bp 0x7fff12a7a750 sp 0x7fff12a7a748\nREAD of size 1 at 0x602000002e52 thread T0\n    #0 0x55a42d9b3057 in getu16 ../../mongoose.c:10706\n    #1 0x55a42d9b30c9 in scanto ../../mongoose.c:10710\n    #2 0x55a42d9b3484 in parse_mqtt ../../mongoose.c:10747\n    #3 0x55a42d9b40a6 in mqtt_handler ../../mongoose.c:10843\n    #4 0x55a42d9a2675 in mg_call ../../mongoose.c:2404\n    #5 0x55a42d9a6008 in mg_recv_tcp ../../mongoose.c:2931\n    #6 0x55a42d9a5bc8 in mg_do_recv ../../mongoose.c:2887\n    #7 0x55a42d9a5be8 in mg_if_can_recv_cb ../../mongoose.c:2893\n    #8 0x55a42d9ac601 in mg_mgr_handle_conn ../../mongoose.c:4009\n    #9 0x55a42d9adb30 in mg_socket_if_poll ../../mongoose.c:4200\n    #10 0x55a42d9a3df5 in mg_mgr_poll ../../mongoose.c:2593\n    #11 0x55a42d9958b2 in main /home/kali/fuzzing/victims/mongoose-6.13/examples/mqtt_broker/mqtt_broker.c:51\n    #12 0x7f318a857a86 in __libc_start_main (/lib/x86_64-linux-gnu/libc.so.6+0x21a86)\n    #13 0x55a42d9955f9 in _start (/home/kali/fuzzing/victims/mongoose-6.13/bin/mqtt_broker-6.13-asan+0x65f9)\n\n0x602000002e52 is located 0 bytes to the right of 2-byte region [0x602000002e50,0x602000002e52)\nallocated by thread T0 here:\n    #0 0x7f318aef72c0 in __interceptor_realloc (/usr/lib/x86_64-linux-gnu/libasan.so.5+0xe92c0)\n    #1 0x55a42d99ca0c in mbuf_resize ../../mongoose.c:1549\n    #2 0x55a42d99cac8 in mbuf_trim ../../mongoose.c:1563\n    #3 0x55a42d9a5fb0 in mg_recv_tcp ../../mongoose.c:2930\n    #4 0x55a42d9a5bc8 in mg_do_recv ../../mongoose.c:2887\n    #5 0x55a42d9a5be8 in mg_if_can_recv_cb ../../mongoose.c:2893\n    #6 0x55a42d9ac601 in mg_mgr_handle_conn ../../mongoose.c:4009\n    #7 0x55a42d9adb30 in mg_socket_if_poll ../../mongoose.c:4200\n    #8 0x55a42d9a3df5 in mg_mgr_poll ../../mongoose.c:2593\n    #9 0x55a42d9958b2 in main /home/kali/fuzzing/victims/mongoose-6.13/examples/mqtt_broker/mqtt_broker.c:51\n    #10 0x7f318a857a86 in __libc_start_main (/lib/x86_64-linux-gnu/libc.so.6+0x21a86)\n\nSUMMARY: AddressSanitizer: heap-buffer-overflow ../../mongoose.c:10706 in getu16\nShadow bytes around the buggy address:\n  0x0c047fff8570: fa fa fd fd fa fa fd fa fa fa fd fa fa fa fd fa\n  0x0c047fff8580: fa fa fd fd fa fa fd fa fa fa fd fa fa fa fd fd\n  0x0c047fff8590: fa fa fd fd fa fa fd fa fa fa fd fa fa fa fd fd\n  0x0c047fff85a0: fa fa fd fa fa fa fd fa fa fa fd fa fa fa fd fa\n  0x0c047fff85b0: fa fa fd fd fa fa fd fd fa fa fd fd fa fa fd fd\n=>0x0c047fff85c0: fa fa fd fd fa fa 00 00 fa fa[02]fa fa fa fa fa\n  0x0c047fff85d0: fa fa fa fa fa fa fa fa fa fa fa fa fa fa fa fa\n  0x0c047fff85e0: fa fa fa fa fa fa fa fa fa fa fa fa fa fa fa fa\n  0x0c047fff85f0: fa fa fa fa fa fa fa fa fa fa fa fa fa fa fa fa\n  0x0c047fff8600: fa fa fa fa fa fa fa fa fa fa fa fa fa fa fa fa\n  0x0c047fff8610: fa fa fa fa fa fa fa fa fa fa fa fa fa fa fa fa\nShadow byte legend (one shadow byte represents 8 application bytes):\n  Addressable:           00\n  Partially addressable: 01 02 03 04 05 06 07 \n  Heap left redzone:       fa\n  Freed heap region:       fd\n  Stack left redzone:      f1\n  Stack mid redzone:       f2\n  Stack right redzone:     f3\n  Stack after return:      f5\n  Stack use after scope:   f8\n  Global redzone:          f9\n  Global init order:       f6\n  Poisoned by user:        f7\n  Container overflow:      fc\n  Array cookie:            ac\n  Intra object redzone:    bb\n  ASan internal:           fe\n  Left alloca redzone:     ca\n  Right alloca redzone:    cb\n==9164==ABORTING\n'
p6
sS'reallydead'
p7
I-6
sS'signum'
p8
I0
sS'exitcode'
p9
I0
sS'fuzzerPos'
p10
S'B'
p11
sS'corpusData'
p12
(dp13
S'parentFilename'
p14
S'intercept0.pickle'
p15
sS'time'
p16
NsS'filename'
p17
S'intercept0.1590_0.pickle'
p18
sS'seed'
p19
S'15904087658504959127'
p20
sS'fuzzer'
p21
S'Radamsa'
p22
sS'networkData'
p23
(lp24
(dp25
S'latency'
p26
NsS'from'
p27
S'cli'
p28
sS'index'
p29
I0
sS'timeouts'
p30
I0
sS'isFuzzed'
p31
I01
sS'data'
p32
S'\x14\x00'
p33
sa(dp34
g30
I0
sg27
S'srv'
p35
sg32
S' \x02\x00\x00'
p36
sg29
I1
sg26
Nsa(dp37
g30
I0
sg27
g28
sg32
S'\x82\x0c\x00\x01\x00\x07area-51\x00'
p38
sg29
I2
sg26
Nsa(dp39
g30
I0
sg27
g35
sg32
S'\x92\x03\x00\x01\x00'
p40
sg29
I3
sg26
Nsa(dp41
g30
I0
sg27
g28
sg32
S'0\x0e\x00\x07area-51hello'
p42
sg29
I4
sg26
Nsa(dp43
g30
I0
sg27
g35
sg32
S'0\x0e\x00\x07area-51hello'
p44
sg29
I5
sg26
Nsa(dp45
g30
I0
sg27
g28
sg32
S'\xa2\x0b\x00\x03\x00\x07area-51'
p46
sg29
I6
sg26
Nsassg17
S'intercept0.1590_0.1590_0.crash'
p47
ssS'processStdout'
p48
NsS'backtrace'
p49
(lp50
S'in getu16'
p51
aS'in scanto'
p52
aS'in parse_mqtt'
p53
aS'in mqtt_handler'
p54
aS'in mg_call'
p55
aS'in mg_recv_tcp'
p56
aS'in mg_do_recv'
p57
aS'in mg_if_can_recv_cb'
p58
aS'in mg_mgr_handle_conn'
p59
aS'in mg_socket_if_poll'
p60
aS'in mg_mgr_poll'
p61
aS'in main'
p62
aS'in __libc_start_main'
p63
aS' (mqtt_broker-asan32+0x2b60)'
p64
aS'located 0'
p65
aS'thread T0'
p66
aS'in realloc'
p67
aS'in mbuf_resize'
p68
aS'in mbuf_trim'
p69
aS'in mg_recv_tcp'
p70
aS'in mg_do_recv'
p71
aS'in mg_if_can_recv_cb'
p72
aS'in mg_mgr_handle_conn'
p73
aS'in mg_socket_if_poll'
p74
aS'in mg_mgr_poll'
p75
aS'in main'
p76
aS'in __libc_start_main'
p77
aS'heap-buffer-overflow ..mongoose.c:10706'
p78
aS'around the'
p79
aS'fa fa'
p80
aS'fa fa'
p81
aS'fa fa'
p82
aS'fa fa'
p83
aS'fa fa'
p84
aS'fa[02]fa fa'
p85
aS'fa 00'
p86
aS'fa fa'
p87
aS'fa fa'
p88
aS'fa fa'
p89
aS'fa fa'
p90
aS'legend (one'
p91
aS' '
p92
aS'01 02'
p93
aS'redzone: '
p94
aS'region: '
p95
aS'redzone: '
p96
aS'redzone: '
p97
aS'redzone: '
p98
aS'return: '
p99
aS'after scope:'
p100
ag92
aS'order: '
p101
aS'user: '
p102
ag92
ag92
aS'redzone: '
p103
ag92
aS'redzone: '
p104
aS'redzone: '
p105
asS'analyzerType'
p106
S'asan'
p107
sS'analyzerOutput'
p108
S'=================================================================\n==11751==ERROR: AddressSanitizer: heap-buffer-overflow on address 0xf5300712 at pc 0x565f9208 bp 0xff8f29b8 sp 0xff8f29ac\nREAD of size 1 at 0xf5300712 thread T0\n    #0 0x565f9207 in getu16 ../../mongoose.c:10706\n    #1 0x565f927b in scanto ../../mongoose.c:10710\n    #2 0x565f9689 in parse_mqtt ../../mongoose.c:10747\n    #3 0x565fa34a in mqtt_handler ../../mongoose.c:10843\n    #4 0x565e6ffb in mg_call ../../mongoose.c:2404\n    #5 0x565eb113 in mg_recv_tcp ../../mongoose.c:2931\n    #6 0x565eac3d in mg_do_recv ../../mongoose.c:2887\n    #7 0x565eac69 in mg_if_can_recv_cb ../../mongoose.c:2893\n    #8 0x565f1f31 in mg_mgr_handle_conn ../../mongoose.c:4009\n    #9 0x565f3763 in mg_socket_if_poll ../../mongoose.c:4200\n    #10 0x565e8c0b in mg_mgr_poll ../../mongoose.c:2593\n    #11 0x565d9e98 in main /home/kali/fuzzing/victims/mongoose-6.13/examples/mqtt_broker/mqtt_broker.c:51\n    #12 0xf775a9a0 in __libc_start_main (/lib/i386-linux-gnu/libc.so.6+0x199a0)\n    #13 0x565d9b60  (/home/kali/fuzzing/victims/mongoose-6.13/bin/mqtt_broker-asan32+0x2b60)\n\n0xf5300712 is located 0 bytes to the right of 2-byte region [0xf5300710,0xf5300712)\nallocated by thread T0 here:\n    #0 0xf7a262cc in realloc (/usr/lib/i386-linux-gnu/libasan.so.5+0xeb2cc)\n    #1 0x565e0f49 in mbuf_resize ../../mongoose.c:1549\n    #2 0x565e103f in mbuf_trim ../../mongoose.c:1563\n    #3 0x565eb0b8 in mg_recv_tcp ../../mongoose.c:2930\n    #4 0x565eac3d in mg_do_recv ../../mongoose.c:2887\n    #5 0x565eac69 in mg_if_can_recv_cb ../../mongoose.c:2893\n    #6 0x565f1f31 in mg_mgr_handle_conn ../../mongoose.c:4009\n    #7 0x565f3763 in mg_socket_if_poll ../../mongoose.c:4200\n    #8 0x565e8c0b in mg_mgr_poll ../../mongoose.c:2593\n    #9 0x565d9e98 in main /home/kali/fuzzing/victims/mongoose-6.13/examples/mqtt_broker/mqtt_broker.c:51\n    #10 0xf775a9a0 in __libc_start_main (/lib/i386-linux-gnu/libc.so.6+0x199a0)\n\nSUMMARY: AddressSanitizer: heap-buffer-overflow ../../mongoose.c:10706 in getu16\nShadow bytes around the buggy address:\n  0x3ea60090: fa fa fa fa fa fa fa fa fa fa fa fa fa fa fa fa\n  0x3ea600a0: fa fa fa fa fa fa fa fa fa fa fa fa fa fa fa fa\n  0x3ea600b0: fa fa fa fa fa fa fa fa fa fa fa fa fa fa fa fa\n  0x3ea600c0: fa fa fa fa fa fa fa fa fa fa fa fa fa fa fa fa\n  0x3ea600d0: fa fa fa fa fa fa fa fa fa fa fa fa fa fa fa fa\n=>0x3ea600e0: fa fa[02]fa fa fa 00 04 fa fa fd fd fa fa 00 04\n  0x3ea600f0: fa fa 00 04 fa fa 04 fa fa fa fa fa fa fa fa fa\n  0x3ea60100: fa fa fa fa fa fa fa fa fa fa fa fa fa fa fa fa\n  0x3ea60110: fa fa fa fa fa fa fa fa fa fa fa fa fa fa fa fa\n  0x3ea60120: fa fa fa fa fa fa fa fa fa fa fa fa fa fa fa fa\n  0x3ea60130: fa fa fa fa fa fa fa fa fa fa fa fa fa fa fa fa\nShadow byte legend (one shadow byte represents 8 application bytes):\n  Addressable:           00\n  Partially addressable: 01 02 03 04 05 06 07 \n  Heap left redzone:       fa\n  Freed heap region:       fd\n  Stack left redzone:      f1\n  Stack mid redzone:       f2\n  Stack right redzone:     f3\n  Stack after return:      f5\n  Stack use after scope:   f8\n  Global redzone:          f9\n  Global init order:       f6\n  Poisoned by user:        f7\n  Container overflow:      fc\n  Array cookie:            ac\n  Intra object redzone:    bb\n  ASan internal:           fe\n  Left alloca redzone:     ca\n  Right alloca redzone:    cb\n==11751==ABORTING\n'
p109
sS'cause'
p110
S'Heap BoF'
p111
sg17
S'intercept0.1590_0.1590_0.asan.verified'
p112
s.