(dp0
S'faultaddress'
p1
L4329535L
sS'crashData'
p2
(dp3
S'serverpid'
p4
I4018
sS'asanOutput'
p5
NsS'reallydead'
p6
I-11
sS'signum'
p7
I0
sS'exitcode'
p8
I0
sS'fuzzerPos'
p9
S'C'
p10
sS'corpusData'
p11
(dp12
S'parentFilename'
p13
S'intercept0.pickle'
p14
sS'time'
p15
NsS'filename'
p16
S'intercept0.8222_0.pickle'
p17
sS'seed'
p18
S'8222416357807330331'
p19
sS'fuzzer'
p20
S'Radamsa'
p21
sS'networkData'
p22
(lp23
(dp24
S'latency'
p25
NsS'from'
p26
S'cli'
p27
sS'index'
p28
I0
sS'timeouts'
p29
I0
sS'isFuzzed'
p30
I01
sS'data'
p31
S'\x10\x14\x00\x04MQTT\x04\x02\x00<\x00\x08mqt-tspy'
p32
sa(dp33
g29
I0
sg26
S'srv'
p34
sg31
S' \x02\x00\x00'
p35
sg28
I1
sg25
Nsa(dp36
g29
I0
sg26
g27
sg31
S'\x82\x0c\x00\x01\x00\x07area-51\x00'
p37
sg28
I2
sg25
Nsa(dp38
g29
I0
sg26
g34
sg31
S'\x92\x03\x00\x01\x00'
p39
sg28
I3
sg25
Nsa(dp40
g29
I0
sg26
g27
sg31
S'0\x0e\x00\x07area-51hello'
p41
sg28
I4
sg25
Nsa(dp42
g29
I0
sg26
g34
sg31
S'0\x0e\x00\x07area-51hello'
p43
sg28
I5
sg25
Nsa(dp44
g29
I0
sg26
g27
sg31
S'\xa2\x0b\x00\x03\x00\x07area-51'
p45
sg28
I6
sg25
Nsassg16
S'intercept0.8222_0.8222_0.crash'
p46
ssS'processStdout'
p47
NsS'backtrace'
p48
(lp49
S'IP=0x000000000042103f: ??? (0x0000000000000000, 0x00000000007d64e0, 0x00000000007d63c0, 0x0000000000000000)'
p50
aS'IP=0x000000000041a804: ??? (0xfffffff8ffffff33, 0x000000c400000000, 0x000000c9000000c8, 0x0000000000000000, 0x00007ffc59c5aa90, 0x00007ffc59c5aa90)'
p51
aS'IP=0x000000000041a69e: ??? (0x0000001600000000, 0x00000000007d63c0, 0x0000002f000000c4, 0x00007ffc59c5aa90, 0x000000c900000000, 0x00000000007d63c0)'
p52
aS'IP=0x0000000000402b87: ??? (0x0000000059c5b0a0, 0x0000000300000002, 0x0000000000402b00, 0x00000000004037f5, 0x000000005bf4508b, 0x000000160008be3d)'
p53
aS'IP=0x000000000041981a: ??? (0x0000000000000000, 0x0000000000407716, 0x00007ffc59c5aba0, 0x00000000004195a0, 0x0000000000000000, 0x00007ffc59c5abd4)'
p54
aS'IP=0x000000000040a471: ??? (0x0000000000000000, 0x000000000040f190, 0x00000016ffffffff, 0x00000000000005b4, 0x00000000007d64c0, 0x00000000007d63c0)'
p55
aS'IP=0x000000000041cb72: ??? (0x00000000004195a0, 0x00000000000005b4, 0x00000000007d64c0, 0x000000000040a1c0, 0x00000000007d63c0, 0x00007ffc59c5ac30)'
p56
aS'IP=0x000000000040b3f6: ??? (0x00000000007d63c0, 0x00000000007d63c0)'
p57
aS'IP=0x000000000040b285: ??? (0x00007ffc59c5ac90, 0x00000000004037f5, 0x010000005bf4508b, 0x000000000008be3c, 0x0000000122e4abd6, 0x41d6fd1422e4abd6)'
p58
aS'IP=0x000000000040dd24: ??? (0x00007ffc59c5acc0, 0x0000000000422a8a, 0x0001010000000004, 0x0000000000000001, 0x0000004059c5acf0, 0x0000000000000001)'
p59
aS'IP=0x000000000040eb50: ??? (0x000000005bf4508b, 0x00000002007d6150, 0x000003e800000000, 0x00007ffc59c5af80)'
p60
aS'IP=0x000000000040ab7d: ??? (0x0000000000000001, 0x000000014ffaf9b5, 0x00000000007d63c0, 0x0000000000000000, 0x0000000300000004, 0x0000000000000000)'
p61
aS'IP=0x00000000004026dc: ??? ()'
p62
aS'IP=0x00007fa04ff30b17: ??? (0x8c8e2d8d48550000, 0x8949fd8941530000, 0x08ec8348e5294cf6, 0xfe0e7fe803fdc148, 0xdb312074ed8548ff, 0x0000000000841f0f)'
p63
aS'IP=0x8c8e258d4c544155: ??? ()'
p64
asS'analyzerType'
p65
S'ptrace'
p66
sS'analyzerOutput'
p67
NsS'cause'
p68
Nsg16
S'intercept0.8222_0.8222_0.ptrace.verified'
p69
s.