(dp0
S'faultaddress'
p1
L4329535L
sS'crashData'
p2
(dp3
S'serverpid'
p4
I7848
sS'asanOutput'
p5
NsS'reallydead'
p6
I-11
sS'signum'
p7
I0
sS'exitcode'
p8
I0
sS'fuzzerPos'
p9
S'B'
p10
sS'corpusData'
p11
(dp12
S'parentFilename'
p13
S'intercept0.pickle'
p14
sS'time'
p15
NsS'filename'
p16
S'intercept0.1282_6.pickle'
p17
sS'seed'
p18
S'12821780902643795200'
p19
sS'fuzzer'
p20
S'Radamsa'
p21
sS'networkData'
p22
(lp23
(dp24
S'timeouts'
p25
I0
sS'from'
p26
S'cli'
p27
sS'data'
p28
S'\x10\x14\x00\x04MQTT\x04\x02\x00<\x00\x08mqtt-spy'
p29
sS'index'
p30
I0
sS'latency'
p31
Nsa(dp32
g25
I0
sg26
S'srv'
p33
sg28
S' \x02\x00\x00'
p34
sg30
I1
sg31
Nsa(dp35
g25
I0
sg26
g27
sg28
S'\x82\x0c\x00\x01\x00\x07area-51\x00'
p36
sg30
I2
sg31
Nsa(dp37
g25
I0
sg26
g33
sg28
S'\x92\x03\x00\x01\x00'
p38
sg30
I3
sg31
Nsa(dp39
g25
I0
sg26
g27
sg28
S'0\x0e\x00\x07area-51hello'
p40
sg30
I4
sg31
Nsa(dp41
g25
I0
sg26
g33
sg28
S'0\x0e\x00\x07area-51hello'
p42
sg30
I5
sg31
Nsa(dp43
g31
Nsg26
g27
sg30
I6
sg25
I0
sS'isFuzzed'
p44
I01
sg28
S'\xa2\xcb\x90\x0b\x00\x03\x00\x00\xff\xff\x00\x07ar\xf3\xa0\x81\xa2ea\xca\xb8---\xe2\x80\xad\xe0\xb9\x80210173787'
p45
sassg16
S'intercept0.1282_6.1282_6.crash'
p46
ssS'processStdout'
p47
NsS'backtrace'
p48
(lp49
S'IP=0x000000000042103f: ??? (0x0000000000000000, 0x00000000010c83e0, 0x00000000010c82c0, 0x0000000000000000)'
p50
aS'IP=0x000000000041a804: ??? (0xfffffff8ffffff33, 0x000000c400000000, 0x000000c9000000c8, 0x0000000000000000, 0x00007fff37104700, 0x00007fff37104700)'
p51
aS'IP=0x000000000041a69e: ??? (0x0000001600000000, 0x00000000010c82c0, 0x00000030000000c4, 0x00007fff37104700, 0x000000c900000000, 0x00000000010c82c0)'
p52
aS'IP=0x0000000000402b87: ??? (0x0000000037104d10, 0x0000000300000002, 0x0000000000402b00, 0x00000000004037f5, 0x00000000000005c0, 0x0000001600000000)'
p53
aS'IP=0x000000000041981a: ??? (0x0000000000000000, 0x0000000000407716, 0x00007fff37104810, 0x00000000004195a0, 0x0000000000000000, 0x00007fff37104844)'
p54
aS'IP=0x000000000040a471: ??? (0x0000000000000000, 0x000000000040f190, 0x00000016ffffffff, 0x00000000000005b4, 0x00000000010c83c0, 0x00000000010c82c0)'
p55
aS'IP=0x000000000041cb72: ??? (0x00000000004195a0, 0x00000000000005b4, 0x00000000010c83c0, 0x000000000040a1c0, 0x00000000010c82c0, 0x00007fff371048a0)'
p56
aS'IP=0x000000000040b3f6: ??? (0x00000000010c82c0, 0x00000000010c82c0)'
p57
aS'IP=0x000000000040b285: ??? (0x00007fff37104900, 0x00000000004037f5, 0x010000005bf450ab, 0x0000000000015f85, 0x000000012ac5c261, 0x41d6fd142ac5c261)'
p58
aS'IP=0x000000000040dd24: ??? (0x00007fff37104930, 0x0000000000422a8a, 0x0001010000000004, 0x0000000000000001, 0x0000004037104960, 0x0000000000000001)'
p59
aS'IP=0x000000000040eb50: ??? (0x000000005bf450ab, 0x00000003010c8150, 0x000003e800000000, 0x00007fff37104bf0)'
p60
aS'IP=0x000000000040ab7d: ??? (0x0000000000000001, 0x000000010f50d9b5, 0x00000000010c82c0, 0x0000000000000000, 0x0000000300000004, 0x0000000000000000)'
p61
aS'IP=0x00000000004026dc: ??? ()'
p62
aS'IP=0x00007fb90f48eb17: ??? (0x8c8e2d8d48550000, 0x8949fd8941530000, 0x08ec8348e5294cf6, 0xfe0e7fe803fdc148, 0xdb312074ed8548ff, 0x0000000000841f0f)'
p63
aS'IP=0x8c8e258d4c544155: ??? ()'
p64
asS'analyzerType'
p65
S'ptrace'
p66
sS'analyzerOutput'
p67
NsS'cause'
p68
Nsg16
S'intercept0.1282_6.1282_6.ptrace.verified'
p69
s.