(dp0
S'faultaddress'
p1
I1449009740
sS'crashData'
p2
(dp3
S'serverpid'
p4
I13225
sS'asanOutput'
p5
S'=================================================================\n==13225==ERROR: AddressSanitizer: heap-buffer-overflow on address 0x602000005573 at pc 0x55d4e5e160a4 bp 0x7ffdf59c3570 sp 0x7ffdf59c3568\nREAD of size 1 at 0x602000005573 thread T0\n    #0 0x55d4e5e160a3 in getu16 ../../mongoose.c:10706\n    #1 0x55d4e5e160c9 in scanto ../../mongoose.c:10710\n    #2 0x55d4e5e16484 in parse_mqtt ../../mongoose.c:10747\n    #3 0x55d4e5e170a6 in mqtt_handler ../../mongoose.c:10843\n    #4 0x55d4e5e05675 in mg_call ../../mongoose.c:2404\n    #5 0x55d4e5e09008 in mg_recv_tcp ../../mongoose.c:2931\n    #6 0x55d4e5e08bc8 in mg_do_recv ../../mongoose.c:2887\n    #7 0x55d4e5e08be8 in mg_if_can_recv_cb ../../mongoose.c:2893\n    #8 0x55d4e5e0f601 in mg_mgr_handle_conn ../../mongoose.c:4009\n    #9 0x55d4e5e10b30 in mg_socket_if_poll ../../mongoose.c:4200\n    #10 0x55d4e5e06df5 in mg_mgr_poll ../../mongoose.c:2593\n    #11 0x55d4e5df88b2 in main /home/kali/fuzzing/victims/mongoose-6.13/examples/mqtt_broker/mqtt_broker.c:51\n    #12 0x7f76c544da86 in __libc_start_main (/lib/x86_64-linux-gnu/libc.so.6+0x21a86)\n    #13 0x55d4e5df85f9 in _start (/home/kali/fuzzing/victims/mongoose-6.13/bin/mqtt_broker-6.13-asan+0x65f9)\n\n0x602000005573 is located 0 bytes to the right of 3-byte region [0x602000005570,0x602000005573)\nallocated by thread T0 here:\n    #0 0x7f76c5aed2c0 in __interceptor_realloc (/usr/lib/x86_64-linux-gnu/libasan.so.5+0xe92c0)\n    #1 0x55d4e5dffa0c in mbuf_resize ../../mongoose.c:1549\n    #2 0x55d4e5dffac8 in mbuf_trim ../../mongoose.c:1563\n    #3 0x55d4e5e08fb0 in mg_recv_tcp ../../mongoose.c:2930\n    #4 0x55d4e5e08bc8 in mg_do_recv ../../mongoose.c:2887\n    #5 0x55d4e5e08be8 in mg_if_can_recv_cb ../../mongoose.c:2893\n    #6 0x55d4e5e0f601 in mg_mgr_handle_conn ../../mongoose.c:4009\n    #7 0x55d4e5e10b30 in mg_socket_if_poll ../../mongoose.c:4200\n    #8 0x55d4e5e06df5 in mg_mgr_poll ../../mongoose.c:2593\n    #9 0x55d4e5df88b2 in main /home/kali/fuzzing/victims/mongoose-6.13/examples/mqtt_broker/mqtt_broker.c:51\n    #10 0x7f76c544da86 in __libc_start_main (/lib/x86_64-linux-gnu/libc.so.6+0x21a86)\n\nSUMMARY: AddressSanitizer: heap-buffer-overflow ../../mongoose.c:10706 in getu16\nShadow bytes around the buggy address:\n  0x0c047fff8a50: fa fa fd fd fa fa fd fa fa fa fd fa fa fa fd fa\n  0x0c047fff8a60: fa fa fd fd fa fa fd fd fa fa fd fd fa fa fd fa\n  0x0c047fff8a70: fa fa fd fa fa fa fd fd fa fa fd fd fa fa fd fd\n  0x0c047fff8a80: fa fa fd fd fa fa fd fd fa fa fd fa fa fa fd fa\n  0x0c047fff8a90: fa fa fd fd fa fa fd fa fa fa fd fa fa fa fd fa\n=>0x0c047fff8aa0: fa fa fd fd fa fa fd fd fa fa 00 00 fa fa[03]fa\n  0x0c047fff8ab0: fa fa fa fa fa fa fa fa fa fa fa fa fa fa fa fa\n  0x0c047fff8ac0: fa fa fa fa fa fa fa fa fa fa fa fa fa fa fa fa\n  0x0c047fff8ad0: fa fa fa fa fa fa fa fa fa fa fa fa fa fa fa fa\n  0x0c047fff8ae0: fa fa fa fa fa fa fa fa fa fa fa fa fa fa fa fa\n  0x0c047fff8af0: fa fa fa fa fa fa fa fa fa fa fa fa fa fa fa fa\nShadow byte legend (one shadow byte represents 8 application bytes):\n  Addressable:           00\n  Partially addressable: 01 02 03 04 05 06 07 \n  Heap left redzone:       fa\n  Freed heap region:       fd\n  Stack left redzone:      f1\n  Stack mid redzone:       f2\n  Stack right redzone:     f3\n  Stack after return:      f5\n  Stack use after scope:   f8\n  Global redzone:          f9\n  Global init order:       f6\n  Poisoned by user:        f7\n  Container overflow:      fc\n  Array cookie:            ac\n  Intra object redzone:    bb\n  ASan internal:           fe\n  Left alloca redzone:     ca\n  Right alloca redzone:    cb\n==13225==ABORTING\n'
p6
sS'reallydead'
p7
I-6
sS'signum'
p8
I0
sS'exitcode'
p9
I0
sS'fuzzerPos'
p10
S'B'
p11
sS'corpusData'
p12
(dp13
S'parentFilename'
p14
S'intercept0.pickle'
p15
sS'time'
p16
NsS'filename'
p17
S'intercept0.1420_0.pickle'
p18
sS'seed'
p19
S'14208875275569619044'
p20
sS'fuzzer'
p21
S'Radamsa'
p22
sS'networkData'
p23
(lp24
(dp25
S'latency'
p26
NsS'from'
p27
S'cli'
p28
sS'index'
p29
I0
sS'timeouts'
p30
I0
sS'isFuzzed'
p31
I01
sS'data'
p32
S'\x14\x00y'
p33
sa(dp34
g30
I0
sg27
S'srv'
p35
sg32
S' \x02\x00\x00'
p36
sg29
I1
sg26
Nsa(dp37
g30
I0
sg27
g28
sg32
S'\x82\x0c\x00\x01\x00\x07area-51\x00'
p38
sg29
I2
sg26
Nsa(dp39
g30
I0
sg27
g35
sg32
S'\x92\x03\x00\x01\x00'
p40
sg29
I3
sg26
Nsa(dp41
g30
I0
sg27
g28
sg32
S'0\x0e\x00\x07area-51hello'
p42
sg29
I4
sg26
Nsa(dp43
g30
I0
sg27
g35
sg32
S'0\x0e\x00\x07area-51hello'
p44
sg29
I5
sg26
Nsa(dp45
g30
I0
sg27
g28
sg32
S'\xa2\x0b\x00\x03\x00\x07area-51'
p46
sg29
I6
sg26
Nsassg17
S'intercept0.1420_0.1420_0.crash'
p47
ssS'processStdout'
p48
NsS'backtrace'
p49
(lp50
S'in getu16'
p51
aS'in scanto'
p52
aS'in parse_mqtt'
p53
aS'in mqtt_handler'
p54
aS'in mg_call'
p55
aS'in mg_recv_tcp'
p56
aS'in mg_do_recv'
p57
aS'in mg_if_can_recv_cb'
p58
aS'in mg_mgr_handle_conn'
p59
aS'in mg_socket_if_poll'
p60
aS'in mg_mgr_poll'
p61
aS'in main'
p62
aS'in __libc_start_main'
p63
aS' (mqtt_broker-asan32+0x2b60)'
p64
aS'located 0'
p65
aS'thread T0'
p66
aS'in realloc'
p67
aS'in mbuf_resize'
p68
aS'in mbuf_trim'
p69
aS'in mg_recv_tcp'
p70
aS'in mg_do_recv'
p71
aS'in mg_if_can_recv_cb'
p72
aS'in mg_mgr_handle_conn'
p73
aS'in mg_socket_if_poll'
p74
aS'in mg_mgr_poll'
p75
aS'in main'
p76
aS'in __libc_start_main'
p77
aS'heap-buffer-overflow ..mongoose.c:10706'
p78
aS'around the'
p79
aS'fa fa'
p80
aS'fa fa'
p81
aS'fa fa'
p82
aS'fa fa'
p83
aS'fa fa'
p84
aS'fa[03]fa fa'
p85
aS'fa 00'
p86
aS'fa fa'
p87
aS'fa fa'
p88
aS'fa fa'
p89
aS'fa fa'
p90
aS'legend (one'
p91
aS' '
p92
aS'01 02'
p93
aS'redzone: '
p94
aS'region: '
p95
aS'redzone: '
p96
aS'redzone: '
p97
aS'redzone: '
p98
aS'return: '
p99
aS'after scope:'
p100
ag92
aS'order: '
p101
aS'user: '
p102
ag92
ag92
aS'redzone: '
p103
ag92
aS'redzone: '
p104
aS'redzone: '
p105
asS'analyzerType'
p106
S'asan'
p107
sS'analyzerOutput'
p108
S'=================================================================\n==24412==ERROR: AddressSanitizer: heap-buffer-overflow on address 0xf5300713 at pc 0x565e224d bp 0xff87ad38 sp 0xff87ad2c\nREAD of size 1 at 0xf5300713 thread T0\n    #0 0x565e224c in getu16 ../../mongoose.c:10706\n    #1 0x565e227b in scanto ../../mongoose.c:10710\n    #2 0x565e2689 in parse_mqtt ../../mongoose.c:10747\n    #3 0x565e334a in mqtt_handler ../../mongoose.c:10843\n    #4 0x565cfffb in mg_call ../../mongoose.c:2404\n    #5 0x565d4113 in mg_recv_tcp ../../mongoose.c:2931\n    #6 0x565d3c3d in mg_do_recv ../../mongoose.c:2887\n    #7 0x565d3c69 in mg_if_can_recv_cb ../../mongoose.c:2893\n    #8 0x565daf31 in mg_mgr_handle_conn ../../mongoose.c:4009\n    #9 0x565dc763 in mg_socket_if_poll ../../mongoose.c:4200\n    #10 0x565d1c0b in mg_mgr_poll ../../mongoose.c:2593\n    #11 0x565c2e98 in main /home/kali/fuzzing/victims/mongoose-6.13/examples/mqtt_broker/mqtt_broker.c:51\n    #12 0xf76e79a0 in __libc_start_main (/lib/i386-linux-gnu/libc.so.6+0x199a0)\n    #13 0x565c2b60  (/home/kali/fuzzing/victims/mongoose-6.13/bin/mqtt_broker-asan32+0x2b60)\n\n0xf5300713 is located 0 bytes to the right of 3-byte region [0xf5300710,0xf5300713)\nallocated by thread T0 here:\n    #0 0xf79b32cc in realloc (/usr/lib/i386-linux-gnu/libasan.so.5+0xeb2cc)\n    #1 0x565c9f49 in mbuf_resize ../../mongoose.c:1549\n    #2 0x565ca03f in mbuf_trim ../../mongoose.c:1563\n    #3 0x565d40b8 in mg_recv_tcp ../../mongoose.c:2930\n    #4 0x565d3c3d in mg_do_recv ../../mongoose.c:2887\n    #5 0x565d3c69 in mg_if_can_recv_cb ../../mongoose.c:2893\n    #6 0x565daf31 in mg_mgr_handle_conn ../../mongoose.c:4009\n    #7 0x565dc763 in mg_socket_if_poll ../../mongoose.c:4200\n    #8 0x565d1c0b in mg_mgr_poll ../../mongoose.c:2593\n    #9 0x565c2e98 in main /home/kali/fuzzing/victims/mongoose-6.13/examples/mqtt_broker/mqtt_broker.c:51\n    #10 0xf76e79a0 in __libc_start_main (/lib/i386-linux-gnu/libc.so.6+0x199a0)\n\nSUMMARY: AddressSanitizer: heap-buffer-overflow ../../mongoose.c:10706 in getu16\nShadow bytes around the buggy address:\n  0x3ea60090: fa fa fa fa fa fa fa fa fa fa fa fa fa fa fa fa\n  0x3ea600a0: fa fa fa fa fa fa fa fa fa fa fa fa fa fa fa fa\n  0x3ea600b0: fa fa fa fa fa fa fa fa fa fa fa fa fa fa fa fa\n  0x3ea600c0: fa fa fa fa fa fa fa fa fa fa fa fa fa fa fa fa\n  0x3ea600d0: fa fa fa fa fa fa fa fa fa fa fa fa fa fa fa fa\n=>0x3ea600e0: fa fa[03]fa fa fa 00 04 fa fa fd fd fa fa 00 04\n  0x3ea600f0: fa fa 00 04 fa fa 04 fa fa fa fa fa fa fa fa fa\n  0x3ea60100: fa fa fa fa fa fa fa fa fa fa fa fa fa fa fa fa\n  0x3ea60110: fa fa fa fa fa fa fa fa fa fa fa fa fa fa fa fa\n  0x3ea60120: fa fa fa fa fa fa fa fa fa fa fa fa fa fa fa fa\n  0x3ea60130: fa fa fa fa fa fa fa fa fa fa fa fa fa fa fa fa\nShadow byte legend (one shadow byte represents 8 application bytes):\n  Addressable:           00\n  Partially addressable: 01 02 03 04 05 06 07 \n  Heap left redzone:       fa\n  Freed heap region:       fd\n  Stack left redzone:      f1\n  Stack mid redzone:       f2\n  Stack right redzone:     f3\n  Stack after return:      f5\n  Stack use after scope:   f8\n  Global redzone:          f9\n  Global init order:       f6\n  Poisoned by user:        f7\n  Container overflow:      fc\n  Array cookie:            ac\n  Intra object redzone:    bb\n  ASan internal:           fe\n  Left alloca redzone:     ca\n  Right alloca redzone:    cb\n==24412==ABORTING\n'
p109
sS'cause'
p110
S'Heap BoF'
p111
sg17
S'intercept0.1420_0.1420_0.asan.verified'
p112
s.