(dp0
S'parentFilename'
p1
S'intercept171.pickle'
p2
sS'time'
p3
NsS'filename'
p4
S'intercept171.1675_0.pickle'
p5
sS'seed'
p6
S'16755168668243515600'
p7
sS'fuzzer'
p8
S'Radamsa'
p9
sS'networkData'
p10
(lp11
(dp12
S'latency'
p13
NsS'from'
p14
S'cli'
p15
sS'index'
p16
I0
sS'timeouts'
p17
I0
sS'isFuzzed'
p18
I01
sS'data'
p19
S'\x10-\x00\x04MQTT\x04\x06\x00<\x00\x11will-invalid-utf8\x00\x0cinvalid\x00utf8\x00\x00'
p20
sas.