(dp0
S'parentFilename'
p1
NsS'time'
p2
NsS'filename'
p3
S'intercept13.pickle'
p4
sS'seed'
p5
NsS'fuzzer'
p6
NsS'networkData'
p7
(lp8
(dp9
S'timeouts'
p10
I0
sS'data'
p11
S'\x10 \x00\x04MQTT\x04\x02\x00<\x00\x14connect\x00invalid-utf8'
p12
sS'from'
p13
S'cli'
p14
sS'latency'
p15
NsS'index'
p16
I0
sas.