(dp0
S'parentFilename'
p1
S'intercept124.4139_2.pickle'
p2
sS'time'
p3
NsS'filename'
p4
S'intercept124.4139_2.4487_0.pickle'
p5
sS'seed'
p6
S'4487274955253722116'
p7
sS'fuzzer'
p8
S'Radamsa'
p9
sS'networkData'
p10
(lp11
(dp12
S'latency'
p13
NsS'from'
p14
S'cli'
p15
sS'index'
p16
I0
sS'timeouts'
p17
I0
sS'isFuzzed'
p18
I01
sS'data'
p19
S'\x10\x17\x00\x04MQTT\x04\x02\x00<\x00\x0btess-helper'
p20
sa(dp21
g17
I0
sg19
S' \x02\x00\x00'
p22
sg14
S'srv'
p23
sg13
F0.00019221484790910015
sg16
I1
sa(dp24
g13
Nsg14
g15
sg16
I2
sg17
I0
sS'isFuzzed'
p25
I01
sg19
S'--18446744073709551743\x11\x00\x08foo//bazmesage'
p26
sas.