(dp0
S'parentFilename'
p1
S'intercept92.pickle'
p2
sS'time'
p3
NsS'filename'
p4
S'intercept92.1374_0.pickle'
p5
sS'seed'
p6
S'1374348499004829706'
p7
sS'fuzzer'
p8
S'Radamsa'
p9
sS'networkData'
p10
(lp11
(dp12
S'latency'
p13
NsS'from'
p14
S'cli'
p15
sS'index'
p16
I0
sS'timeouts'
p17
I0
sS'isFuzzed'
p18
I01
sS'data'
p19
S'\x10\x1c\x00\x04MQTT\x04\x02\x00<\x00\x10\x1c\x00\x04MQTT\x04\x02\x00<\x00\x10pat\xf3\xa0\x81\x95-sub-testes\xf3\xa0\x81\xa0t'
p20
sa(dp21
g17
I0
sg19
S' \x02\x00\x00'
p22
sg14
S'srv'
p23
sg13
F8.940696716308594e-05
sg16
I1
sa(dp24
g17
I0
sg19
S'\x82\x12\x018\x00\rfoo/foo/baz/#\x00'
p25
sg14
g15
sg13
Nsg16
I2
sa(dp26
g17
I0
sg19
S'\x90\x03\x018\x00'
p27
sg14
g23
sg13
F5.5789947509765625e-05
sg16
I3
sa(dp28
g17
I0
sg19
S'0\x18\x00\x0ffoo/foo/baz/barmessage'
p29
sg14
g23
sg13
F0.041543662548065186
sg16
I4
sa(dp30
g17
I0
sg19
S'\xa2\x11\x00\xea\x00\rfoo/foo/baz/#'
p31
sg14
g15
sg13
Nsg16
I5
sa(dp32
g17
I0
sg19
S'\xb0\x02\x00\xea'
p33
sg14
g23
sg13
F5.644559860229492e-05
sg16
I6
sa(dp34
g17
I0
sg19
S'\x82\x12\x018\x00\rfoo/foo/baz/#\x00'
p35
sg14
g15
sg13
Nsg16
I7
sa(dp36
g17
I0
sg19
S'\x90\x03\x018\x00'
p37
sg14
g23
sg13
F9.453296661376953e-05
sg16
I8
sa(dp38
g17
I0
sg19
S'1\x18\x00\x0ffoo/foo/baz/barmessage'
p39
sg14
g23
sg13
F0.04365742206573486
sg16
I9
sas.