(dp0
S'parentFilename'
p1
S'intercept107.1658_5.1146_5.1706_5.pickle'
p2
sS'time'
p3
NsS'filename'
p4
S'intercept107.1658_5.1146_5.1706_5.5164_0.pickle'
p5
sS'seed'
p6
S'5164863169865510314'
p7
sS'fuzzer'
p8
S'Radamsa'
p9
sS'networkData'
p10
(lp11
(dp12
S'latency'
p13
NsS'from'
p14
S'cli'
p15
sS'index'
p16
I0
sS'timeouts'
p17
I0
sS'isFuzzed'
p18
I01
sS'data'
p19
S'\x10\x1c@\x04MQTT\x04\x02\x00<\x00\x10pattern-sub-test'
p20
sa(dp21
g17
I0
sg19
S' \x02\x00\x00'
p22
sg14
S'srv'
p23
sg13
F0.00010018981993198395
sg16
I1
sa(dp24
g17
I0
sg19
S'\x82\x1d\x018\x00\x18+/+/+/+/+/+/+/+/+/+/test\x00'
p25
sg14
g15
sg13
Nsg16
I2
sa(dp26
g17
I0
sg19
S'\x90\x03\x018\x00'
p27
sg14
g23
sg13
F9.275972843170166e-05
sg16
I3
sa(dp28
g17
I0
sg19
S'0>\x005one/two/three/four/five/six/seven/eight/nine/ten/testmessage'
p29
sg14
g23
sg13
F0.043923646211624146
sg16
I4
sa(dp30
g13
Nsg14
g15
sg16
I5
sg17
I0
sS'isFuzzed'
p31
I01
sg19
S'\xa2\xe2\xa9\x1c\x00\xea\xb9\x18+/+/\xf3\xa0\x80\xe1\xa1\x8e\xbc\xbc\xbc+\xe2\x80\xa8/+/+/+/+/tete\x89ssss|||t'
p32
sa(dp33
g17
I0
sg19
S'\xb0\x02\x00\xea'
p34
sg14
g23
sg13
Nsg16
I6
sa(dp35
g17
I0
sg19
S'\x82\x1d\x018\x00\x18+/+/+/+/+/+/+/+/+/+/test\x00'
p36
sg14
g15
sg13
Nsg16
I7
sa(dp37
g17
I0
sg19
S'\x90\x03\x018\x00'
p38
sg14
g23
sg13
Nsg16
I8
sa(dp39
g17
I0
sg19
S'1>\x005one/two/three/four/five/six/seven/eight/nine/ten/testmessage'
p40
sg14
g23
sg13
Nsg16
I9
sas.