(dp0
S'parentFilename'
p1
S'intercept160.pickle'
p2
sS'time'
p3
NsS'filename'
p4
S'intercept160.1504_2.pickle'
p5
sS'seed'
p6
S'15041926219655461617'
p7
sS'fuzzer'
p8
S'Radamsa'
p9
sS'networkData'
p10
(lp11
(dp12
S'timeouts'
p13
I0
sS'data'
p14
S'\x10!\x00\x04MQTT\x04\x02\x00<\x00\x15bridge-reconnect-test'
p15
sS'from'
p16
S'cli'
p17
sS'latency'
p18
NsS'index'
p19
I0
sa(dp20
g13
I0
sg14
S' \x02\x00\x00'
p21
sg16
S'srv'
p22
sg18
F0.0001234038719371
sg19
I1
sa(dp23
g18
Nsg16
g17
sg19
I2
sg13
I0
sS'isFuzzed'
p24
I01
sg14
S'\r\x82\x02\x04\xef\xbb\xf3\xa0\x81\xb0\xbf\xf3\xcb\xce\x90\x91\xca\xb7\xa7\xa0\x81\xb4\x00\x08bridge/\xa7\xb4\x00\x08bridge/\xf3\xb0\x81\xa7\x95\xb4\x00\x08bridge/#\x00'
p25
sa(dp26
g13
I0
sg14
S'\x90\x03\x00\xb4\x00'
p27
sg16
g22
sg18
F3.6616751458495855e-05
sg19
I3
sa(dp28
g13
I0
sg14
S'\x82\r\x00\xb4\x00\x08bridge/#\x00'
p29
sg16
g17
sg18
Nsg19
I4
sa(dp30
g13
I0
sg14
S'\x90\x03\x00\xb4\x00'
p31
sg16
g22
sg18
F3.784475848078728e-05
sg19
I5
sa(dp32
g13
I1
sg14
S'0*\x00\x10bridge/reconnectbridge-reconnect-message'
p33
sg16
g22
sg18
F0.04381299018859863
sg19
I6
sas.