(dp0
S'parentFilename'
p1
S'intercept56.3522_4.pickle'
p2
sS'time'
p3
NsS'filename'
p4
S'intercept56.3522_4.3777_6.pickle'
p5
sS'seed'
p6
S'3777592834301080000'
p7
sS'fuzzer'
p8
S'Radamsa'
p9
sS'networkData'
p10
(lp11
(dp12
S'timeouts'
p13
I0
sS'data'
p14
S'\x10\x19\x00\x04MQTT\x04\x02\x00<\x00\rsubhier-crash'
p15
sS'from'
p16
S'cli'
p17
sS'latency'
p18
NsS'index'
p19
I0
sa(dp20
g13
I0
sg14
S' \x02\x00\x00'
p21
sg16
S'srv'
p22
sg18
F2.09808349609375e-05
sg19
I1
sa(dp23
g13
I0
sg14
S'\x82\x0c\x00\x01\x00\x07topic/a\x00'
p24
sg16
g17
sg18
Nsg19
I2
sa(dp25
g13
I0
sg14
S'\x90\x03\x00\x01\x00'
p26
sg16
g22
sg18
F1.1920928955078125e-05
sg19
I3
sa(dp27
g18
Nsg16
g17
sg19
I4
sg13
I0
sS'isFuzzed'
p28
I01
sg14
S'\x07topic/\xca\xb3b\x00'
p29
sa(dp30
g13
I0
sg14
S'\x90\x03\x00\x02\x00'
p31
sg16
g22
sg18
Nsg19
I5
sa(dp32
g18
Nsg16
g17
sg19
I6
sg13
I0
sS'isFuzzed'
p33
I01
sg14
S'\xa2\x0b\x00\x03\x00\x07topic/a'
p34
sa(dp35
g13
I0
sg14
S'\xb0\x02\x00\x03'
p36
sg16
g22
sg18
Nsg19
I7
sa(dp37
g13
I0
sg14
S'\xe0\x00'
p38
sg16
g17
sg18
Nsg19
I8
sas.