(dp0
S'parentFilename'
p1
S'intercept35.pickle'
p2
sS'time'
p3
NsS'filename'
p4
S'intercept35.1418_2.pickle'
p5
sS'seed'
p6
S'14186129800623230125'
p7
sS'fuzzer'
p8
S'Radamsa'
p9
sS'networkData'
p10
(lp11
(dp12
S'timeouts'
p13
I0
sS'data'
p14
S'\x10\x1c\x00\x04MQTT\x04\x02\x00<\x00\x10subpub-qos0-test'
p15
sS'from'
p16
S'cli'
p17
sS'latency'
p18
NsS'index'
p19
I0
sa(dp20
g13
I0
sg14
S' \x02\x00\x00'
p21
sg16
S'srv'
p22
sg18
F7.988326251506805e-05
sg19
I1
sa(dp23
g18
Nsg16
g17
sg19
I2
sg13
I0
sS'isFuzzed'
p24
I01
sg14
S'\x82\x10\x000\x00\x0bsPb/\xe2\x80\xaf\xe2:\xaeqos0\x00'
p25
sa(dp26
g13
I0
sg14
S'\x90\x03\x005\x00'
p27
sg16
g22
sg18
F3.664195537567139e-05
sg19
I3
sa(dp28
g13
I0
sg14
S'0\x14\x00\x0bsubpub/qos0message'
p29
sg16
g17
sg18
Nsg19
I4
sa(dp30
g13
I0
sg14
S'0\x14\x00\x0bsubpub/qos0message'
p31
sg16
g22
sg18
F6.777048110961914e-05
sg19
I5
sas.