(dp0
S'parentFilename'
p1
S'intercept69.1135_0.pickle'
p2
sS'time'
p3
NsS'filename'
p4
S'intercept69.1135_0.1236_0.pickle'
p5
sS'seed'
p6
S'1236397410209005893'
p7
sS'fuzzer'
p8
S'Radamsa'
p9
sS'networkData'
p10
(lp11
(dp12
S'latency'
p13
NsS'from'
p14
S'cli'
p15
sS'index'
p16
I0
sS'timeouts'
p17
I0
sS'isFuzzed'
p18
I01
sS'data'
p19
S'\x10!\x00\x06MQIsdp\x03\x00\x00<\x00\x13pub-qos-257-\xef\xa3\xbfdjsco-\xf4\x8f\xbf\xbetest'
p20
sa(dp21
g17
I0
sg14
S'srv'
p22
sg19
S' \x02\x00\x00'
p23
sg16
I1
sg13
F8.153915405273438e-05
sa(dp24
g17
I0
sg14
g15
sg19
S'j\x02\x00\x01'
p25
sg16
I2
sg13
Nsa(dp26
g17
I0
sg14
g22
sg19
S'p\x02\x00\x01'
p27
sg16
I3
sg13
F4.100799560546875e-05
sas.