(dp0
S'parentFilename'
p1
S'intercept11.1549_0.9659_0.pickle'
p2
sS'time'
p3
NsS'filename'
p4
S'intercept11.1549_0.9659_0.1668_0.pickle'
p5
sS'seed'
p6
S'16680338011021761900'
p7
sS'fuzzer'
p8
S'Radamsa'
p9
sS'networkData'
p10
(lp11
(dp12
S'latency'
p13
NsS'from'
p14
S'cli'
p15
sS'index'
p16
I0
sS'timeouts'
p17
I0
sS'isFuzzed'
p18
I01
sS'data'
p19
S'l\x10tn\x00 Mv\x04Qi-aj\x10 \x00\x04MQt-hnvaljaljd-te-sttaljd-te-stte-tt-hnvaljaljdstte-te-stte-tte-te-stte-tt-'
p20
sas.