(dp0
S'parentFilename'
p1
S'intercept171.1109_0.pickle'
p2
sS'time'
p3
NsS'filename'
p4
S'intercept171.1109_0.5044_0.pickle'
p5
sS'seed'
p6
S'5044297683779912944'
p7
sS'fuzzer'
p8
S'Radamsa'
p9
sS'networkData'
p10
(lp11
(dp12
S'latency'
p13
NsS'from'
p14
S'cli'
p15
sS'index'
p16
I0
sS'timeouts'
p17
I0
sS'isFuzzed'
p18
I01
sS'data'
p19
S'\xf386239611198529961024\xe0\xbf\xad1669150516\x00\x0cin\xf386239611198529961024\xe0\xbf\xad1669150516\x00\x0cinva\x00'
p20
sas.