(dp0
S'parentFilename'
p1
S'intercept156.5911_0.1397_0.pickle'
p2
sS'time'
p3
NsS'filename'
p4
S'intercept156.5911_0.1397_0.3532_2.pickle'
p5
sS'seed'
p6
S'3532130005502605165'
p7
sS'fuzzer'
p8
S'Radamsa'
p9
sS'networkData'
p10
(lp11
(dp12
S'latency'
p13
NsS'from'
p14
S'cli'
p15
sS'index'
p16
I0
sS'timeouts'
p17
I0
sS'isFuzzed'
p18
I01
sS'data'
p19
S'\x10\x17\x00\x04\x0btMQT\x84\x04t\xf3\xa0\x80\xae\x00\xc0T\x04s\xd5<\x02e\x00\x00\x00<t\xbehelper'
p20
sa(dp21
g17
I0
sg14
S'srv'
p22
sg19
S' \x02\x00\x00'
p23
sg16
I1
sg13
Nsa(dp24
g16
I2
sg14
g15
sg13
Nsg17
I0
sS'isFuzzed'
p25
I01
sg19
S'-2\x00\x17qos32767/clean_session/test\x00\x80clean-session-m\xf3\xa0\x81\x99essage'
p26
sa(dp27
g17
I0
sg14
g22
sg19
S'@\x02\x00\x80'
p28
sg16
I3
sg13
Nsas.