(dp0
S'parentFilename'
p1
S'intercept159.pickle'
p2
sS'time'
p3
NsS'filename'
p4
S'intercept159.1220_0.pickle'
p5
sS'seed'
p6
S'12207651541678242125'
p7
sS'fuzzer'
p8
S'Radamsa'
p9
sS'networkData'
p10
(lp11
(dp12
S'latency'
p13
NsS'from'
p14
S'cli'
p15
sS'index'
p16
I0
sS'timeouts'
p17
I0
sS'isFuzzed'
p18
I01
sS'data'
p19
S'\x10R\x00\x04MQTT\x84,\x00<\x00\x12kali.bridge_sample\x00/$SYS/broker/connection/kali.bridge_sample/state\x00\x012915943'
p20
sa(dp21
g17
I0
sg19
S' \x02\x00\x00'
p22
sg14
S'srv'
p23
sg13
F0.00018405914306640625
sg16
I1
sa(dp24
g17
I0
sg19
S'34\x00/$SYS/broker/connection/kali.bridge_sample/state\x00\x011'
p25
sg14
g15
sg13
Nsg16
I2
sa(dp26
g17
I0
sg19
S'@\x02\x00\x01'
p27
sg14
g23
sg13
F0.00015497207641601562
sg16
I3
sa(dp28
g17
I0
sg19
S'\xa2\x0c\x00\x02\x00\x08bridge/#'
p29
sg14
g15
sg13
Nsg16
I4
sa(dp30
g17
I0
sg19
S'\xb0\x02\x00\x02'
p31
sg14
g23
sg13
F0.0001239776611328125
sg16
I5
sas.