(dp0
S'parentFilename'
p1
S'intercept80.1394_7.8061_7.7802_5.pickle'
p2
sS'time'
p3
NsS'filename'
p4
S'intercept80.1394_7.8061_7.7802_5.1472_5.pickle'
p5
sS'seed'
p6
S'14724822082395352770'
p7
sS'fuzzer'
p8
S'Radamsa'
p9
sS'networkData'
p10
(lp11
(dp12
S'timeouts'
p13
I0
sS'data'
p14
S'\x10\x1c\x00\x04MQTT\x04\x02\x00<\x00\x10pattern-sub-test'
p15
sS'from'
p16
S'cli'
p17
sS'latency'
p18
NsS'index'
p19
I0
sa(dp20
g13
I0
sg14
S' \x02\x00\x00'
p21
sg16
S'srv'
p22
sg18
F4.696846008300781e-05
sg19
I1
sa(dp23
g13
I0
sg14
S'\x82\n\x018\x00\x05foo/#\x00'
p24
sg16
g17
sg18
Nsg19
I2
sa(dp25
g13
I0
sg14
S'\x90\x03\x018\x00'
p26
sg16
g22
sg18
F3.886222839355469e-05
sg19
I3
sa(dp27
g13
I0
sg14
S'0\x14\x00\x0bfoo/bar/bazmessage'
p28
sg16
g22
sg18
F0.03993391990661621
sg19
I4
sa(dp29
g19
I5
sg16
g17
sg18
Nsg13
I0
sS'isFuzzed'
p30
I01
sg14
S'\xa2\t\x00\x00\x00\xea\xc0\x80\xc0\x85\xc0\x80!\xc0\x86%'
p31
sa(dp32
g13
I0
sg14
S'\xb0\x02\x00\xea'
p33
sg16
g22
sg18
Nsg19
I6
sa(dp34
g18
Nsg16
g17
sg19
I7
sg13
I0
sS'isFuzzed'
p35
I01
sg14
S'\x82\n\x012147483648\x00\x05foo3'
p36
sa(dp37
g13
I0
sg14
S'\x90\x03\x018\x00'
p38
sg16
g22
sg18
Nsg19
I8
sa(dp39
g13
I0
sg14
S'1\x14\x00\x0bfoo/bar/bazmessage'
p40
sg16
g22
sg18
Nsg19
I9
sas.