(dp0
S'parentFilename'
p1
S'intercept11.pickle'
p2
sS'time'
p3
NsS'filename'
p4
S'intercept11.1180_0.pickle'
p5
sS'seed'
p6
S'11801935005726771193'
p7
sS'fuzzer'
p8
S'Radamsa'
p9
sS'networkData'
p10
(lp11
(dp12
S'latency'
p13
NsS'from'
p14
S'cli'
p15
sS'index'
p16
I0
sS'timeouts'
p17
I0
sS'isFuzzed'
p18
I01
sS'data'
p19
S'\x10 \x00\x04MQTT\x04\x03\x00\n\x00\x14connect-id-test'
p20
sas.