(dp0
S'parentFilename'
p1
S'intercept51.7690_2.pickle'
p2
sS'time'
p3
NsS'filename'
p4
S'intercept51.7690_2.1477_2.pickle'
p5
sS'seed'
p6
S'14773281851597374357'
p7
sS'fuzzer'
p8
S'Radamsa'
p9
sS'networkData'
p10
(lp11
(dp12
S'timeouts'
p13
I0
sS'from'
p14
S'cli'
p15
sS'data'
p16
S'\x10\x19\x00\x04MQTT\x04\x00\x00<\x00\rflipflop-test'
p17
sS'index'
p18
I0
sS'latency'
p19
Nsa(dp20
g13
I0
sg14
S'srv'
p21
sg16
S' \x02\x00\x00'
p22
sg18
I1
sg19
F0.00014070520410314202
sa(dp23
g19
Nsg14
g15
sg18
I2
sg13
I0
sS'isFuzzed'
p24
I01
sg16
S'\x82\x12\x00\x01\x00\rflipflo-7pV/test\x01'
p25
sa(dp26
g13
I0
sg14
g21
sg16
S'\x90\x03\x00\x01\x01'
p27
sg18
I3
sg19
F3.457069396972656e-05
sas.