(dp0
S'parentFilename'
p1
NsS'time'
p2
NsS'filename'
p3
S'intercept151.pickle'
p4
sS'seed'
p5
NsS'fuzzer'
p6
NsS'networkData'
p7
(lp8
(dp9
S'timeouts'
p10
I0
sS'data'
p11
S'\x10\x1d\x00\x04MQTT\x04\x02\x00<\x00\x11retain-clear-test'
p12
sS'from'
p13
S'cli'
p14
sS'latency'
p15
NsS'index'
p16
I0
sa(dp17
g10
I0
sg11
S' \x02\x00\x00'
p18
sg13
S'srv'
p19
sg15
Nsg16
I1
sa(dp20
g10
I0
sg11
S'1#\x00\x11retain/clear/testretained message'
p21
sg13
g14
sg15
Nsg16
I2
sa(dp22
g10
I0
sg11
S'\x82\x16\x02P\x00\x11retain/clear/test\x00'
p23
sg13
g14
sg15
Nsg16
I3
sa(dp24
g10
I0
sg11
S'\x90\x03\x02P\x00'
p25
sg13
g19
sg15
Nsg16
I4
sa(dp26
g10
I0
sg11
S'1#\x00\x11retain/clear/testretained message'
p27
sg13
g19
sg15
Nsg16
I5
sa(dp28
g10
I0
sg11
S'\xa2\x15\x02Q\x00\x11retain/clear/test'
p29
sg13
g14
sg15
Nsg16
I6
sa(dp30
g10
I0
sg11
S'\xb0\x02\x02Q'
p31
sg13
g19
sg15
Nsg16
I7
sa(dp32
g10
I0
sg11
S'1\x13\x00\x11retain/clear/test'
p33
sg13
g14
sg15
Nsg16
I8
sa(dp34
g10
I0
sg11
S'\x82\x16\x02P\x00\x11retain/clear/test\x00'
p35
sg13
g14
sg15
Nsg16
I9
sa(dp36
g10
I0
sg11
S'\x90\x03\x02P\x00'
p37
sg13
g19
sg15
Nsg16
I10
sas.