(dp0
S'parentFilename'
p1
S'intercept185.5194_0.5048_0.pickle'
p2
sS'time'
p3
NsS'filename'
p4
S'intercept185.5194_0.5048_0.1569_0.pickle'
p5
sS'seed'
p6
S'15693486665498342548'
p7
sS'fuzzer'
p8
S'Radamsa'
p9
sS'networkData'
p10
(lp11
(dp12
S'latency'
p13
NsS'from'
p14
S'cli'
p15
sS'index'
p16
I0
sS'timeouts'
p17
I0
sS'isFuzzed'
p18
I01
sS'data'
p19
S'\x102\x00\x04MQTT\x04\xc2\x00\n\x00\x16connect-uname-pwd-test\x00\rtest-username\x00\x05wrong'
p20
sa(dp21
g17
I0
sg19
S' \x02\x00\x00'
p22
sg14
S'srv'
p23
sg13
F0.0001659393310546875
sg16
I1
sas.