(dp0
S'parentFilename'
p1
S'intercept122.pickle'
p2
sS'time'
p3
NsS'filename'
p4
S'intercept122.1304_7.pickle'
p5
sS'seed'
p6
S'13048715079784848719'
p7
sS'fuzzer'
p8
S'Radamsa'
p9
sS'networkData'
p10
(lp11
(dp12
S'timeouts'
p13
I0
sS'data'
p14
S'\x10\x1c\x00\x04MQTT\x04\x02\x00<\x00\x10pattern-sub-test'
p15
sS'from'
p16
S'cli'
p17
sS'latency'
p18
NsS'index'
p19
I0
sa(dp20
g13
I0
sg14
S' \x02\x00\x00'
p21
sg16
S'srv'
p22
sg18
F6.715115159749985e-05
sg19
I1
sa(dp23
g13
I0
sg14
S'\x82\x10\x018\x00\x0bfoo/+/baz//\x00'
p24
sg16
g17
sg18
Nsg19
I2
sa(dp25
g13
I0
sg14
S'\x90\x03\x018\x00'
p26
sg16
g22
sg18
F0.0001564621925354004
sg19
I3
sa(dp27
g13
I1
sg14
S'0\x13\x00\nfoo//baz//message'
p28
sg16
g22
sg18
F0.042571887373924255
sg19
I4
sa(dp29
g13
I0
sg14
S'\xa2\x0f\x00\xea\x00\x0bfoo/+/baz//'
p30
sg16
g17
sg18
Nsg19
I5
sa(dp31
g13
I0
sg14
S'\xb0\x02\x00\xea'
p32
sg16
g22
sg18
F5.829334259033203e-05
sg19
I6
sa(dp33
g18
Nsg16
g17
sg19
I7
sg13
I0
sS'isFuzzed'
p34
I01
sg14
S'\x82\x10\x01340282366920938463463374607431768211455\x00\x0bfoo/+/baz//\x00'
p35
sa(dp36
g13
I0
sg14
S'\x90\x03\x018\x00'
p37
sg16
g22
sg18
F3.0040740966796875e-05
sg19
I8
sa(dp38
g13
I0
sg14
S'1\x13\x00\nfoo//baz//message'
p39
sg16
g22
sg18
F0.044045209884643555
sg19
I9
sas.