(dp0
S'parentFilename'
p1
S'intercept145.pickle'
p2
sS'time'
p3
NsS'filename'
p4
S'intercept145.1752_4.pickle'
p5
sS'seed'
p6
S'1752938925510104552'
p7
sS'fuzzer'
p8
S'Radamsa'
p9
sS'networkData'
p10
(lp11
(dp12
S'timeouts'
p13
I0
sS'data'
p14
S'\x10"\x00\x04MQTT\x04\x02\x00<\x00\x16retain-qos0-fresh-test'
p15
sS'from'
p16
S'cli'
p17
sS'latency'
p18
NsS'index'
p19
I0
sa(dp20
g13
I0
sg14
S' \x02\x00\x00'
p21
sg16
S'srv'
p22
sg18
F0.00022292137145996094
sg19
I1
sa(dp23
g13
I0
sg14
S'\x82\x15\x00\x10\x00\x10retain/qos0/test\x00'
p24
sg16
g17
sg18
Nsg19
I2
sa(dp25
g13
I0
sg14
S'\x90\x03\x00\x10\x00'
p26
sg16
g22
sg18
F0.000186920166015625
sg19
I3
sa(dp27
g18
Nsg16
g17
sg19
I4
sg13
I0
sS'isFuzzed'
p28
I01
sg14
S'2"\x00\x10retain/qos0/testreta\xe2\x81\xa5ined message'
p29
sa(dp30
g13
I0
sg14
S'1"\x00\x10retain/qos0/testretained message'
p31
sg16
g22
sg18
F2.9087066650390625e-05
sg19
I5
sas.