(dp0
S'parentFilename'
p1
S'intercept64.pickle'
p2
sS'time'
p3
NsS'filename'
p4
S'intercept64.1551_5.pickle'
p5
sS'seed'
p6
S'15513399615353335938'
p7
sS'fuzzer'
p8
S'Radamsa'
p9
sS'networkData'
p10
(lp11
(dp12
S'timeouts'
p13
I0
sS'data'
p14
S'\x10\x1f\x00\x04MQTT\x04\x00\x00<\x00\x13pub-qos1-disco-test'
p15
sS'from'
p16
S'cli'
p17
sS'latency'
p18
NsS'index'
p19
I0
sa(dp20
g13
I0
sg14
S' \x02\x00\x00'
p21
sg16
S'srv'
p22
sg18
F0.00029753660783171654
sg19
I1
sa(dp23
g13
I0
sg14
S'\x82\x19\x0c\xc1\x00\x14qos1/disconnect/test\x01'
p24
sg16
g17
sg18
Nsg19
I2
sa(dp25
g13
I0
sg14
S'\x90\x03\x0c\xc1\x01'
p26
sg16
g22
sg18
F7.097329944372177e-05
sg19
I3
sa(dp27
g13
I8
sg14
S'2*\x00\x14qos1/disconnect/test\x00\x01disconnect-message'
p28
sg16
g22
sg18
Nsg19
I4
sa(dp29
g18
Nsg16
g17
sg19
I5
sg13
I0
sS'isFuzzed'
p30
I01
sg14
S'1!\x00\rqos1/outgoing\x0c\xc2outgoing\x0c\xc2outgoing-\rqoing-me\xc2outgoing-age'
p31
sas.