(dp0
S'parentFilename'
p1
S'intercept155.pickle'
p2
sS'time'
p3
NsS'filename'
p4
S'intercept155.1744_4.pickle'
p5
sS'seed'
p6
S'17441423031407966721'
p7
sS'fuzzer'
p8
S'Radamsa'
p9
sS'networkData'
p10
(lp11
(dp12
S'timeouts'
p13
I0
sS'data'
p14
S'\x10\x1b\x00\x04MQTT\x04\x00\x00<\x00\x0fclean-qos2-test'
p15
sS'from'
p16
S'cli'
p17
sS'latency'
p18
NsS'index'
p19
I0
sa(dp20
g13
I0
sg14
S' \x02\x00\x00'
p21
sg16
S'srv'
p22
sg18
F0.0011658668518066406
sg19
I1
sa(dp23
g13
I0
sg14
S'\x82\x1c\x00m\x00\x17qos1/clean_session/test\x01'
p24
sg16
g17
sg18
Nsg19
I2
sa(dp25
g13
I0
sg14
S'\x90\x03\x00m\x01'
p26
sg16
g22
sg18
Nsg19
I3
sa(dp27
g18
Nsg16
g17
sg19
I4
sg13
I0
sS'isFuzzed'
p28
I01
sg14
S'\xe0'
p29
sas.