(dp0
S'parentFilename'
p1
S'intercept45.4480_2.pickle'
p2
sS'time'
p3
NsS'filename'
p4
S'intercept45.4480_2.5656_0.pickle'
p5
sS'seed'
p6
S'5656931453956946320'
p7
sS'fuzzer'
p8
S'Radamsa'
p9
sS'networkData'
p10
(lp11
(dp12
S'latency'
p13
NsS'from'
p14
S'cli'
p15
sS'index'
p16
I0
sS'timeouts'
p17
I0
sS'isFuzzed'
p18
I01
sS'data'
p19
S'\x10!\x00be-qos3-test'
p20
sa(dp21
g17
I0
sg19
S' \x02\x00\x00'
p22
sg14
S'srv'
p23
sg13
F0.0001474618911743164
sg16
I1
sa(dp24
g13
Nsg14
g15
sg16
I2
sg17
I0
sS'isFuzzed'
p25
I01
sg19
S'\xa2\r\x00\x03\x00\tqos528508275149944\xf3\xa0\x81\x84083856/te\xf3\xa0\x80\xbcst'
p26
sa(dp27
g17
I0
sg19
S'\xb0\x02\x00\x03'
p28
sg14
g23
sg13
F4.00543212890625e-05
sg16
I3
sas.