(dp0
S'parentFilename'
p1
S'intercept23.9999_0.pickle'
p2
sS'time'
p3
NsS'filename'
p4
S'intercept23.9999_0.5008_0.pickle'
p5
sS'seed'
p6
S'5008518223762162905'
p7
sS'fuzzer'
p8
S'Radamsa'
p9
sS'networkData'
p10
(lp11
(dp12
S'latency'
p13
NsS'from'
p14
S'cli'
p15
sS'index'
p16
I0
sS'timeouts'
p17
I0
sS'isFuzzed'
p18
I01
sS'data'
p19
S'\xe2\x80\xa9\xcf$\x00\x04MT\xf3\xa0\x81\xbfT\x04\x00\xf3\xa0\x86\x00\x12co\xf3\xa0\x81\xbe\xabnect-fname-tEst\x00\x04u\xf3\xa0\xa0\xb6se\xe2\x81\xa8r'
p20
sas.