(dp0
S'parentFilename'
p1
S'intercept80.2675_7.1432_7.pickle'
p2
sS'time'
p3
NsS'filename'
p4
S'intercept80.2675_7.1432_7.1543_0.pickle'
p5
sS'seed'
p6
S'15438934163992111015'
p7
sS'fuzzer'
p8
S'Radamsa'
p9
sS'networkData'
p10
(lp11
(dp12
S'index'
p13
I0
sS'from'
p14
S'cli'
p15
sS'latency'
p16
NsS'timeouts'
p17
I0
sS'isFuzzed'
p18
I01
sS'data'
p19
S'\x10\x1c\x00\x04MQTS\x04\x02\x00<\x00\x10pattern-sub-test'
p20
sa(dp21
g17
I0
sg14
S'srv'
p22
sg19
S' \x02\x00\x00'
p23
sg13
I1
sg16
F7.420778274536133e-05
sa(dp24
g17
I0
sg14
g15
sg19
S'\x82\n\x018\x00\x05foo/#\x00'
p25
sg13
I2
sg16
Nsa(dp26
g17
I0
sg14
g22
sg19
S'\x90\x03\x018\x00'
p27
sg13
I3
sg16
F7.128715515136719e-05
sa(dp28
g17
I0
sg14
g22
sg19
S'0\x14\x00\x0bfoo/bar/bazmessage'
p29
sg13
I4
sg16
F0.042169272899627686
sa(dp30
g17
I0
sg14
g15
sg19
S'\xa2\t\x00\xea\x00\x05foo/#'
p31
sg13
I5
sg16
Nsa(dp32
g17
I0
sg14
g22
sg19
S'\xb0\x02\x00\xea'
p33
sg13
I6
sg16
Nsa(dp34
g16
Nsg14
g15
sg13
I7
sg17
I0
sS'isFuzzed'
p35
I01
sg19
S'os#\x00/\xbc\xed#\x00'
p36
sa(dp37
g17
I0
sg14
g22
sg19
S'\x90\x03\x018\x00'
p38
sg13
I8
sg16
Nsa(dp39
g17
I0
sg14
g22
sg19
S'1\x14\x00\x0bfoo/bar/bazmessage'
p40
sg13
I9
sg16
Nsas.