(dp0
S'parentFilename'
p1
S'intercept125.pickle'
p2
sS'time'
p3
NsS'filename'
p4
S'intercept125.1795_0.pickle'
p5
sS'seed'
p6
S'17959083641196867737'
p7
sS'fuzzer'
p8
S'Radamsa'
p9
sS'networkData'
p10
(lp11
(dp12
S'latency'
p13
NsS'from'
p14
S'cli'
p15
sS'index'
p16
I0
sS'timeouts'
p17
I0
sS'isFuzzed'
p18
I01
sS'data'
p19
S'\x10\x1c\x00\x04MQTT\x04\x02\x00<\x00\x10pattern-sub-test'
p20
sa(dp21
g17
I0
sg19
S' \x02\x00\x00'
p22
sg14
S'srv'
p23
sg13
F0.000102996826171875
sg16
I1
sa(dp24
g17
I0
sg19
S'\x82\x10\x018\x00\x0bfoo/+/baz/#\x00'
p25
sg14
g15
sg13
Nsg16
I2
sa(dp26
g17
I0
sg19
S'\x90\x03\x018\x00'
p27
sg14
g23
sg13
F7.200241088867188e-05
sg16
I3
sa(dp28
g17
I0
sg19
S'1\x18\x00\x0ffoo/bar/baz/barmessage1\x14\x00\x0bfoo/bar/bazmessage1\x18\x00\x0ffoo/foo/baz/barmessage1\x13\x00\nfoo//baz//message1\x11\x00\x08foo//bazmessage'
p29
sg14
g23
sg13
F0.04373884201049805
sg16
I4
sa(dp30
g17
I1
sg19
S'0\x11\x00\x08foo//bazmessage'
p31
sg14
g23
sg13
Nsg16
I5
sa(dp32
g17
I0
sg19
g31
sg14
g15
sg13
Nsg16
I6
sas.