(dp0
S'parentFilename'
p1
S'intercept160.pickle'
p2
sS'time'
p3
NsS'filename'
p4
S'intercept160.7780_0.pickle'
p5
sS'seed'
p6
S'7780175484998813366'
p7
sS'fuzzer'
p8
S'Radamsa'
p9
sS'networkData'
p10
(lp11
(dp12
S'latency'
p13
NsS'from'
p14
S'cli'
p15
sS'index'
p16
I0
sS'timeouts'
p17
I0
sS'isFuzzed'
p18
I01
sS'data'
p19
S'\x10!\x00\x04M\x89QTT\x04\x02\x00<\x00\x15bridddddddddddddddeddddddddddddddge-rnt'
p20
sa(dp21
g17
I0
sg19
S' \x02\x00\x00'
p22
sg14
S'srv'
p23
sg13
F7.03462865203619e-05
sg16
I1
sa(dp24
g17
I0
sg19
S'\x82\r\x00\xb4\x00\x08bridge/#\x00'
p25
sg14
g15
sg13
Nsg16
I2
sa(dp26
g17
I0
sg19
S'\x90\x03\x00\xb4\x00'
p27
sg14
g23
sg13
F4.612654447555542e-05
sg16
I3
sa(dp28
g17
I0
sg19
S'\x82\r\x00\xb4\x00\x08bridge/#\x00'
p29
sg14
g15
sg13
Nsg16
I4
sa(dp30
g17
I0
sg19
S'\x90\x03\x00\xb4\x00'
p31
sg14
g23
sg13
F4.500150680541992e-05
sg16
I5
sa(dp32
g17
I1
sg19
S'0*\x00\x10bridge/reconnectbridge-reconnect-message'
p33
sg14
g23
sg13
F0.04159212112426758
sg16
I6
sas.