(dp0
S'parentFilename'
p1
S'intercept54.1811_0.5321_0.3275_0.pickle'
p2
sS'time'
p3
NsS'filename'
p4
S'intercept54.1811_0.5321_0.3275_0.6759_0.pickle'
p5
sS'seed'
p6
S'6759648053371649188'
p7
sS'fuzzer'
p8
S'Radamsa'
p9
sS'networkData'
p10
(lp11
(dp12
S'latency'
p13
NsS'from'
p14
S'cli'
p15
sS'index'
p16
I0
sS'timeouts'
p17
I0
sS'isFuzzed'
p18
I01
sS'data'
p19
S'\x10\x1d\x00\x04MRTT\x04\x00\x11fli\xf0\x85\xa0pflipflop-\xe2\x80\x87test-pub'
p20
sa(dp21
g17
I0
sg14
S'srv'
p22
sg19
S' \x02\x00\x00'
p23
sg16
I1
sg13
Nsa(dp24
g17
I0
sg14
g15
sg19
S'2\x18\x00\rflipflop/test\x00\x01message'
p25
sg16
I2
sg13
Nsa(dp26
g17
I0
sg14
g22
sg19
S'@\x02\x00\x01'
p27
sg16
I3
sg13
Nsas.