(dp0
S'parentFilename'
p1
S'intercept54.1811_0.5321_0.pickle'
p2
sS'time'
p3
NsS'filename'
p4
S'intercept54.1811_0.5321_0.6408_2.pickle'
p5
sS'seed'
p6
S'6408951936412146221'
p7
sS'fuzzer'
p8
S'Radamsa'
p9
sS'networkData'
p10
(lp11
(dp12
S'latency'
p13
NsS'from'
p14
S'cli'
p15
sS'index'
p16
I0
sS'timeouts'
p17
I0
sS'isFuzzed'
p18
I01
sS'data'
p19
S'\x10\x1d\x00\x04MRTT\x04\x00\x11flipflop-test-pub'
p20
sa(dp21
g17
I0
sg19
S' \x02\x00\x00'
p22
sg14
S'srv'
p23
sg13
Nsg16
I1
sa(dp24
g13
Nsg14
g15
sg16
I2
sg17
I0
sS'isFuzzed'
p25
I01
sg19
S'65535\x18\x00\rfli\xf3\xa0\x81\x95pflop/test\x00\x01message'
p26
sa(dp27
g17
I0
sg19
S'@\x02\x00\x01'
p28
sg14
g23
sg13
Nsg16
I3
sas.