(dp0
S'parentFilename'
p1
S'intercept122.pickle'
p2
sS'time'
p3
NsS'filename'
p4
S'intercept122.1192_2.pickle'
p5
sS'seed'
p6
S'11924391070773106950'
p7
sS'fuzzer'
p8
S'Radamsa'
p9
sS'networkData'
p10
(lp11
(dp12
S'timeouts'
p13
I0
sS'data'
p14
S'\x10\x1c\x00\x04MQTT\x04\x02\x00<\x00\x10pattern-sub-test'
p15
sS'from'
p16
S'cli'
p17
sS'latency'
p18
NsS'index'
p19
I0
sa(dp20
g13
I0
sg14
S' \x02\x00\x00'
p21
sg16
S'srv'
p22
sg18
F0.0001373904069623677
sg19
I1
sa(dp23
g18
Nsg16
g17
sg19
I2
sg13
I0
sS'isFuzzed'
p24
I01
sg14
S'\x82\x10\x018\x00\x0bfoo/+/baz/foo/+/baz/foo/+/baz/foo/+/baz/foo/+/+/foo/+/baz/foo/+/baz/foo/+/baz/foo/+/baz/foo/+/baz/fooo/+/\xf3\xa0\x80\xb6ba\xb6baz//+//////////////////+/baz//////////////////////////////////////////////////////////////////////////////////////////////////////////////////////////////////////////////////////////////////////////////////////////////////////////////////////////////baz\x00'
p25
sa(dp26
g13
I0
sg14
S'\x90\x03\x018\x00'
p27
sg16
g22
sg18
F0.00010586204007267952
sg19
I3
sa(dp28
g13
I1
sg14
S'0\x13\x00\nfoo//baz//message'
p29
sg16
g22
sg18
F0.04297098971437663
sg19
I4
sa(dp30
g13
I0
sg14
S'\xa2\x0f\x00\xea\x00\x0bfoo/+/baz//'
p31
sg16
g17
sg18
Nsg19
I5
sa(dp32
g13
I0
sg14
S'\xb0\x02\x00\xea'
p33
sg16
g22
sg18
F0.00012780539691448212
sg19
I6
sa(dp34
g13
I0
sg14
S'\x82\x10\x018\x00\x0bfoo/+/baz//\x00'
p35
sg16
g17
sg18
Nsg19
I7
sa(dp36
g13
I0
sg14
S'\x90\x03\x018\x00'
p37
sg16
g22
sg18
F2.1457672119140625e-05
sg19
I8
sa(dp38
g13
I0
sg14
S'1\x13\x00\nfoo//baz//message'
p39
sg16
g22
sg18
F0.044011592864990234
sg19
I9
sas.