(dp0
S'parentFilename'
p1
S'intercept37.4128_4.8181_4.pickle'
p2
sS'time'
p3
NsS'filename'
p4
S'intercept37.4128_4.8181_4.1850_4.pickle'
p5
sS'seed'
p6
S'1850815839833944789'
p7
sS'fuzzer'
p8
S'Radamsa'
p9
sS'networkData'
p10
(lp11
(dp12
S'timeouts'
p13
I0
sS'from'
p14
S'cli'
p15
sS'data'
p16
S'\x10\x1c\x00\x04MQTT\x04\x02\x00<\x00\x10subpub-qos1-test'
p17
sS'index'
p18
I0
sS'latency'
p19
Nsa(dp20
g13
I0
sg14
S'srv'
p21
sg16
S' \x02\x00\x00'
p22
sg18
I1
sg19
F5.414709448814392e-05
sa(dp23
g13
I0
sg14
g15
sg16
S'\x82\x10\x02\x12\x00\x0bsubpub/qos1\x01'
p24
sg18
I2
sg19
Nsa(dp25
g13
I0
sg14
g21
sg16
S'\x90\x03\x02\x12\x01'
p26
sg18
I3
sg19
F2.491474151611328e-05
sa(dp27
g19
Nsg14
g15
sg18
I4
sg13
I0
sS'isFuzzed'
p28
I01
sg16
S'2\x16\x00\x0bsubpu\xf3\xa0\x81\x81b/qos-91433066948-\xca\xb642\xf3\xa0\x81\xb5948014675600626\xf0\x90\x80\x800026\x01,mes\xf3\xa0\x81\x9esage'
p29
sa(dp30
g13
I0
sg14
g21
sg16
S'@\x02\x01,'
p31
sg18
I5
sg19
F4.07099723815918e-05
sa(dp32
g13
I0
sg14
g21
sg16
S'2\x16\x00\x0bsubpub/qos1\x00\x01message'
p33
sg18
I6
sg19
Nsas.