(dp0
S'parentFilename'
p1
S'intercept147.2537_8.pickle'
p2
sS'time'
p3
NsS'filename'
p4
S'intercept147.2537_8.2709_3.pickle'
p5
sS'seed'
p6
S'2709703015319880778'
p7
sS'fuzzer'
p8
S'Radamsa'
p9
sS'networkData'
p10
(lp11
(dp12
S'timeouts'
p13
I0
sS'data'
p14
S'\x10 \x00\x04MQTT\x04\x02\x00<\x00\x14retain-qos0-rep-test'
p15
sS'from'
p16
S'cli'
p17
sS'latency'
p18
NsS'index'
p19
I0
sa(dp20
g13
I0
sg14
S' \x02\x00\x00'
p21
sg16
S'srv'
p22
sg18
F0.00013174861669540405
sg19
I1
sa(dp23
g13
I0
sg14
S'1"\x00\x10retain/qos0/testretained message'
p24
sg16
g17
sg18
Nsg19
I2
sa(dp25
g18
Nsg16
g17
sg19
I3
sg13
I0
sS'isFuzzed'
p26
I01
sg14
S'\x82\x15\x00\x10\x00\x10retain/qos2147483648/test\x00'
p27
sa(dp28
g13
I0
sg14
S'\x90\x03\x00\x10\x00'
p29
sg16
g22
sg18
F0.04251125454902649
sg19
I4
sa(dp30
g13
I0
sg14
S'1"\x00\x10retain/qos0/testretained message'
p31
sg16
g22
sg18
F0.044088155031204224
sg19
I5
sa(dp32
g13
I0
sg14
S'\xa2\x14\x00\r\x00\x10retain/qos0/test'
p33
sg16
g17
sg18
Nsg19
I6
sa(dp34
g13
I0
sg14
S'\xb0\x02\x00\r'
p35
sg16
g22
sg18
F0.00011944770812988281
sg19
I7
sa(dp36
g18
Nsg16
g17
sg19
I8
sg13
I0
sS'isFuzzed'
p37
I01
sg14
S'\x82\x15\x00\x10\x00\x10retain/qos-146685407878593472120606\xf3\xa0\x81\xb0571\xf3\xa0\x81\xb1574898950488/test\x00'
p38
sa(dp39
g13
I0
sg14
S'\x90\x03\x00\x10\x00'
p40
sg16
g22
sg18
Nsg19
I9
sa(dp41
g13
I0
sg14
S'1"\x00\x10retain/qos0/testretained message'
p42
sg16
g22
sg18
Nsg19
I10
sas.