(dp0
S'parentFilename'
p1
S'intercept166.pickle'
p2
sS'time'
p3
NsS'filename'
p4
S'intercept166.7742_0.pickle'
p5
sS'seed'
p6
S'7742340516273746451'
p7
sS'fuzzer'
p8
S'Radamsa'
p9
sS'networkData'
p10
(lp11
(dp12
S'latency'
p13
NsS'from'
p14
S'cli'
p15
sS'index'
p16
I0
sS'timeouts'
p17
I0
sS'isFuzzed'
p18
I01
sS'data'
p19
S'\x10\xff\xff\x00\x00)\x00\x04\xdbQTT\x10\xff\xff\x00\x00)\x00\x04\xdbQTT\x04\x06\x00<\x00\x0btest-helper\x00\x0ewill/null/test\x00\x00'
p20
sa(dp21
g17
I0
sg19
S' \x02\x00\x00'
p22
sg14
S'srv'
p23
sg13
F0.00011181831359863281
sg16
I1
sas.