(dp0
S'parentFilename'
p1
S'intercept79.3711_2.pickle'
p2
sS'time'
p3
NsS'filename'
p4
S'intercept79.3711_2.1493_0.pickle'
p5
sS'seed'
p6
S'14930033715229057670'
p7
sS'fuzzer'
p8
S'Radamsa'
p9
sS'networkData'
p10
(lp11
(dp12
S'latency'
p13
NsS'from'
p14
S'cli'
p15
sS'index'
p16
I0
sS'timeouts'
p17
I0
sS'isFuzzed'
p18
I01
sS'data'
p19
S'\x10\x17\x00\xf3\xa0\x80\xa6\x04MQTT\xe2\x80\x86\x04\x02\xf3\xa0\x81\xb3\x00<\x00\x0btesper'
p20
sa(dp21
g17
I0
sg19
S' \x02\x00\x00'
p22
sg14
S'srv'
p23
sg13
F4.100799560546875e-05
sg16
I1
sa(dp24
g13
Nsg14
g15
sg16
I2
sg17
I0
sS'isFuzzed'
p25
I01
sg19
S'-1\x14\x00\x0bfoo/bar/bazmessage'
p26
sas.