(dp0
S'parentFilename'
p1
S'intercept37.4128_4.pickle'
p2
sS'time'
p3
NsS'filename'
p4
S'intercept37.4128_4.1625_2.pickle'
p5
sS'seed'
p6
S'16254946618491277316'
p7
sS'fuzzer'
p8
S'Radamsa'
p9
sS'networkData'
p10
(lp11
(dp12
S'timeouts'
p13
I0
sS'data'
p14
S'\x10\x1c\x00\x04MQTT\x04\x02\x00<\x00\x10subpub-qos1-test'
p15
sS'from'
p16
S'cli'
p17
sS'latency'
p18
NsS'index'
p19
I0
sa(dp20
g13
I0
sg14
S' \x02\x00\x00'
p21
sg16
S'srv'
p22
sg18
Nsg19
I1
sa(dp23
g18
Nsg16
g17
sg19
I2
sg13
I0
sS'isFuzzed'
p24
I01
sg14
S'\x82\x10\x02\x12\x00\x0bsubpub/qos157410436943\x01'
p25
sa(dp26
g13
I0
sg14
S'\x90\x03\x02\x12\x01'
p27
sg16
g22
sg18
Nsg19
I3
sa(dp28
g18
Nsg16
g17
sg19
I4
sg13
I0
sS'isFuzzed'
p29
I01
sg14
S'2\x16\x00\x0bsubpu\xf3\xa0\x81\x81b/qos1\x01,mes\xf3\xa0\x81\x9esage'
p30
sa(dp31
g13
I0
sg14
S'@\x02\x01,'
p32
sg16
g22
sg18
Nsg19
I5
sa(dp33
g13
I0
sg14
S'2\x16\x00\x0bsubpub/qos1\x00\x01message'
p34
sg16
g22
sg18
Nsg19
I6
sas.