(dp0
S'parentFilename'
p1
S'intercept3.pickle'
p2
sS'time'
p3
NsS'filename'
p4
S'intercept3.3202_0.pickle'
p5
sS'seed'
p6
S'3202116208664569098'
p7
sS'fuzzer'
p8
S'Radamsa'
p9
sS'networkData'
p10
(lp11
(dp12
S'latency'
p13
NsS'from'
p14
S'cli'
p15
sS'index'
p16
I0
sS'timeouts'
p17
I0
sS'isFuzzed'
p18
I01
sS'data'
p19
S'\x10\x8e\xe2\x81\xa5"\x00\x06MQIsdp\x00\x02\x00\n\x00\x14connect-jn\xc3\x9fvalid-lid-lid-lid-lid-test'
p20
sa(dp21
g17
I0
sg19
S' \x02\x00\x01'
p22
sg14
S'srv'
p23
sg13
F0.00037348270416259766
sg16
I1
sas.