(dp0
S'parentFilename'
p1
S'intercept157.pickle'
p2
sS'time'
p3
NsS'filename'
p4
S'intercept157.1296_0.pickle'
p5
sS'seed'
p6
S'12966597786675701238'
p7
sS'fuzzer'
p8
S'Radamsa'
p9
sS'networkData'
p10
(lp11
(dp12
S'latency'
p13
NsS'from'
p14
S'cli'
p15
sS'index'
p16
I0
sS'timeouts'
p17
I0
sS'isFuzzed'
p18
I01
sS'data'
p19
S'\x10\x1b\x00\x04MQTT\x04\x00\x00<\x00\x0fclean-qos1-test'
p20
sa(dp21
g17
I0
sg19
S' \x02\x01\x0020\x00\x17qos1/clean_session/test\x00\x01clean-session-message'
p22
sg14
S'srv'
p23
sg13
F0.00011110305786132812
sg16
I1
sa(dp24
g17
I0
sg19
S'@\x02\x00\x01'
p25
sg14
g15
sg13
Nsg16
I2
sas.