(dp0
S'parentFilename'
p1
S'intercept37.1822_0.pickle'
p2
sS'time'
p3
NsS'filename'
p4
S'intercept37.1822_0.5172_2.pickle'
p5
sS'seed'
p6
S'5172118400414658786'
p7
sS'fuzzer'
p8
S'Radamsa'
p9
sS'networkData'
p10
(lp11
(dp12
S'latency'
p13
NsS'from'
p14
S'cli'
p15
sS'index'
p16
I0
sS'timeouts'
p17
I0
sS'isFuzzed'
p18
I01
sS'data'
p19
S'\x10\x1c\x00\x04MQST\x04\x02\x00<\x10\x10subpua-qos4294967296-test'
p20
sa(dp21
g17
I0
sg19
S' \x02\x00\x00'
p22
sg14
S'srv'
p23
sg13
Nsg16
I1
sa(dp24
g13
Nsg14
g15
sg16
I2
sg17
I0
sS'isFuzzed'
p25
I01
sg19
S'\x82\x10\x02\x12\x00\x0bsub\xca\xb3pub\xf3\xa0\x80\xbe/qos\xca\xb4-64799116011259253\x01'
p26
sa(dp27
g17
I0
sg19
S'\x90\x03\x02\x12\x01'
p28
sg14
g23
sg13
Nsg16
I3
sa(dp29
g17
I0
sg19
S'2\x16\x00\x0bsubpub/qos1\x01,message'
p30
sg14
g15
sg13
Nsg16
I4
sa(dp31
g17
I0
sg19
S'@\x02\x01,'
p32
sg14
g23
sg13
Nsg16
I5
sa(dp33
g17
I0
sg19
S'2\x16\x00\x0bsubpub/qos1\x00\x01message'
p34
sg14
g23
sg13
Nsg16
I6
sas.