(dp0
S'parentFilename'
p1
S'intercept27.pickle'
p2
sS'time'
p3
NsS'filename'
p4
S'intercept27.1735_0.pickle'
p5
sS'seed'
p6
S'17353265387902863242'
p7
sS'fuzzer'
p8
S'Radamsa'
p9
sS'networkData'
p10
(lp11
(dp12
S'latency'
p13
NsS'from'
p14
S'cli'
p15
sS'index'
p16
I0
sS'timeouts'
p17
I0
sS'isFuzzed'
p18
I01
sS'data'
p19
S'\x10.\x00\x04MQTT\x04\x82\x00<\x00\x14connect-invalid-utf0\x00\x0cinvalid-utf7\x00\x0cinvalid\x00utf9223372036854775801'
p20
sas.