(dp0
S'parentFilename'
p1
S'intercept88.pickle'
p2
sS'time'
p3
NsS'filename'
p4
S'intercept88.1100_0.pickle'
p5
sS'seed'
p6
S'11002960397284845258'
p7
sS'fuzzer'
p8
S'Radamsa'
p9
sS'networkData'
p10
(lp11
(dp12
S'latency'
p13
NsS'from'
p14
S'cli'
p15
sS'index'
p16
I0
sS'timeouts'
p17
I0
sS'isFuzzed'
p18
I01
sS'data'
p19
S'\x10\x17\x00\x04MQTjT\x04\x02\x00<\x00\x0btes\xe2\x80\x89t-help\xd8er'
p20
sa(dp21
g17
I0
sg19
S' \x02\x00\x00'
p22
sg14
S'srv'
p23
sg13
F0.00033402442932128906
sg16
I1
sa(dp24
g17
I0
sg19
S'1\x18\x00\x0ffoo/bar/baz/barmessage'
p25
sg14
g15
sg13
Nsg16
I2
sas.