(dp0
S'parentFilename'
p1
S'intercept159.pickle'
p2
sS'time'
p3
NsS'filename'
p4
S'intercept159.9397_4.pickle'
p5
sS'seed'
p6
S'9397150352685684804'
p7
sS'fuzzer'
p8
S'Radamsa'
p9
sS'networkData'
p10
(lp11
(dp12
S'timeouts'
p13
I0
sS'data'
p14
S'\x10R\x00\x04MQTT\x84,\x00<\x00\x12kali.bridge_sample\x00/$SYS/broker/connection/kali.bridge_sample/state\x00\x010'
p15
sS'from'
p16
S'cli'
p17
sS'latency'
p18
NsS'index'
p19
I0
sa(dp20
g13
I0
sg14
S' \x02\x00\x00'
p21
sg16
S'srv'
p22
sg18
F0.00011110305786132812
sg19
I1
sa(dp23
g13
I0
sg14
S'34\x00/$SYS/broker/connection/kali.bridge_sample/state\x00\x011'
p24
sg16
g17
sg18
Nsg19
I2
sa(dp25
g13
I0
sg14
S'@\x02\x00\x01'
p26
sg16
g22
sg18
Nsg19
I3
sa(dp27
g18
Nsg16
g17
sg19
I4
sg13
I0
sS'isFuzzed'
p28
I01
sg14
S'\xe2\x0c\x00\x02\x00\x08bridge/#'
p29
sa(dp30
g13
I0
sg14
S'\xb0\x02\x00\x02'
p31
sg16
g22
sg18
Nsg19
I5
sas.