(dp0
S'parentFilename'
p1
S'intercept116.6852_6.pickle'
p2
sS'time'
p3
NsS'filename'
p4
S'intercept116.6852_6.1554_6.pickle'
p5
sS'seed'
p6
S'15549620466508105775'
p7
sS'fuzzer'
p8
S'Radamsa'
p9
sS'networkData'
p10
(lp11
(dp12
S'timeouts'
p13
I0
sS'from'
p14
S'cli'
p15
sS'data'
p16
S'\x10\x1c\x00\x04MQTT\x04\x02\x00<\x00\x10pattern-sub-test'
p17
sS'index'
p18
I0
sS'latency'
p19
Nsa(dp20
g13
I0
sg14
S'srv'
p21
sg16
S' \x02\x00\x00'
p22
sg18
I1
sg19
F3.1891765605251976e-05
sa(dp23
g13
I0
sg14
g15
sg16
S'\x82\n\x018\x00\x05foo/#\x00'
p24
sg18
I2
sg19
Nsa(dp25
g13
I0
sg14
g21
sg16
S'\x90\x03\x018\x00'
p26
sg18
I3
sg19
F2.4076133527728416e-05
sa(dp27
g13
I0
sg14
g21
sg16
S'1\x14\x00\x0bfoo/bar/bazmessage1\x18\x00\x0ffoo/bar/baz/barmessage1\x18\x00\x0ffoo/foo/baz/barmessage1\x0c\x00\x03foomessage'
p28
sg18
I4
sg19
F0.04281814285518948
sa(dp29
g13
I26
sg14
g21
sg16
S'0\x17\x00\x0efoo//bar///bazmessage'
p30
sg18
I5
sg19
Nsa(dp31
g19
Nsg14
g15
sg18
I6
sg13
I0
sS'isFuzzed'
p32
I01
sg16
S'\xf4\x8f\xbf\xbe4294\xc0\xb967295\x17\x00\x0ef\xca\xb8//ba//baeeas/grsmz'
p33
sas.