(dp0
S'parentFilename'
p1
S'intercept137.5514_0.pickle'
p2
sS'time'
p3
NsS'filename'
p4
S'intercept137.5514_0.1137_2.pickle'
p5
sS'seed'
p6
S'11371978608797344913'
p7
sS'fuzzer'
p8
S'Radamsa'
p9
sS'networkData'
p10
(lp11
(dp12
S'latency'
p13
NsS'from'
p14
S'cli'
p15
sS'index'
p16
I0
sS'timeouts'
p17
I0
sS'isFuzzed'
p18
I01
sS'data'
p19
S'\x10\x1c\x00\x04MQTT\x04\x02\x00\xff\xff\x00\x00\xf3\xa0\x81\xae<\x00\x10pattern-sub-test'
p20
sa(dp21
g17
I0
sg19
S' \x02\x00\x00'
p22
sg14
S'srv'
p23
sg13
F0.00035691261291503906
sg16
I1
sa(dp24
g13
Nsg14
g15
sg16
I2
sg17
I0
sS'isFuzzed'
p25
I01
sg19
S'\x82\x07\x012\xe7539\x07\x012\xe7539\x07\x012\xe7539\xf0\x9d\x85\xa032242\x00\x026\xf0\x9d\x85\xa032242\x00\x02/#\x00'
p26
sa(dp27
g17
I0
sg19
S'\x90\x03\x018\x00'
p28
sg14
g23
sg13
Nsg16
I3
sa(dp29
g17
I0
sg19
S'1\x14\x00\x0b/test/topicmessage1\x1a\x00\x11/test////a//topicmessage1\r\x00\x04/foomessage'
p30
sg14
g23
sg13
Nsg16
I4
sa(dp31
g17
I0
sg19
S'0\x16\x00\r////foo///barmessage'
p32
sg14
g23
sg13
Nsg16
I5
sa(dp33
g17
I0
sg19
g32
sg14
g15
sg13
Nsg16
I6
sas.