(dp0
S'parentFilename'
p1
S'intercept191.1641_4.pickle'
p2
sS'time'
p3
NsS'filename'
p4
S'intercept191.1641_4.1119_2.pickle'
p5
sS'seed'
p6
S'11191113745827952417'
p7
sS'fuzzer'
p8
S'Radamsa'
p9
sS'networkData'
p10
(lp11
(dp12
S'timeouts'
p13
I0
sS'data'
p14
S'\x10\x1a\x00\x04MQTT\x04\x02\x00\n\x00\x0emsg-param-test'
p15
sS'from'
p16
S'cli'
p17
sS'latency'
p18
NsS'index'
p19
I0
sa(dp20
g13
I0
sg14
S' \x02\x00\x00'
p21
sg16
S'srv'
p22
sg18
F0.00010721385478973389
sg19
I1
sa(dp23
g18
Nsg16
g17
sg19
I2
sg13
I0
sS'isFuzzed'
p24
I01
sg14
S'\x82\x10\x10\x10\x10\x00\x02\x00\x0bpa+/v+ra\xf0\x9d\x9f\x96m/topi\xe2\x81\xa8\xf3\xa0\xe0\xb9\x82\x80\xb2c\x01'
p25
sa(dp26
g13
I0
sg14
S'\x90\x03\x00\x02\x01'
p27
sg16
g22
sg18
F3.695487976074219e-05
sg19
I3
sa(dp28
g18
Nsg16
g17
sg19
I4
sg13
I0
sS'isFuzzed'
p29
I01
sg14
S'4294967295\x1f\x00\x0bparam/topic\x00\x03payload contents'
p30
sa(dp31
g13
I0
sg14
S'@\x02\x00\x03'
p32
sg16
g22
sg18
F6.338953971862793e-05
sg19
I5
sa(dp33
g13
I0
sg14
S'2\x1f\x00\x0bparam/topic\x00\x01payload contents'
p34
sg16
g22
sg18
Nsg19
I6
sas.