(dp0
S'parentFilename'
p1
S'intercept37.4128_4.8181_4.pickle'
p2
sS'time'
p3
NsS'filename'
p4
S'intercept37.4128_4.8181_4.1045_0.pickle'
p5
sS'seed'
p6
S'10451362782340406316'
p7
sS'fuzzer'
p8
S'Radamsa'
p9
sS'networkData'
p10
(lp11
(dp12
S'index'
p13
I0
sS'from'
p14
S'cli'
p15
sS'latency'
p16
NsS'timeouts'
p17
I0
sS'isFuzzed'
p18
I01
sS'data'
p19
S'\x81\x9aMQTT34128336692093846346334607531768211457\x04\x02\x01\xef\xbc\x8f\x05\xf3\xa0\x81\x9aMQTT2\x04\x02\x00<\x00\x10s\xbc\x8f\x05\xf3\xa0\x81\x9aMQTT2\x04\x02\x00<\x00\x10su\xf3\xa0\x80\xb7bpub-qos1845674407370955161503715803715803715803715803715803715803715803715803715803715803715803715803715803715803715803715803715803715803715803715803715803715803715803715803715803715803715803715803715803715803715803715803715803715803715803715803715803715803715803715803715803715803715803715803715803715803715803715803715803715803715803715803715803715803715803715803715803715803715803715803715803715803715803715803715803715803715803715803715803715803715803715803715803715803715803715803715803715803715803715803715803715803715803715803715803715803715803715803715803715803715803715803715803715803715803715803715803715803715803715803715803715803715803715803715803715803715803715803715803715803715884105728-test'
p20
sa(dp21
g17
I0
sg14
S'srv'
p22
sg19
S' \x02\x00\x00'
p23
sg13
I1
sg16
Nsa(dp24
g17
I0
sg14
g15
sg19
S'\x82\x10\x02\x12\x00\x0bsubpub/qos1\x01'
p25
sg13
I2
sg16
Nsa(dp26
g17
I0
sg14
g22
sg19
S'\x90\x03\x02\x12\x01'
p27
sg13
I3
sg16
Nsa(dp28
g16
Nsg14
g15
sg13
I4
sg17
I0
sS'isFuzzed'
p29
I01
sg19
S'2\x16\x00\x0bsubpu\xf3\xa0\x81\x81b/qos1\x01,mes\xf3\xa0\x81\x9esage'
p30
sa(dp31
g17
I0
sg14
g22
sg19
S'@\x02\x01,'
p32
sg13
I5
sg16
Nsa(dp33
g17
I0
sg14
g22
sg19
S'2\x16\x00\x0bsubpub/qos1\x00\x01message'
p34
sg13
I6
sg16
Nsas.