(dp0
S'parentFilename'
p1
S'intercept153.1020_0.pickle'
p2
sS'time'
p3
NsS'filename'
p4
S'intercept153.1020_0.1598_0.pickle'
p5
sS'seed'
p6
S'15987352308841076522'
p7
sS'fuzzer'
p8
S'Radamsa'
p9
sS'networkData'
p10
(lp11
(dp12
S'latency'
p13
NsS'from'
p14
S'cli'
p15
sS'index'
p16
I0
sS'timeouts'
p17
I0
sS'isFuzzed'
p18
I01
sS'data'
p19
S'\x10\x1c\x00\x04MQTT\x04\x02\x00t\x1c\x00\x04MQTT\x04\x02\x00<\xff\x10ret\x1c\x00\x04MQTT\x03\x02\x00<\x00\x10retain\xe2\x80\x84-qos\xe2\x81\x9f65537-test'
p20
sa(dp21
g17
I0
sg14
S'srv'
p22
sg19
S' \x02\x00\x00'
p23
sg16
I1
sg13
Nsa(dp24
g17
I0
sg14
g15
sg19
S'1"\x00\x10retain/qos0/testretained message'
p25
sg16
I2
sg13
Nsa(dp26
g17
I0
sg14
g15
sg19
S'\x82\x15\x00\x10\x00\x10retain/qos0/test\x01'
p27
sg16
I3
sg13
Nsa(dp28
g17
I0
sg14
g22
sg19
S'\x90\x03\x00\x10\x01'
p29
sg16
I4
sg13
Nsas.