(dp0
S'parentFilename'
p1
S'intercept191.1641_4.1119_2.pickle'
p2
sS'time'
p3
NsS'filename'
p4
S'intercept191.1641_4.1119_2.8146_0.pickle'
p5
sS'seed'
p6
S'8146222927592996292'
p7
sS'fuzzer'
p8
S'Radamsa'
p9
sS'networkData'
p10
(lp11
(dp12
S'latency'
p13
NsS'from'
p14
S'cli'
p15
sS'index'
p16
I0
sS'timeouts'
p17
I0
sS'isFuzzed'
p18
I01
sS'data'
p19
S'\x10\x1a\x00\x04MQTT\x04\x02\x00\n\x00\x0emsg\xef\xb7\xba-param-test'
p20
sa(dp21
g17
I0
sg19
S' \x02\x00\x00'
p22
sg14
S'srv'
p23
sg13
F0.00019576691556721926
sg16
I1
sa(dp24
g13
Nsg14
g15
sg16
I2
sg17
I0
sS'isFuzzed'
p25
I01
sg19
S'\x82\x10\x10\x10\x10\x00\x02\x00\x0bpa+/v+ra\xf0\x9d\x9f\x96m/topi\xe2\x81\xa8\xf3\xa0\xe0\xb9\x82\x80\xb2c\x01'
p26
sa(dp27
g17
I0
sg19
S'\x90\x03\x00\x02\x01'
p28
sg14
g23
sg13
Nsg16
I3
sa(dp29
g13
Nsg14
g15
sg16
I4
sg17
I0
sS'isFuzzed'
p30
I01
sg19
S'4294967295\x1f\x00\x0bparam/topic\x00\x03payload contents'
p31
sa(dp32
g17
I0
sg19
S'@\x02\x00\x03'
p33
sg14
g23
sg13
Nsg16
I5
sa(dp34
g17
I0
sg19
S'2\x1f\x00\x0bparam/topic\x00\x01payload contents'
p35
sg14
g23
sg13
Nsg16
I6
sas.