(dp0
S'parentFilename'
p1
S'intercept31.pickle'
p2
sS'time'
p3
NsS'filename'
p4
S'intercept31.1319_0.pickle'
p5
sS'seed'
p6
S'13192095932406517047'
p7
sS'fuzzer'
p8
S'Radamsa'
p9
sS'networkData'
p10
(lp11
(dp12
S'latency'
p13
NsS'from'
p14
S'cli'
p15
sS'index'
p16
I0
sS'timeouts'
p17
I0
sS'isFuzzed'
p18
I01
sS'data'
p19
S'\x0f\x1f\x00\x04MQTT\x04\x02\x00<\x00\x13subscribe-qos131-test'
p20
sa(dp21
g17
I0
sg19
S' \x02\x00\x00'
p22
sg14
S'srv'
p23
sg13
F0.00012359023094177246
sg16
I1
sa(dp24
g17
I0
sg19
S'\x82\x0e\x00O\x00\tqos1/test\x01'
p25
sg14
g15
sg13
Nsg16
I2
sa(dp26
g17
I0
sg19
S'\x90\x03\x00O\x01'
p27
sg14
g23
sg13
F2.5033950805664062e-05
sg16
I3
sas.