(dp0
S'parentFilename'
p1
S'intercept110.pickle'
p2
sS'time'
p3
NsS'filename'
p4
S'intercept110.7345_2.pickle'
p5
sS'seed'
p6
S'7345397559031517958'
p7
sS'fuzzer'
p8
S'Radamsa'
p9
sS'networkData'
p10
(lp11
(dp12
S'timeouts'
p13
I0
sS'data'
p14
S'\x10\x1c\x00\x04MQTT\x04\x02\x00<\x00\x10pattern-sub-test'
p15
sS'from'
p16
S'cli'
p17
sS'latency'
p18
NsS'index'
p19
I0
sa(dp20
g13
I0
sg14
S' \x02\x00\x00'
p21
sg16
S'srv'
p22
sg18
F0.00014322996139526367
sg19
I1
sa(dp23
g18
Nsg16
g17
sg19
I2
sg13
I0
sS'isFuzzed'
p24
I01
sg14
S'\x82\x06\x0123443550555828789271556253288559\x00\x01c\x00'
p25
sa(dp26
g13
I0
sg14
S'\x90\x03\x018\x00'
p27
sg16
g22
sg18
F5.4955482482910156e-05
sg19
I3
sa(dp28
g13
I0
sg14
S'1\x13\x00\ntest/topicmessage1\x14\x00\x0btest/topic/message1\x14\x00\x0b/test/topicmessage1\r\x00\x04/foomessage1\x0c\x00\x03foomessage1\x14\x00\x0bfoo/bar/bazmessage1\x18\x00\x0ffoo/bar/baz/barmessage1\x18\x00\x0ffoo/foo/baz/barmessage1>\x005one/two/three/four/five/six/seven/eight/nine/ten/testmessage'
p29
sg16
g22
sg18
F0.04115796089172363
sg19
I4
sa(dp30
g13
I2
sg14
S'0\x19\x00\x10test////a//topicmessage'
p31
sg16
g22
sg18
Nsg19
I5
sa(dp32
g13
I0
sg14
g31
sg16
g17
sg18
Nsg19
I6
sas.