(dp0
S'parentFilename'
p1
S'intercept74.1024_7.9883_2.pickle'
p2
sS'time'
p3
NsS'filename'
p4
S'intercept74.1024_7.9883_2.1485_2.pickle'
p5
sS'seed'
p6
S'14853121073183158924'
p7
sS'fuzzer'
p8
S'Radamsa'
p9
sS'networkData'
p10
(lp11
(dp12
S'timeouts'
p13
I0
sS'from'
p14
S'cli'
p15
sS'data'
p16
S'\x10\x1c\x00\x04MQTT\x04\x02\x00<\x00\x10pattern-sub-test'
p17
sS'index'
p18
I0
sS'latency'
p19
Nsa(dp20
g13
I0
sg14
S'srv'
p21
sg16
S' \x02\x00\x00'
p22
sg18
I1
sg19
F0.0002670586109161377
sa(dp23
g19
Nsg14
g15
sg18
I2
sg13
I0
sS'isFuzzed'
p24
I01
sg16
S'\x82\x06\x0132769\x00\x00\x01#\xf3\xa0\x80\xb0\x00'
p25
sa(dp26
g13
I0
sg14
g21
sg16
S'\x90\x03\x018\x00'
p27
sg18
I3
sg19
Nsa(dp28
g13
I0
sg14
g21
sg16
S'0\x13\x00\ntest/topicmessage'
p29
sg18
I4
sg19
Nsa(dp30
g13
I0
sg14
g15
sg16
S'\xa2\x05\x00\xea\x00\x01#'
p31
sg18
I5
sg19
Nsa(dp32
g13
I0
sg14
g21
sg16
S'\xb0\x02\x00\xea'
p33
sg18
I6
sg19
Nsa(dp34
g19
Nsg14
g15
sg18
I7
sg13
I0
sS'isFuzzed'
p35
I01
sg16
S'\x82\xe2\x80\x88\x06\x018\x00\x01#\x00'
p36
sa(dp37
g13
I0
sg14
g21
sg16
S'\x90\x03\x018\x00'
p38
sg18
I8
sg19
Nsa(dp39
g13
I0
sg14
g21
sg16
S'1\x13\x00\ntest/topicmessage'
p40
sg18
I9
sg19
Nsas.