(dp0
S'parentFilename'
p1
S'intercept107.1658_5.1146_5.1706_5.pickle'
p2
sS'time'
p3
NsS'filename'
p4
S'intercept107.1658_5.1146_5.1706_5.1588_5.pickle'
p5
sS'seed'
p6
S'15886017099038599948'
p7
sS'fuzzer'
p8
S'Radamsa'
p9
sS'networkData'
p10
(lp11
(dp12
S'timeouts'
p13
I0
sS'data'
p14
S'\x10\x1c\x00\x04MQTT\x04\x02\x00<\x00\x10pattern-sub-test'
p15
sS'from'
p16
S'cli'
p17
sS'latency'
p18
NsS'index'
p19
I0
sa(dp20
g13
I0
sg14
S' \x02\x00\x00'
p21
sg16
S'srv'
p22
sg18
F8.690357208251953e-05
sg19
I1
sa(dp23
g13
I0
sg14
S'\x82\x1d\x018\x00\x18+/+/+/+/+/+/+/+/+/+/test\x00'
p24
sg16
g17
sg18
Nsg19
I2
sa(dp25
g13
I0
sg14
S'\x90\x03\x018\x00'
p26
sg16
g22
sg18
Nsg19
I3
sa(dp27
g13
I0
sg14
S'0>\x005one/two/three/four/five/six/seven/eight/nine/ten/testmessage'
p28
sg16
g22
sg18
Nsg19
I4
sa(dp29
g18
Nsg16
g17
sg19
I5
sg13
I0
sS'isFuzzed'
p30
I01
sg14
S'\xa2\xe2\xa9\x1c\x00\xea\xb9\x18+/+/\xf3\xa0\x80\xe1\xa1\x8e\xbc\xbc\xbc+\xf3\xa0\x80\xad\xe2\x80\xa8/+/+/+/+/tete\x89ssss|||t'
p31
sa(dp32
g13
I0
sg14
S'\xb0\x02\x00\xea'
p33
sg16
g22
sg18
Nsg19
I6
sa(dp34
g13
I0
sg14
S'\x82\x1d\x018\x00\x18+/+/+/+/+/+/+/+/+/+/test\x00'
p35
sg16
g17
sg18
Nsg19
I7
sa(dp36
g13
I0
sg14
S'\x90\x03\x018\x00'
p37
sg16
g22
sg18
Nsg19
I8
sa(dp38
g13
I0
sg14
S'1>\x005one/two/three/four/five/six/seven/eight/nine/ten/testmessage'
p39
sg16
g22
sg18
Nsg19
I9
sas.