(dp0
S'parentFilename'
p1
S'intercept118.pickle'
p2
sS'time'
p3
NsS'filename'
p4
S'intercept118.1329_2.pickle'
p5
sS'seed'
p6
S'13296465996730409068'
p7
sS'fuzzer'
p8
S'Radamsa'
p9
sS'networkData'
p10
(lp11
(dp12
S'timeouts'
p13
I0
sS'data'
p14
S'\x10\x17\x00\x04MQTT\x04\x02\x00<\x00\x0btest-helper'
p15
sS'from'
p16
S'cli'
p17
sS'latency'
p18
NsS'index'
p19
I0
sa(dp20
g13
I0
sg14
S' \x02\x00\x00'
p21
sg16
S'srv'
p22
sg18
F1.4066696166992188e-05
sg19
I1
sa(dp23
g18
Nsg16
g17
sg19
I2
sg13
I0
sS'isFuzzed'
p24
I01
sg14
S'0\x11\x00\x08fge'
p25
sas.