(dp0
S'parentFilename'
p1
S'intercept112.1688_0.pickle'
p2
sS'time'
p3
NsS'filename'
p4
S'intercept112.1688_0.1009_0.pickle'
p5
sS'seed'
p6
S'10099426478728908444'
p7
sS'fuzzer'
p8
S'Radamsa'
p9
sS'networkData'
p10
(lp11
(dp12
S'latency'
p13
NsS'from'
p14
S'cli'
p15
sS'index'
p16
I0
sS'timeouts'
p17
I0
sS'isFuzzed'
p18
I01
sS'data'
p19
S'\xc0\x90\x00\x00\x17Q<T\xc0\x8b\x04\x02\xff\x04TMset\xf3\xa0\x81\x95t-helper'
p20
sa(dp21
g17
I0
sg19
S' \x02\x00\x00'
p22
sg14
S'srv'
p23
sg13
Nsg16
I1
sa(dp24
g17
I0
sg19
S'1\x1a\x00\x11/test////a//topicmessage'
p25
sg14
g15
sg13
Nsg16
I2
sas.