(dp0
S'parentFilename'
p1
S'intercept147.pickle'
p2
sS'time'
p3
NsS'filename'
p4
S'intercept147.2053_0.pickle'
p5
sS'seed'
p6
S'2053783702466061177'
p7
sS'fuzzer'
p8
S'Radamsa'
p9
sS'networkData'
p10
(lp11
(dp12
S'latency'
p13
NsS'from'
p14
S'cli'
p15
sS'index'
p16
I0
sS'timeouts'
p17
I0
sS'isFuzzed'
p18
I01
sS'data'
p19
S'\x10 \x00\x04MQTT\x04\x02\x00<\x00\x14retain-q\xef\xbc\x8fos0-rep-test'
p20
sa(dp21
g17
I0
sg19
S' \x02\x00\x00'
p22
sg14
S'srv'
p23
sg13
F0.00015504658222198486
sg16
I1
sa(dp24
g17
I0
sg19
S'1"\x00\x10retain/qos0/testretained message'
p25
sg14
g15
sg13
Nsg16
I2
sa(dp26
g17
I0
sg19
S'\x82\x15\x00\x10\x00\x10retain/qos0/test\x00'
p27
sg14
g15
sg13
Nsg16
I3
sa(dp28
g17
I0
sg19
S'\x90\x03\x00\x10\x00'
p29
sg14
g23
sg13
F0.04262128472328186
sg16
I4
sa(dp30
g17
I0
sg19
S'1"\x00\x10retain/qos0/testretained message'
p31
sg14
g23
sg13
F0.04439863562583923
sg16
I5
sa(dp32
g17
I0
sg19
S'\xa2\x14\x00\r\x00\x10retain/qos0/test'
p33
sg14
g15
sg13
Nsg16
I6
sa(dp34
g17
I0
sg19
S'\xb0\x02\x00\r'
p35
sg14
g23
sg13
F0.0001093447208404541
sg16
I7
sa(dp36
g17
I0
sg19
S'\x82\x15\x00\x10\x00\x10retain/qos0/test\x00'
p37
sg14
g15
sg13
Nsg16
I8
sa(dp38
g17
I0
sg19
S'\x90\x03\x00\x10\x00'
p39
sg14
g23
sg13
F0.00010561943054199219
sg16
I9
sa(dp40
g17
I0
sg19
S'1"\x00\x10retain/qos0/testretained message'
p41
sg14
g23
sg13
F0.04299747943878174
sg16
I10
sas.