(dp0
S'parentFilename'
p1
S'intercept80.1394_7.8061_7.9846_7.pickle'
p2
sS'time'
p3
NsS'filename'
p4
S'intercept80.1394_7.8061_7.9846_7.1697_7.pickle'
p5
sS'seed'
p6
S'1697265508273672824'
p7
sS'fuzzer'
p8
S'Radamsa'
p9
sS'networkData'
p10
(lp11
(dp12
S'timeouts'
p13
I0
sS'data'
p14
S'\x10\x1c\x00\x04MQTT\x04\x02\x00<\x00\x10pattern-sub-test'
p15
sS'from'
p16
S'cli'
p17
sS'latency'
p18
NsS'index'
p19
I0
sa(dp20
g13
I0
sg14
S' \x02\x00\x00'
p21
sg16
S'srv'
p22
sg18
F0.00011661648750305176
sg19
I1
sa(dp23
g13
I0
sg14
S'\x82\n\x018\x00\x05foo/#\x00'
p24
sg16
g17
sg18
Nsg19
I2
sa(dp25
g13
I0
sg14
S'\x90\x03\x018\x00'
p26
sg16
g22
sg18
F3.600120544433594e-05
sg19
I3
sa(dp27
g13
I0
sg14
S'0\x14\x00\x0bfoo/bar/bazmessage'
p28
sg16
g22
sg18
F0.04235345125198364
sg19
I4
sa(dp29
g13
I0
sg14
S'\xa2\t\x00\xea\x00\x05foo/#'
p30
sg16
g17
sg18
Nsg19
I5
sa(dp31
g13
I0
sg14
S'\xb0\x02\x00\xea'
p32
sg16
g22
sg18
F5.3882598876953125e-05
sg19
I6
sa(dp33
g18
Nsg16
g17
sg19
I7
sg13
I0
sS'isFuzzed'
p34
I01
sg14
S'\x82\n\x012147534166\x00\x05foo-99\xe2\x80\x8e14118\xf3\xa0\x80\xab3460\xf3\xa0\x81\x86469231731687303\xf3\xa0\x81\x8d71588410\xce\x905725'
p35
sa(dp36
g13
I0
sg14
S'\x90\x03\x018\x00'
p37
sg16
g22
sg18
Nsg19
I8
sa(dp38
g13
I0
sg14
S'1\x14\x00\x0bfoo/bar/bazmessage'
p39
sg16
g22
sg18
Nsg19
I9
sas.