(dp0
S'parentFilename'
p1
S'intercept112.1688_0.pickle'
p2
sS'time'
p3
NsS'filename'
p4
S'intercept112.1688_0.4093_0.pickle'
p5
sS'seed'
p6
S'409314859718833634'
p7
sS'fuzzer'
p8
S'Radamsa'
p9
sS'networkData'
p10
(lp11
(dp12
S'latency'
p13
NsS'from'
p14
S'cli'
p15
sS'index'
p16
I0
sS'timeouts'
p17
I0
sS'isFuzzed'
p18
I01
sS'data'
p19
S'\x10\x17\xff\x04MQTT\x04\x02\x00<\x00\x0btest-\xe2\x80\xafhelper'
p20
sa(dp21
g17
I0
sg14
S'srv'
p22
sg19
S' \x02\x00\x00'
p23
sg16
I1
sg13
F7.170438766479492e-05
sa(dp24
g17
I0
sg14
g15
sg19
S'1\x1a\x00\x11/test////a//topicmessage'
p25
sg16
I2
sg13
Nsas.