(dp0
S'parentFilename'
p1
S'intercept171.1675_0.7146_0.pickle'
p2
sS'time'
p3
NsS'filename'
p4
S'intercept171.1675_0.7146_0.6565_0.pickle'
p5
sS'seed'
p6
S'6565000039948430326'
p7
sS'fuzzer'
p8
S'Radamsa'
p9
sS'networkData'
p10
(lp11
(dp12
S'latency'
p13
NsS'from'
p14
S'cli'
p15
sS'index'
p16
I0
sS'timeouts'
p17
I0
sS'isFuzzed'
p18
I01
sS'data'
p19
S'\x10-\x00\x04MQTTwi\x00\x00l\x06\x04\x11<l-invalid\x00utfd\x00utf7\x00\x00'
p20
sas.