(dp0
S'parentFilename'
p1
S'intercept39.pickle'
p2
sS'time'
p3
NsS'filename'
p4
S'intercept39.1632_0.pickle'
p5
sS'seed'
p6
S'16329753622002760216'
p7
sS'fuzzer'
p8
S'Radamsa'
p9
sS'networkData'
p10
(lp11
(dp12
S'latency'
p13
NsS'from'
p14
S'cli'
p15
sS'index'
p16
I0
sS'timeouts'
p17
I0
sS'isFuzzed'
p18
I01
sS'data'
p19
S'\x10\x1c\x00\x04\x02\x00\x10\x1c\x00\x04\x02\x00<\x00\x10subpub-qos3-test'
p20
sa(dp21
g17
I0
sg19
S' \x02\x00\x00'
p22
sg14
S'srv'
p23
sg13
F1.5020370483398438e-05
sg16
I1
sa(dp24
g17
I0
sg19
S'\x82\x10\x02\x12\x00\x0bsubpub/qos2\x02'
p25
sg14
g15
sg13
Nsg16
I2
sa(dp26
g17
I0
sg19
S'\x90\x03\x02\x12\x02'
p27
sg14
g23
sg13
Nsg16
I3
sa(dp28
g17
I0
sg19
S'4\x16\x00\x0bsubpub/qos2\x01-message'
p29
sg14
g15
sg13
Nsg16
I4
sa(dp30
g17
I0
sg19
S'P\x02\x01-'
p31
sg14
g23
sg13
Nsg16
I5
sa(dp32
g17
I0
sg19
S'b\x02\x01-'
p33
sg14
g15
sg13
Nsg16
I6
sa(dp34
g17
I0
sg19
S'p\x02\x01-'
p35
sg14
g23
sg13
Nsg16
I7
sa(dp36
g17
I0
sg19
S'4\x16\x00\x0bsubpub/qos2\x00\x01message'
p37
sg14
g23
sg13
Nsg16
I8
sa(dp38
g17
I0
sg19
S'P\x02\x00\x01'
p39
sg14
g15
sg13
Nsg16
I9
sa(dp40
g17
I0
sg19
S'b\x02\x00\x01'
p41
sg14
g23
sg13
Nsg16
I10
sas.