(dp0
S'parentFilename'
p1
S'intercept61.1791_2.pickle'
p2
sS'time'
p3
NsS'filename'
p4
S'intercept61.1791_2.1518_2.pickle'
p5
sS'seed'
p6
S'15182160426365731381'
p7
sS'fuzzer'
p8
S'Radamsa'
p9
sS'networkData'
p10
(lp11
(dp12
S'timeouts'
p13
I0
sS'from'
p14
S'cli'
p15
sS'data'
p16
S'\x10\x19\x00\x04MQTT\x04\x02\x00<\x00\rpub-qos2-test'
p17
sS'index'
p18
I0
sS'latency'
p19
Nsa(dp20
g13
I0
sg14
S'srv'
p21
sg16
S' \x02\x00\x00'
p22
sg18
I1
sg19
F0.00010532140731811523
sa(dp23
g19
Nsg14
g15
sg18
I2
sg13
I0
sS'isFuzzed'
p24
I01
sg16
S'4\x18\x00\rpub/qos9223372036854775811/\xe1\xbe\x82test\x018message'
p25
sa(dp26
g13
I0
sg14
g21
sg16
S'P\x02\x018'
p27
sg18
I3
sg19
F4.684925079345703e-05
sa(dp28
g13
I0
sg14
g15
sg16
S'b\x02\x018'
p29
sg18
I4
sg19
Nsa(dp30
g13
I0
sg14
g21
sg16
S'p\x02\x018'
p31
sg18
I5
sg19
F7.486343383789062e-05
sas.