(dp0
S'parentFilename'
p1
S'intercept110.pickle'
p2
sS'time'
p3
NsS'filename'
p4
S'intercept110.1451_0.pickle'
p5
sS'seed'
p6
S'14513815511468257993'
p7
sS'fuzzer'
p8
S'Radamsa'
p9
sS'networkData'
p10
(lp11
(dp12
S'latency'
p13
NsS'from'
p14
S'cli'
p15
sS'index'
p16
I0
sS'timeouts'
p17
I0
sS'isFuzzed'
p18
I01
sS'data'
p19
S'\x10\x1c\x00\x04MQTT\x04\x02\x00<\x00\x10pattern-sub-test'
p20
sa(dp21
g17
I0
sg19
S' \x02\x00\x00'
p22
sg14
S'srv'
p23
sg13
F0.00016947835683822632
sg16
I1
sa(dp24
g17
I0
sg19
S'\x82\x06\x018\x00\x01#\x00'
p25
sg14
g15
sg13
Nsg16
I2
sa(dp26
g17
I0
sg19
S'\x90\x03\x018\x00'
p27
sg14
g23
sg13
F5.4955482482910156e-05
sg16
I3
sa(dp28
g17
I0
sg19
S'1\x13\x00\ntest/topicmessage1\x14\x00\x0btest/topic/message1\x14\x00\x0b/test/topicmessage1\r\x00\x04/foomessage1\x0c\x00\x03foomessage1\x14\x00\x0bfoo/bar/bazmessage1\x18\x00\x0ffoo/bar/baz/barmessage1\x18\x00\x0ffoo/foo/baz/barmessage1>\x005one/two/three/four/five/six/seven/eight/nine/ten/testmessage'
p29
sg14
g23
sg13
F0.04115796089172363
sg16
I4
sa(dp30
g17
I2
sg19
S'0\x19\x00\x10test////a//topicmessage'
p31
sg14
g23
sg13
Nsg16
I5
sa(dp32
g17
I0
sg19
g31
sg14
g15
sg13
Nsg16
I6
sas.