(dp0
S'parentFilename'
p1
S'intercept23.9999_0.pickle'
p2
sS'time'
p3
NsS'filename'
p4
S'intercept23.9999_0.3463_0.pickle'
p5
sS'seed'
p6
S'346341748831632687'
p7
sS'fuzzer'
p8
S'Radamsa'
p9
sS'networkData'
p10
(lp11
(dp12
S'latency'
p13
NsS'from'
p14
S'cli'
p15
sS'index'
p16
I0
sS'timeouts'
p17
I0
sS'isFuzzed'
p18
I01
sS'data'
p19
S'\xcf$\x00\x04MTT\x04\x00\xf3\xa0\x81\xbe\xabnect-fnamfnamf-tEst\x00\xc0\x84u\xf3\xa0\xa0\xb6te\xe2\x81\xa8r'
p20
sas.