(dp0
S'parentFilename'
p1
S'intercept131.pickle'
p2
sS'time'
p3
NsS'filename'
p4
S'intercept131.5397_0.pickle'
p5
sS'seed'
p6
S'539751152525584657'
p7
sS'fuzzer'
p8
S'Radamsa'
p9
sS'networkData'
p10
(lp11
(dp12
S'latency'
p13
NsS'from'
p14
S'cli'
p15
sS'index'
p16
I0
sS'timeouts'
p17
I0
sS'isFuzzed'
p18
I01
sS'data'
p19
S'\x10\x1c\x00\x04MQTT\x04\x02\x00,\x00\x10pattern-sub-test'
p20
sa(dp21
g17
I0
sg19
S' \x02\x00\x00'
p22
sg14
S'srv'
p23
sg13
F9.728968143463135e-05
sg16
I1
sa(dp24
g17
I0
sg19
S'\x82\x0f\x018\x00\nfoo//baz/#\x00'
p25
sg14
g15
sg13
Nsg16
I2
sa(dp26
g17
I0
sg19
S'\x90\x03\x018\x00'
p27
sg14
g23
sg13
F7.212162017822266e-05
sg16
I3
sa(dp28
g17
I0
sg19
S'1\x13\x00\nfoo//baz//message1\x15\x00\x0cfoo//baz/barmessage1\x11\x00\x08foo//bazmessage'
p29
sg14
g23
sg13
F0.04205882549285889
sg16
I4
sa(dp30
g17
I3
sg19
S'0\x15\x00\x0cfoo//baz/barmessage'
p31
sg14
g23
sg13
Nsg16
I5
sa(dp32
g17
I0
sg19
g31
sg14
g15
sg13
Nsg16
I6
sas.