(dp0
S'parentFilename'
p1
S'intercept89.pickle'
p2
sS'time'
p3
NsS'filename'
p4
S'intercept89.1541_6.pickle'
p5
sS'seed'
p6
S'15413975481278077224'
p7
sS'fuzzer'
p8
S'Radamsa'
p9
sS'networkData'
p10
(lp11
(dp12
S'timeouts'
p13
I0
sS'data'
p14
S'\x10\x1c\x00\x04MQTT\x04\x02\x00<\x00\x10pattern-sub-test'
p15
sS'from'
p16
S'cli'
p17
sS'latency'
p18
NsS'index'
p19
I0
sa(dp20
g13
I0
sg14
S' \x02\x00\x00'
p21
sg16
S'srv'
p22
sg18
F9.208769188262522e-05
sg19
I1
sa(dp23
g13
I0
sg14
S'\x82\x10\x018\x00\x0bfoo/+/baz/#\x00'
p24
sg16
g17
sg18
Nsg19
I2
sa(dp25
g13
I0
sg14
S'\x90\x03\x018\x00'
p26
sg16
g22
sg18
F3.1150877475738525e-05
sg19
I3
sa(dp27
g13
I1
sg14
S'1\x14\x00\x0bfoo/bar/bazmessage'
p28
sg16
g22
sg18
F0.043020304292440414
sg19
I4
sa(dp29
g13
I5
sg14
S'0\x18\x00\x0ffoo/bar/baz/barmessage'
p30
sg16
g22
sg18
Nsg19
I5
sa(dp31
g18
Nsg16
g17
sg19
I6
sg13
I0
sS'isFuzzed'
p32
I01
sg14
S'0\x18\xf3\xa0\x81\x88\x00\x0ffoo/bar/baz\xf3\xa0\x80\xa7\xf3\xa0\x80\xac/barme\xe2\x80\xa8\xf3\xa0\x81\xb1ssage'
p33
sas.