(dp0
S'parentFilename'
p1
S'intercept191.1641_4.1119_2.8146_0.pickle'
p2
sS'time'
p3
NsS'filename'
p4
S'intercept191.1641_4.1119_2.8146_0.7352_0.pickle'
p5
sS'seed'
p6
S'7352770030439369655'
p7
sS'fuzzer'
p8
S'Radamsa'
p9
sS'networkData'
p10
(lp11
(dp12
S'latency'
p13
NsS'from'
p14
S'cli'
p15
sS'index'
p16
I0
sS'timeouts'
p17
I0
sS'isFuzzed'
p18
I01
sS'data'
p19
S'\xef\xb7\xbaam\xb7ma\xbamt-tse'
p20
sa(dp21
g17
I0
sg14
S'srv'
p22
sg19
S' \x02\x00\x00'
p23
sg16
I1
sg13
F0.00013840830069966614
sa(dp24
g13
Nsg14
g15
sg16
I2
sg17
I0
sS'isFuzzed'
p25
I01
sg19
S'\x82\x10\x10\x10\x10\x00\x02\x00\x0bpa+/v+ra\xf0\x9d\x9f\x96m/topi\xe2\x81\xa8\xf3\xa0\xe0\xb9\x82\x80\xb2c\x01'
p26
sa(dp27
g17
I0
sg14
g22
sg19
S'\x90\x03\x00\x02\x01'
p28
sg16
I3
sg13
Nsa(dp29
g13
Nsg14
g15
sg16
I4
sg17
I0
sS'isFuzzed'
p30
I01
sg19
S'4294967295\x1f\x00\x0bparam/topic\x00\x03payload contents'
p31
sa(dp32
g17
I0
sg14
g22
sg19
S'@\x02\x00\x03'
p33
sg16
I5
sg13
Nsa(dp34
g17
I0
sg14
g22
sg19
S'2\x1f\x00\x0bparam/topic\x00\x01payload contents'
p35
sg16
I6
sg13
Nsas.