(dp0
S'parentFilename'
p1
S'intercept92.pickle'
p2
sS'time'
p3
NsS'filename'
p4
S'intercept92.1027_7.pickle'
p5
sS'seed'
p6
S'10274412383265748254'
p7
sS'fuzzer'
p8
S'Radamsa'
p9
sS'networkData'
p10
(lp11
(dp12
S'timeouts'
p13
I0
sS'data'
p14
S'\x10\x1c\x00\x04MQTT\x04\x02\x00<\x00\x10pattern-sub-test'
p15
sS'from'
p16
S'cli'
p17
sS'latency'
p18
NsS'index'
p19
I0
sa(dp20
g13
I0
sg14
S' \x02\x00\x00'
p21
sg16
S'srv'
p22
sg18
F9.344217738060934e-05
sg19
I1
sa(dp23
g13
I0
sg14
S'\x82\x12\x018\x00\rfoo/foo/baz/#\x00'
p24
sg16
g17
sg18
Nsg19
I2
sa(dp25
g13
I0
sg14
S'\x90\x03\x018\x00'
p26
sg16
g22
sg18
F7.1445165303885e-05
sg19
I3
sa(dp27
g13
I0
sg14
S'0\x18\x00\x0ffoo/foo/baz/barmessage'
p28
sg16
g22
sg18
F0.04350281107758747
sg19
I4
sa(dp29
g13
I0
sg14
S'\xa2\x11\x00\xea\x00\rfoo/foo/baz/#'
p30
sg16
g17
sg18
Nsg19
I5
sa(dp31
g13
I0
sg14
S'\xb0\x02\x00\xea'
p32
sg16
g22
sg18
F9.320934987044893e-05
sg19
I6
sa(dp33
g18
Nsg16
g17
sg19
I7
sg13
I0
sS'isFuzzed'
p34
I01
sg14
S'\xf3\xa0\x81\xb5\x82\x12\x01-4795830738757863\xf3\xa0\x80\xb67613\x00\rfoo/f16101481622569\xf3\xa0\x80\xb67613\x00\rfoo/foo/baz/#\x00'
p35
sa(dp36
g13
I0
sg14
S'\x90\x03\x018\x00'
p37
sg16
g22
sg18
F2.3774802684783936e-05
sg19
I8
sa(dp38
g13
I0
sg14
S'1\x18\x00\x0ffoo/foo/baz/barmessage'
p39
sg16
g22
sg18
F0.04363768547773361
sg19
I9
sas.