(dp0
S'parentFilename'
p1
S'intercept61.1823_2.pickle'
p2
sS'time'
p3
NsS'filename'
p4
S'intercept61.1823_2.9730_0.pickle'
p5
sS'seed'
p6
S'9730493087068111222'
p7
sS'fuzzer'
p8
S'Radamsa'
p9
sS'networkData'
p10
(lp11
(dp12
S'latency'
p13
NsS'from'
p14
S'cli'
p15
sS'index'
p16
I0
sS'timeouts'
p17
I0
sS'isFuzzed'
p18
I01
sS'data'
p19
S'\x10\x19\x00\x04MQTT\x04\x02\x00<\x00\rpub-qos-1-test'
p20
sa(dp21
g17
I0
sg19
S' \x02\x00\x00'
p22
sg14
S'srv'
p23
sg13
F0.0001236945390701294
sg16
I1
sa(dp24
g13
Nsg14
g15
sg16
I2
sg17
I0
sS'isFuzzed'
p25
I01
sg19
S'4\x18\x00\rpub/qos2/test\x018message'
p26
sa(dp27
g17
I0
sg19
S'P\x02\x018'
p28
sg14
g23
sg13
F5.7384371757507324e-05
sg16
I3
sa(dp29
g17
I0
sg19
S'b\x02\x018'
p30
sg14
g15
sg13
Nsg16
I4
sa(dp31
g17
I0
sg19
S'p\x02\x018'
p32
sg14
g23
sg13
F4.0531158447265625e-05
sg16
I5
sas.