(dp0
S'parentFilename'
p1
S'intercept137.1540_2.pickle'
p2
sS'time'
p3
NsS'filename'
p4
S'intercept137.1540_2.1297_6.pickle'
p5
sS'seed'
p6
S'12970693005342627995'
p7
sS'fuzzer'
p8
S'Radamsa'
p9
sS'networkData'
p10
(lp11
(dp12
S'timeouts'
p13
I0
sS'data'
p14
S'\x10\x1c\x00\x04MQTT\x04\x02\x00<\x00\x10pattern-sub-test'
p15
sS'from'
p16
S'cli'
p17
sS'latency'
p18
NsS'index'
p19
I0
sa(dp20
g13
I0
sg14
S' \x02\x00\x00'
p21
sg16
S'srv'
p22
sg18
F0.00023424625396728516
sg19
I1
sa(dp23
g18
Nsg16
g17
sg19
I2
sg13
I0
sS'isFuzzed'
p24
I01
sg14
S'\x82\x07\x018\x00\x02/##########################################################################################################################################################################\x00'
p25
sa(dp26
g13
I0
sg14
S'\x90\x03\x018\x00'
p27
sg16
g22
sg18
Nsg19
I3
sa(dp28
g13
I0
sg14
S'1\x14\x00\x0b/test/topicmessage1\x1a\x00\x11/test////a//topicmessage1\r\x00\x04/foomessage'
p29
sg16
g22
sg18
Nsg19
I4
sa(dp30
g13
I0
sg14
S'0\x16\x00\r////foo///barmessage'
p31
sg16
g22
sg18
Nsg19
I5
sa(dp32
g18
Nsg16
g17
sg19
I6
sg13
I0
sS'isFuzzed'
p33
I01
sg14
S'\xf3\xa0\x80\xbb--4294967168\x16\x00\r////f\xf3\xa0\x81\x90oo\xf3\xa0\x81\xa5///barmesage'
p34
sas.