(dp0
S'parentFilename'
p1
S'intercept127.pickle'
p2
sS'time'
p3
NsS'filename'
p4
S'intercept127.8037_0.pickle'
p5
sS'seed'
p6
S'8037002999146170812'
p7
sS'fuzzer'
p8
S'Radamsa'
p9
sS'networkData'
p10
(lp11
(dp12
S'latency'
p13
NsS'from'
p14
S'cli'
p15
sS'index'
p16
I0
sS'timeouts'
p17
I0
sS'isFuzzed'
p18
I01
sS'data'
p19
S'\x10\x17\x00\x04MQTT\x04\x02\x00<\x00\x0btes\x1c-helper'
p20
sa(dp21
g17
I0
sg19
S' \x02\x00\x00'
p22
sg14
S'srv'
p23
sg13
F0.00012284409935148233
sg16
I1
sa(dp24
g17
I0
sg19
S'1\x15\x00\x0cfoo//baz/barmessage'
p25
sg14
g15
sg13
Nsg16
I2
sas.