(dp0
S'parentFilename'
p1
S'intercept107.1658_5.1146_5.pickle'
p2
sS'time'
p3
NsS'filename'
p4
S'intercept107.1658_5.1146_5.1641_7.pickle'
p5
sS'seed'
p6
S'16416977156806467513'
p7
sS'fuzzer'
p8
S'Radamsa'
p9
sS'networkData'
p10
(lp11
(dp12
S'timeouts'
p13
I0
sS'from'
p14
S'cli'
p15
sS'data'
p16
S'\x10\x1c\x00\x04MQTT\x04\x02\x00<\x00\x10pattern-sub-test'
p17
sS'index'
p18
I0
sS'latency'
p19
Nsa(dp20
g13
I0
sg14
S'srv'
p21
sg16
S' \x02\x00\x00'
p22
sg18
I1
sg19
F6.286799907684326e-05
sa(dp23
g13
I0
sg14
g15
sg16
S'\x82\x1d\x018\x00\x18+/+/+/+/+/+/+/+/+/+/test\x00'
p24
sg18
I2
sg19
Nsa(dp25
g13
I0
sg14
g21
sg16
S'\x90\x03\x018\x00'
p26
sg18
I3
sg19
F4.357099533081055e-05
sa(dp27
g13
I1
sg14
g21
sg16
S'0>\x005one/two/three/four/five/six/seven/eight/nine/ten/testmessage'
p28
sg18
I4
sg19
F0.042306721210479736
sa(dp29
g19
Nsg14
g15
sg18
I5
sg13
I0
sS'isFuzzed'
p30
I01
sg16
S'\xa2\xe2\xa9\x1c\x00\xea\xb9\x18+/+/\xf3\xa0\x80\xe1\xa1\x8e\xbc\xbc\xbc+\xe2\x80\xa8/+/+/+/+/tete\x89ssss|||t'
p31
sa(dp32
g13
I0
sg14
g21
sg16
S'\xb0\x02\x00\xea'
p33
sg18
I6
sg19
Nsa(dp34
g18
I7
sg14
g15
sg19
Nsg13
I0
sS'isFuzzed'
p35
I01
sg16
S'\x82\x1d\x018\x00\x18+/+/+/+/+/\xf3\xa0\x80\xa0+/+/+/+/+/test\x00'
p36
sa(dp37
g13
I0
sg14
g21
sg16
S'\x90\x03\x018\x00'
p38
sg18
I8
sg19
Nsa(dp39
g13
I0
sg14
g21
sg16
S'1>\x005one/two/three/four/five/six/seven/eight/nine/ten/testmessage'
p40
sg18
I9
sg19
Nsas.