(dp0
S'parentFilename'
p1
S'intercept191.4048_4.pickle'
p2
sS'time'
p3
NsS'filename'
p4
S'intercept191.4048_4.1048_4.pickle'
p5
sS'seed'
p6
S'10487434391245495627'
p7
sS'fuzzer'
p8
S'Radamsa'
p9
sS'networkData'
p10
(lp11
(dp12
S'timeouts'
p13
I0
sS'from'
p14
S'cli'
p15
sS'data'
p16
S'\x10\x1a\x00\x04MQTT\x04\x02\x00\n\x00\x0emsg-param-test'
p17
sS'index'
p18
I0
sS'latency'
p19
Nsa(dp20
g13
I0
sg14
S'srv'
p21
sg16
S' \x02\x00\x00'
p22
sg18
I1
sg19
F0.00026496127247810364
sa(dp23
g13
I0
sg14
g15
sg16
S'\x82\x10\x00\x02\x00\x0bparam/topic\x01'
p24
sg18
I2
sg19
Nsa(dp25
g13
I0
sg14
g21
sg16
S'\x90\x03\x00\x02\x01'
p26
sg18
I3
sg19
F0.00010980665683746338
sa(dp27
g19
Nsg14
g15
sg18
I4
sg13
I0
sS'isFuzzed'
p28
I01
sg16
S'--18446744073709551615\x1f\x00\x0bparam/topic\x00\x03payload contents'
p29
sa(dp30
g13
I0
sg14
g21
sg16
S'@\x02\x00\x03'
p31
sg18
I5
sg19
F3.196299076080322e-05
sa(dp32
g13
I0
sg14
g21
sg16
S'2\x1f\x00\x0bparam/topic\x00\x01payload contents'
p33
sg18
I6
sg19
Nsas.