(dp0
S'parentFilename'
p1
S'intercept153.pickle'
p2
sS'time'
p3
NsS'filename'
p4
S'intercept153.7554_0.pickle'
p5
sS'seed'
p6
S'7554045425431945276'
p7
sS'fuzzer'
p8
S'Radamsa'
p9
sS'networkData'
p10
(lp11
(dp12
S'latency'
p13
NsS'from'
p14
S'cli'
p15
sS'index'
p16
I0
sS'timeouts'
p17
I0
sS'isFuzzed'
p18
I01
sS'data'
p19
S'\x10\x1c\x00\x04MQTT\x04\x02\x00<\x00\x10retain-qos255-test'
p20
sa(dp21
g17
I0
sg19
S' \x02\x00\x00'
p22
sg14
S'srv'
p23
sg13
F0.0002194143501222344
sg16
I1
sa(dp24
g17
I0
sg19
S'1"\x00\x10retain/qos0/testretained message'
p25
sg14
g15
sg13
Nsg16
I2
sa(dp26
g17
I0
sg19
S'\x82\x15\x00\x10\x00\x10retain/qos0/test\x01'
p27
sg14
g15
sg13
Nsg16
I3
sa(dp28
g17
I0
sg19
S'\x90\x03\x00\x10\x01'
p29
sg14
g23
sg13
F0.042345285415649414
sg16
I4
sas.