(dp0
S'parentFilename'
p1
S'intercept37.4128_4.8181_4.1045_0.pickle'
p2
sS'time'
p3
NsS'filename'
p4
S'intercept37.4128_4.8181_4.1045_0.1768_0.pickle'
p5
sS'seed'
p6
S'17686111915288297908'
p7
sS'fuzzer'
p8
S'Radamsa'
p9
sS'networkData'
p10
(lp11
(dp12
S'index'
p13
I0
sS'from'
p14
S'cli'
p15
sS'latency'
p16
NsS'timeouts'
p17
I0
sS'isFuzzed'
p18
I01
sS'data'
p19
S'\x81\x9aMQTT34128336692093846346334607531768211457\x04\x02\x00<\x00\x10s\xbc\x8f\x05\xf3\xa0\x81\x9aMQTT1\x04\x02\x00<\x00\x10su\xf3\xa0\x80\xb7bpub-qos-1845674407370955161503715803715803715803715803715803715803715803715803715803715803715803715803715803715803715803715803715803715803715803715803715803715803715803715803715803715803715803715803715803715803715803715803715803715803715803715803715803715803715803715803715803715803715803715803715803715803715803715803715803715803715803715803715803715803715803715803715803715803715803715803715803715803715803715803715803715803715803715803715803715803715803715803715803715803715803715803715803715803715803715803715803715803715803715803715803715803715803715803715803715803715803715803715803715803715803715803715803715803715803715803715803715803715803715803715803715463433436794865252340341196284115894271-test'
p20
sa(dp21
g17
I0
sg19
S' \x02\x00\x00'
p22
sg14
S'srv'
p23
sg16
Nsg13
I1
sa(dp24
g17
I0
sg19
S'\x82\x10\x02\x12\x00\x0bsubpub/qos1\x01'
p25
sg14
g15
sg16
Nsg13
I2
sa(dp26
g17
I0
sg19
S'\x90\x03\x02\x12\x01'
p27
sg14
g23
sg16
Nsg13
I3
sa(dp28
g16
Nsg14
g15
sg13
I4
sg17
I0
sS'isFuzzed'
p29
I01
sg19
S'2\x16\x00\x0bsubpu\xf3\xa0\x81\x81b/qos1\x01,mes\xf3\xa0\x81\x9esage'
p30
sa(dp31
g17
I0
sg19
S'@\x02\x01,'
p32
sg14
g23
sg16
Nsg13
I5
sa(dp33
g17
I0
sg19
S'2\x16\x00\x0bsubpub/qos1\x00\x01message'
p34
sg14
g23
sg16
Nsg13
I6
sas.