(dp0
S'parentFilename'
p1
S'intercept21.pickle'
p2
sS'time'
p3
NsS'filename'
p4
S'intercept21.1737_0.pickle'
p5
sS'seed'
p6
S'17378925977262273932'
p7
sS'fuzzer'
p8
S'Radamsa'
p9
sS'networkData'
p10
(lp11
(dp12
S'latency'
p13
NsS'from'
p14
S'cli'
p15
sS'index'
p16
I0
sS'timeouts'
p17
I0
sS'isFuzzed'
p18
I01
sS'data'
p19
S'\x102\x00\x04MQTT\x04\xc2\x00\n\x00\x16connect-uname-pwd-test\x00\x04user\x00\tpassword'
p20
sa(dp21
g17
I0
sg19
S' \x02\x00\x00'
p22
sg14
S'srv'
p23
sg13
F1.9073486328125e-05
sg16
I1
sas.