(dp0
S'parentFilename'
p1
S'intercept35.pickle'
p2
sS'time'
p3
NsS'filename'
p4
S'intercept35.9081_0.pickle'
p5
sS'seed'
p6
S'9081760278136652380'
p7
sS'fuzzer'
p8
S'Radamsa'
p9
sS'networkData'
p10
(lp11
(dp12
S'latency'
p13
NsS'from'
p14
S'cli'
p15
sS'index'
p16
I0
sS'timeouts'
p17
I0
sS'isFuzzed'
p18
I01
sS'data'
p19
S'\x10\x1c\x00\x04M\xf3\xa0\x81\xbaQTT\x04\x02\x00<\x00\x10subpub-qos0-test'
p20
sa(dp21
g17
I0
sg19
S' \x02\x00\x00'
p22
sg14
S'srv'
p23
sg13
F8.331146091222763e-05
sg16
I1
sa(dp24
g17
I0
sg19
S'\x82\x10\x005\x00\x0bsubpub/qos0\x00'
p25
sg14
g15
sg13
Nsg16
I2
sa(dp26
g17
I0
sg19
S'\x90\x03\x005\x00'
p27
sg14
g23
sg13
F2.1569430828094482e-05
sg16
I3
sa(dp28
g17
I0
sg19
S'0\x14\x00\x0bsubpub/qos0message'
p29
sg14
g15
sg13
Nsg16
I4
sa(dp30
g17
I0
sg19
S'0\x14\x00\x0bsubpub/qos0message'
p31
sg14
g23
sg13
F9.578466415405273e-05
sg16
I5
sas.