(dp0
S'parentFilename'
p1
S'intercept153.1020_0.pickle'
p2
sS'time'
p3
NsS'filename'
p4
S'intercept153.1020_0.1515_2.pickle'
p5
sS'seed'
p6
S'15158792024104846478'
p7
sS'fuzzer'
p8
S'Radamsa'
p9
sS'networkData'
p10
(lp11
(dp12
S'latency'
p13
NsS'from'
p14
S'cli'
p15
sS'index'
p16
I0
sS'timeouts'
p17
I0
sS'isFuzzed'
p18
I01
sS'data'
p19
S'\x10\x1c\x00\x04MQTT\x04\x02\x00<\x00\x10retain-qos127-test'
p20
sa(dp21
g17
I0
sg19
S' \x02\x00\x00'
p22
sg14
S'srv'
p23
sg13
F0.00011345744132995605
sg16
I1
sa(dp24
g13
Nsg14
g15
sg16
I2
sg17
I0
sS'isFuzzed'
p25
I01
sg19
S'340282366920938463463374607431768211455\xf3\xa0\x81\x95"\x00\x10retain/qos2/testretained message'
p26
sa(dp27
g17
I0
sg19
S'\x82\x15\x00\x10\x00\x10retain/qos0/test\x01'
p28
sg14
g15
sg13
Nsg16
I3
sa(dp29
g17
I0
sg19
S'\x90\x03\x00\x10\x01'
p30
sg14
g23
sg13
F0.04460310935974121
sg16
I4
sas.