(dp0
S'parentFilename'
p1
S'intercept80.8808_7.pickle'
p2
sS'time'
p3
NsS'filename'
p4
S'intercept80.8808_7.1038_0.pickle'
p5
sS'seed'
p6
S'10386405145260285151'
p7
sS'fuzzer'
p8
S'Radamsa'
p9
sS'networkData'
p10
(lp11
(dp12
S'latency'
p13
NsS'from'
p14
S'cli'
p15
sS'index'
p16
I0
sS'timeouts'
p17
I0
sS'isFuzzed'
p18
I01
sS'data'
p19
S'\x10\x1c\x00\x04MQTT\x04\x02\x00<\x00\x10pa\xf4tern-sub-test'
p20
sa(dp21
g17
I0
sg19
S' \x02\x00\x00'
p22
sg14
S'srv'
p23
sg13
F3.218650817871094e-05
sg16
I1
sa(dp24
g17
I0
sg19
S'\x82\n\x018\x00\x05foo/#\x00'
p25
sg14
g15
sg13
Nsg16
I2
sa(dp26
g17
I0
sg19
S'\x90\x03\x018\x00'
p27
sg14
g23
sg13
F2.4080276489257812e-05
sg16
I3
sa(dp28
g17
I0
sg19
S'0\x14\x00\x0bfoo/bar/bazmessage'
p29
sg14
g23
sg13
F0.04360508918762207
sg16
I4
sa(dp30
g17
I0
sg19
S'\xa2\t\x00\xea\x00\x05foo/#'
p31
sg14
g15
sg13
Nsg16
I5
sa(dp32
g17
I0
sg19
S'\xb0\x02\x00\xea'
p33
sg14
g23
sg13
F2.5987625122070312e-05
sg16
I6
sa(dp34
g13
Nsg14
g15
sg16
I7
sg17
I0
sS'isFuzzed'
p35
I01
sg19
S'\x82\n\x01--922337203685472036854710368\x05foo/#\x00'
p36
sa(dp37
g17
I0
sg19
S'\x90\x03\x018\x00'
p38
sg14
g23
sg13
Nsg16
I8
sa(dp39
g17
I0
sg19
S'1\x14\x00\x0bfoo/bar/bazmessage'
p40
sg14
g23
sg13
Nsg16
I9
sas.