(dp0
S'parentFilename'
p1
S'intercept136.1509_0.pickle'
p2
sS'time'
p3
NsS'filename'
p4
S'intercept136.1509_0.1670_0.pickle'
p5
sS'seed'
p6
S'16704213245592500698'
p7
sS'fuzzer'
p8
S'Radamsa'
p9
sS'networkData'
p10
(lp11
(dp12
S'latency'
p13
NsS'from'
p14
S'cli'
p15
sS'index'
p16
I0
sS'timeouts'
p17
I0
sS'isFuzzed'
p18
I01
sS'data'
p19
S'\x10\x17\x00\x04MQTT\x04\x02\x00<\x00\x0btestest-he\xf3\xa0\x80\xa9lper'
p20
sa(dp21
g17
I0
sg14
S'srv'
p22
sg19
S' \x02\x00\x00'
p23
sg16
I1
sg13
F0.0011120438575744629
sa(dp24
g17
I0
sg14
g15
sg19
S'1\x16\x00\r////foo///barmessage'
p25
sg16
I2
sg13
Nsas.