(dp0
S'parentFilename'
p1
S'intercept68.pickle'
p2
sS'time'
p3
NsS'filename'
p4
S'intercept68.1605_4.pickle'
p5
sS'seed'
p6
S'16052683350912478695'
p7
sS'fuzzer'
p8
S'Radamsa'
p9
sS'networkData'
p10
(lp11
(dp12
S'timeouts'
p13
I0
sS'data'
p14
S'\x10!\x00\x06MQIsdp\x03\x00\x00<\x00\x13pub-qos2-disco-test'
p15
sS'from'
p16
S'cli'
p17
sS'latency'
p18
NsS'index'
p19
I0
sa(dp20
g13
I0
sg14
S' \x02\x00\x00'
p21
sg16
S'srv'
p22
sg18
Nsg19
I1
sa(dp23
g13
I0
sg14
S'<*\x00\x14qos2/disconnect/test\x00\x01disconnect-message'
p24
sg16
g17
sg18
Nsg19
I2
sa(dp25
g13
I0
sg14
S'P\x02\x00\x01'
p26
sg16
g22
sg18
Nsg19
I3
sa(dp27
g18
Nsg16
g17
sg19
I4
sg13
I0
sS'isFuzzed'
p28
I01
sg14
S'\xf3\xa0\x80\xf3\xa0\x81\x00\xcb\xaec\xa9\x92\xe2\x02\x01'
p29
sa(dp30
g13
I0
sg14
S'p\x02\x00\x01'
p31
sg16
g22
sg18
Nsg19
I5
sas.