(dp0
S'parentFilename'
p1
S'intercept82.7074_2.pickle'
p2
sS'time'
p3
NsS'filename'
p4
S'intercept82.7074_2.3012_0.pickle'
p5
sS'seed'
p6
S'3012602092001048893'
p7
sS'fuzzer'
p8
S'Radamsa'
p9
sS'networkData'
p10
(lp11
(dp12
S'latency'
p13
NsS'from'
p14
S'cli'
p15
sS'index'
p16
I0
sS'timeouts'
p17
I0
sS'isFuzzed'
p18
I01
sS'data'
p19
S'\x00\x0bteQt-helper'
p20
sa(dp21
g17
I0
sg19
S' \x02\x00\x00'
p22
sg14
S'srv'
p23
sg13
F7.104873657226562e-05
sg16
I1
sa(dp24
g13
Nsg14
g15
sg16
I2
sg17
I0
sS'isFuzzed'
p25
I01
sg19
S'128\x14\x00\x0bfoo/bar/bazmessage'
p26
sas.