(dp0
S'parentFilename'
p1
NsS'time'
p2
NsS'filename'
p3
S'intercept3.pickle'
p4
sS'seed'
p5
NsS'fuzzer'
p6
NsS'networkData'
p7
(lp8
(dp9
S'timeouts'
p10
I0
sS'data'
p11
S'\x10"\x00\x06MQIsdp\x00\x02\x00\n\x00\x14connect-invalid-test'
p12
sS'from'
p13
S'cli'
p14
sS'latency'
p15
NsS'index'
p16
I0
sa(dp17
g10
I0
sg11
S' \x02\x00\x01'
p18
sg13
S'srv'
p19
sg15
Nsg16
I1
sas.