(dp0
S'parentFilename'
p1
S'intercept33.1038_0.pickle'
p2
sS'time'
p3
NsS'filename'
p4
S'intercept33.1038_0.3012_0.pickle'
p5
sS'seed'
p6
S'3012719887715987408'
p7
sS'fuzzer'
p8
S'Radamsa'
p9
sS'networkData'
p10
(lp11
(dp12
S'latency'
p13
NsS'from'
p14
S'cli'
p15
sS'index'
p16
I0
sS'timeouts'
p17
I0
sS'isFuzzed'
p18
I01
sS'data'
p19
S'\x10\x1f\x00\xe2\x80\xae\xe7\x04MQTTTTTTTTTTTTTTTTQTTTTTTTTTTTTTTTTQTTTTTTTTTTTTTTTTQTTTTTTTTTTTTTTTTQTTTTTTTTTTTTTTTTQTTTTTTTTTTTTTTTTQTTTTTTTTTTTTTTTTQTTTTTTTTTTTTTTTTQTTTTTTTTTTTTTTTTQTTTTTTTTTTTTTTTTQTTTTTTTTTTTTTTTTQTTTTTTTTTTTTTTTTQTTTTTTTTTTTTTTTTQTTTTTTTTTTTTTTTTQTTTTTTTTTTTTTTTTQTTTTTTTTTTTTTTTTQTTTTTTTTTTTTTTTTQTTTTTTTTTTTTTTTTQTTTTTTTTTTTTTTTTQTTTTTTTTTTTTTTTTQTTTTTTTTTTTTTTTTQTTTTTTTTTTTTTTTTQTTTTTTTTTTTTTTTTQTTTTTTTTTTTTTTTTQTTTTTTTTTTTTTTTTQTTTTTTTTTTTTTTTTQTTTTTTTTTTTTTTTTQTTTTTTTTTTTTTTTTQTTTTTTTTTTTTTTTTQTTTTTTTTTTTTTTTTQTTTTTTTTTTTTTTTTQTTTTTTTTTTTTTTTTQTTTTTTTTTTTTTTTTQTTTTTTTTTTTTTTTTQTTTTTTTTTTTTTTTTQTTTTTTTTTTTTTTTTQTTTTTTTTTTTTTTTTQTTTTTTTTTTTTTTTTQTTTTTTTTTTTTTTTTQTTTTTTTTTTTTTTTTQTTTTTTTTTTTTTTTTQTTTTTTTTTTTTTTTTQTTTTTTTTTTTTTTTTQTTTTTTTTTTTTTTTTQTTTTTTTTTTTTTTTTQTTTTTTTTTTTTTTTTQTTTTTTTTTTTTTTTTQTTTTTTTTTTTTTTTTQTTTTTTTTTTTTTTTTQTTTTTTTTTTTTTTTTQTTTTTTTTTTTTTTTTQTTTTTTTTTTTTTTTTQTTTTTTTTTTTTTTTTQTTTTTTTTTTTTTTTTQTTTTTTTTTTTTTTTTQTTTTTTTTTTTTTTTTQTTTTTTTTTTTTTTTTQTTTTTTTTTTTTTTTTQTTTTTTTTTTTTTTTTQTTTTTTTTTTTTTTTTQTTTTTTTTTTTTTTTTQTTTTTTTTTTTTTTTTQTTTTTTTTTTTTTTTTQTTTTTTTTTTTTTTTTQTTTTTTTTTTTTTTTTQTTTTTTTTTTTTTTTTQTTTTTTTTTTTTTTTTQTTTTTTTTTTTTTTTTQTTTTTTTTTTTTTTTTQTTTTTTTTTTTTTTTTQTTTTTTTTTTTTTTTTQTTTTTTTTTTTTTTTTQTTTTTTTTTTTTTTTTQTTTTTTTTTTTTTTTTQTTTTTTTTTTTTTTTTQTTTTTTTTTTTTTTTTQTTTTTTTTTTTTTTTTQTTTTTTTTTTTTTTTTQTTTTTTTTTTTTTTTTQTTTTTTTTTTTTTTTTQTTTTTTTTTTTTTTTTQTTTTTTTTTTTTTTTTQTTTTTTTTTTTTTTTTQTTTTTTTTTTTTTTTTQTTTTTTTTTTTTTTTTQTTTTTTTTTTTTTTTTQTTTTTTTTTTTTTTTTQTTTTTTTTTTTTTTTTQTTTTTTTTTTTTTTTTQTTTTTTTTTTTTTTTTQTTTTTTTTTTTTTTTTQTTTTTTTTTTTTTTTTQTTTTTTTTTTTTTTTTQTTTTTTTTTTTTTTTTQTTTTTTTTTTTTTTTTQTTTTTTTTTTTTTTTTQTTTTTTTTTTTTTTTTQTTTTTTTTTTTTTTTTQTTTTTTTTTTTTTTTTQTTTTTTTTTTTTTTTTQTTTTTTTTTTTTTTTTQTTTTTTTTTTTTTTTTQTTTTTTTTTTTTTTTTQTTTTTTTTTTTTTTTTQTTTTTTTTTTTTTTTTQTTTTTTTTTTTTTTTTQTTTTTTTTTTTTTTTTQTTTTTTTTTTTTTTTTQTTTTTTTTTTTTTTTTQTTTTTTTTTTTTTTTTQTTTTTTTTTTTTTTTTQTTTTTTTTTTTTTTTTQTTTTTTTTTTTTTTTTQTTTTTTTTTTTTTTTTQTTTTTTTTTTTTTTTTQTTTTTTTTTTTTTTTTQTTTTTTTTTTTTTTTTQTTTTTTTTTTTTTTTTQTTTTTTTTTTTTTTTTQTTTTTTTTTTTTTTTTQTTTTTTTTTTTTTTTTQTTTTTTTTTTTTTTTTQTTTTTTTTTTTTTTTTQTTTTTTTTTTTTTTTTQTTTTTTTTTTTTTTTTQTTTTTTTTTTTTTTTTQTTTTTTTTTTTTTTTTQTTTTTTTTTTTTTTTTQTTTTTTTTTTTTTTTTQTTTTTTTTTTTTTTTTQTTTTTTTTTTTTTTTTQTTTTTTTTTTTTTTTTQTTTTTTTTTTTTTTTTQTTTTTTTTTTTTTTTTQTTTTTTTTTTTTTTTTQTTTTTTTTTTTTTTTTQTTTTTTTTTTTTTTTTQTTTTTTTTTTTTTTTTQTTTTTTTTTTTTTTTTQTTTTTTTTTTTTTTTTQTTTTTTTTTTTTTTTTQTTTTTTTTTTTTTTTTQTTTTTTTTTTTTTTTTQTTTTTTTTTTTTTTTTQTTTTTTTTTTTTTTTTQTTTTTTTTTTTTTTTTQTTTTTTTTTTTTTTTTQTTTTTTTTTTTTTTTTQTTTTTTTTTTTTTTTTQTTTTTTTTTTTTTTTTQTTTTTTTTTTTTTTTTQTTTTTTTTTTTTTTTTQTTTTTTTTTTTTTTTTQTTTTTTTTTTTTTTTTQTTTTTTTTTTTTTTTTQTTTTTTTTTTTTTTTTQTTTTTTTTTTTTTTTTQTTTTTTTTTTTTTTTTQTTTTTTTTTTTTTTTTQTTTTTTTTTTTTTTTTQTTTTTTTTTTTTTTTTQTTTTTTTTTTTTTTTTQTTTTTTTTTTTTTTTTQTTTTTTTTTTTTTTTTQTTTTTTTTTTTTTTTTQTTTTTTTTTTTTTTTTQTTTTTTTTTTTTTTTTQTTTTTTTTTTTTTTTTQTTTTTTTTTTTTTTTTQTTTTTTTTTTTTTTTTQTTTTTTTTTTTTTTTTQTTTTTTTTTTTTTTTTQTTTTTTTTTTTTTTTTQTTTTTTTTTTTTTTTTQTTTTTTTTTTTTTTTTQTTTTTTTTTTTTTTTTQTTTTTTTTTTTTTTTTQTTTTTTTTTTTTTTTTQTTTTTTTTTTTTTTTTQTTTTTTTTTTTTTTTTQTTTTTTTTTTTTTTTTQTTTTTTTTTTTTTTTTQTTTTTTTTTTTTTTTTQTTTTTTTTTTTTTTTTQTTTTTTTTTTTTTTTTQTTTTTTTTTTTTTTTTQTTTTTTTTTTTTTTTTQTTTTTTTTTTTTTTTTQTTTTTTTTTTTTTTTTQTTTTTTTTTTTTTTTTQTTTTTTTTTTTTTTTTQTTTTTTTTTTTTTTTTQTTTTTTTTTTTTTTTTQTTTTTTTTTTTTTTTTQTTTTTTTTTTTTTTTTQTTTTTTTTTTTTTTTTQTTTTTTTTTTTTTTTTQTTTTTTTTTTTTTTTTQTTTTTTTTTTTTTTTTQTTTTTTTTTTTTTTTTQTTTTTTTTTTTTTTTTQTTTTTTTTTTTTTTTTQTTTTTTTTTTTTTTTTQTTTTTTTTTTTTTTTTQTTTTTTTTTTTTTTTTQTTTTTTTTTTTTTTTTQTTTTTTTTTTTTTTTTQTTTTTTTTTTTTTTTTQTTTTTTTTTTTTTTTTQTTTTTTTTTTTTTTTTQTTTTTTTTTTTTTTTTQTTTTTTTTTTTTTTTTQTTTTTTTTTTTTTTTTQTTTTTTTTTTTTTTTTQTTTTTTTTTTTTTTTTQTTTTTTTTTTTTTTTTQTTTTTTTTTTTTTTTTQTTTTTTTTTTTTTTTTQTTTTTTTTTTTTTTTTQTTTTTTTTTTTTTTTTQTTTTTTTTTTTTTTTTQTTTTTTTTTTTTTTTTQTTTTTTTTTTTTTTTTQTTTTTTTTTTTTTTTTQTTTTTTTTTTTTTTTTQTTTTTTTTTTTTTTTTQTTTTTTTTTTTTTTTTQTTTTTTTTTTTTTTTTQTTTTTTTTTTTTTTTTQTTTTTTTTTTTTTTTTQTTTTTTTTTTTTTTTTQTTTTTTTTTTTTTTTTQTTTTTTTTTTTTTTTTQTTTTTTTTTTTTTTTTQTTTTTTTTTTTTTTTTQTTTTTTTTTTTTTTTTQTTTTTTTTTTTTTTTTQTTTTTTTTTTTTTTTTQTTTTTTTTTTTTTTTTQTTTTTTTTTTTTTTTTQTTTTTTTTTTTTTTTTQTTTTTTTTTTTTTTTTQTTTTTTTTTTTTTTTTQTTTTTTTTTTTTTTTTQTTTTTTTTTTTTTTTTQTTTTTTTTTTTTTTTTQTTTTTTTTTTTTTTTTQTTTTTTTTTTTTTTTTQTTTTTTTTTTTTTTTTQTTTTTTTTTTTTTTTTQTTTTTTTTTTTTTTTTQTTTTTTTTTTTTTTTTQTTTTTTTTTTTTTTTTQTTTTTTTTTTTTTTTTQTTTTTTTTTTTTTTTTQTTTTTTTTTTTTTTTTQTTTTTTTTTTTTTTTTQTTTTTTTTTTTTTTTTQTTTTTTTTTTTTTTTTQTTTTTTTTTTTTTTTTQTTTTTTTTTTTTTTTTQTTTTTTTTTTTTTTTTQTTTTTTTTTTTTTTTTQTTTTTTTTTTTTTTTTQTTTTTTTTTTTTTTTTQTTTTTTTTTTTTTTTTQTTTTTTTTTTTTTTTTQTTTTTTTTTTTTTTTTQTTTTTTTTTTTTTTTTQTTTTTTTTTTTTTTTTQTTTTTTTTTTTTTTTTQTTTTTTTTTTTTTTTTQTTTTTTTTTTTTTTTTQTTTTTTTTTTTTTTTTQTTTTTTTTTTTTTTTTQTTTTTTTTTTTTTTTTQTTTTTTTTTTTTTTTTQTTTTTTTTTTTTTTTTQTTTTTTTTTTTTTTTTQTTTTTTTTTTTTTTTTQTTTTTTTTTTTTTTTTQTTTTTTTTTTTTTTTTQTTTTTTTTTTTTTTTTQTTTTTTTTTTTTTTTTQTTTTTTTTTTTTTTTTQTTTTTTTTTTTTTTTTQTTTTTTTTTTTTTTTTQTTTTTTTTTTTTTTTTQTTTTTTTTTTTTTTTTQTTTTTTTTTTTTTTTTQTTTTTTTTTTTTTTTTQTTTTTTTTTTTTTTTTQTTTTTTTTTTTTTTTTQTTTTTTTTTTTTTTTTQTTTTTTTTTTTTTTTTQTTTTTTTTTTTTTTTTQTTTTTTTTTTTTTTTTQTTTTTTTTTTTTTTTTQTTTTTTTTTTTTTTTTQTTTTTTTTTTTTTTTTQTTTTTTTTTTTTTTTTQTTTTTTTTTTTTTTTTQTTTTTTTTTTTTTTTTQTTTTTTTTTTTTTTTTQTTTTTTTTTTTTTTTTQTTTTTTTTTTTTTTTTQTTTTTTTTTTTTTTTTQTTTTTTTTTTTTTTTTQTTTTTTTTTTTTTTTTQTTTTTTTTTTTTTTTTQTTTTTTTTTTTTTTTTQTTTTTTTTTTTTTTTTQTTTTTTTTTTTTTTTTQTTTTTTTTTTTTTTTTQTTTTTTTTTTTTTTTTQTTTTTTTTTTTTTTTTQTTTTTTTTTTTTTTTTQTTTTTTTTTTTTTTTTQTTTTTTTTTTTTTTTTQTTTTTTTTTTTTTTTTQTTTTTTTTTTTTTTTTQTTTTTTTTTTTTTTTTQTTTTTTTTTTTTTTTTQTTTTTTTTTTTTTTTTQTTTTTTTTTTTTTTTTQTTTTTTTTTTTTTTTTQTTTTTTTTTTTTTTTTQTTTTTTTTTTTTTTTTQTTTTTTTTTTTTTTTTQTTTTTTTTTTTTTTTTQTTTTTTTTTTTTTTTTQTTTTTTTTTTTTTTTTQTTTTTTTTTTTTTTTTQTTTTTTTTTTTTTTTTQTTTTTTTTTTTTTTTTQTTTTTTTTTTTTTTTTQTTTTTTTTTTTTTTTTQTTTTTTTTTTTTTTTTQTTTTTTTTTTTTTTTTQTTTTTTTTTTTTTTTTQTTTTTTTTTTTTTTTTQTTTTTTTTTTTTTTTTQTTTTTTTTTTTTTTTTQTTTTTTTTTTTTTTTTQTTTTTTTTTTTTTTTTQTTTTTTTTTTTTTTTTQTTTTTTTTTTTTTTTTQTTTTTTTTTTTTTTTTQTTTTTTTTTTTTTTTTQTTTTTTTTTTTTTTTTQTTTTTTTTTTTTTTTTQTTTTTTTTTTTTTTTTQTTTTTTTTTTTTTTTTQTTTTTTTTTTTTTTTTQTTTTTTTTTTTTTTTTQTTTTTTTTTTTTTTTTQTTTTTTTTTTTTTTTTQTTTTTTTTTTTTTTTTQTTTTTTTTTTTTTTTTQTTTTTTTTTTTTTTTTQTTTTTTTTTTTTTTTTQTTTTTTTTTTTTTTTTQTTTTTTTTTTTTTTTTQTTTTTTTTTTTTTTTTQTTTTTTTTTTTTTTTTQTTTTTTTTTTTTTTTTQTTTTTTTTTTTTTTTTQTTTTTTTTTTTTTTTTQTTTTTTTTTTTTTTTTQTTTTTTTTTTTTTTTTQTTTTTTTTTTTTTTTTQTTTTTTTTTTTTTTTTQTTTTTTTTTTTTTTTTQTTTTTTTTTTTTTTTTQTTTTTTTTTTTTTTTTQTTTTTTTTTTTTTTTTQTTTTTTTTTTTTTTTTQTTTTTTTTTTTTTTTTQTTTTTTTTTTTTTTTTQTTTTTTTTTTTTTTTTQTTTTTTTTTTTTTTTTQTTTTTTTTTTTTTTTTQTTTTTTTTTTTTTTTTQTTTTTTTTTTTTTTTTQTTTTTTTTTTTTTTTTQTTTTTTTTTTTTTTTTQTTTTTTTTTTTTTTTTQTTTTTTTTTTTTTTTTQTTTTTTTTTTTTTTTTQTTTTTTTTTTTTTTTTQTTTTTTTTTTTTTTTTQTTTTTTTTTTTTTTTTQTTTTTTTTTTTTTTTTQTTTTTTTTTTTTTTTTQTTTTTTTTTTTTTTTTQTTTTTTTTTTTTTTTTQTTTTTTTTTTTTTTTTQTTTTTTTTTTTTTTTTQTTTTTTTTTTTTTTTTQTTTTTTTTTTTTTTTTQTTTTTTTTTTTTTTTTQTTTTTTTTTTTTTTTTQTTTTTTTTTTTTTTTTQTTTTTTTTTTTTTTTTQTTTTTTTTTTTTTTTTQTTTTTTTTTTTTTTTTQTTTTTTTTTTTTTTTTQTTTTTTTTTTTTTTTTQTTTTTTTTTTTTTTTTQTTTTTTTTTTTTTTTTQTTTTTTTTTTTTTTTTQTTTTTTTTTTTTTTTTQTTTTTTTTTTTTTTTTQTTTTTTTTTTTTTTTTQTTTTTTTTTTTTTTTTQTTTTTTTTTTTTTTTTQTTTTTTTTTTTTTTTTQTTTTTTTTTTTTTTTTQTTTTTTTTTTTTTTTTQTTTTTTTTTTTTTTTTQTTTTTTTTTTTTTTTTQTTTTTTTTTTTTTTTTQTTTTTTTTTTTTTTTTQTTTTTTTTTTTTTTTTQTTTTTTTTTTTTTTTTQTTTTTTTTTTTTTTTTQTTTTTTTTTTTTTTTTQTTTTTTTTTTTTTTTTQTTTTTTTTTTTTTTTTQTTTTTTTTTTTTTTTTQTTTTTTTTTTTTTTTTQTTTTTTTTTTTTTTTTQTTTTTTTTTTTTTTTTTTTTTTTTTTTTTT\xf3\xa0\x80\xbe\x04\x02\x00<\x00\x13suc<\x00\x13sucscribe-qos-15-tesribe-qos-25-TTTTTTTT\xf3\xa0\x80\xbe\x04\x02\x00<\x00\x13suc<\x00\x13sucscribe-qos-15-tesribe-qos-15-tesribe-qos-25-test'
p20
sa(dp21
g17
I0
sg19
S' \x02\x00\x00'
p22
sg14
S'srv'
p23
sg13
Nsg16
I1
sa(dp24
g17
I0
sg19
S'\x82\x0e\x00\x03\x00\tqos2/test\x02'
p25
sg14
g15
sg13
Nsg16
I2
sa(dp26
g17
I0
sg19
S'\x90\x03\x00\x03\x02'
p27
sg14
g23
sg13
Nsg16
I3
sas.