(dp0
S'parentFilename'
p1
S'intercept54.pickle'
p2
sS'time'
p3
NsS'filename'
p4
S'intercept54.1469_0.pickle'
p5
sS'seed'
p6
S'14695590318266235427'
p7
sS'fuzzer'
p8
S'Radamsa'
p9
sS'networkData'
p10
(lp11
(dp12
S'latency'
p13
NsS'from'
p14
S'cli'
p15
sS'index'
p16
I0
sS'timeouts'
p17
I0
sS'isFuzzed'
p18
I01
sS'data'
p19
S'\x10\x1d\x00\x04MQTS\x04\x02\x00<\x00\x11flipflop-test-\xe5pub'
p20
sa(dp21
g17
I0
sg19
S' \x02\x00\x00'
p22
sg14
S'srv'
p23
sg13
F5.996227264404297e-05
sg16
I1
sa(dp24
g17
I0
sg19
S'2\x18\x00\rflipflop/test\x00\x01message'
p25
sg14
g15
sg13
Nsg16
I2
sa(dp26
g17
I0
sg19
S'@\x02\x00\x01'
p27
sg14
g23
sg13
F1.5020370483398438e-05
sg16
I3
sas.