(dp0
S'parentFilename'
p1
S'intercept131.1516_0.5294_0.pickle'
p2
sS'time'
p3
NsS'filename'
p4
S'intercept131.1516_0.5294_0.5208_2.pickle'
p5
sS'seed'
p6
S'5208344903733999030'
p7
sS'fuzzer'
p8
S'Radamsa'
p9
sS'networkData'
p10
(lp11
(dp12
S'latency'
p13
NsS'from'
p14
S'cli'
p15
sS'index'
p16
I0
sS'timeouts'
p17
I0
sS'isFuzzed'
p18
I01
sS'data'
p19
S'\x10est'
p20
sa(dp21
g17
I0
sg14
S'srv'
p22
sg19
S' \x02\x00\x00'
p23
sg16
I1
sg13
Nsa(dp24
g16
I2
sg14
g15
sg13
Nsg17
I0
sS'isFuzzed'
p25
I01
sg19
S'\x82\x0f\x0117014118\xca4604692317316046923173J68730371588411834604692317316046923173J6873037158841057\x8f--9534677025653691601823187616999429174p5801\x00\nfooo//baz/#\x00'
p26
sa(dp27
g17
I0
sg14
g22
sg19
S'\x90\x03\x018\x00'
p28
sg16
I3
sg13
Nsa(dp29
g17
I0
sg14
g22
sg19
S'1\x13\x00\nfoo//baz//message1\x15\x00\x0cfoo//baz/barmessage1\x11\x00\x08foo//bazmessage'
p30
sg16
I4
sg13
Nsa(dp31
g17
I0
sg14
g22
sg19
S'0\x15\x00\x0cfoo//baz/barmessage'
p32
sg16
I5
sg13
Nsa(dp33
g17
I0
sg14
g15
sg19
g32
sg16
I6
sg13
Nsas.