(dp0
S'parentFilename'
p1
S'intercept112.pickle'
p2
sS'time'
p3
NsS'filename'
p4
S'intercept112.1688_0.pickle'
p5
sS'seed'
p6
S'16888624371691661769'
p7
sS'fuzzer'
p8
S'Radamsa'
p9
sS'networkData'
p10
(lp11
(dp12
S'latency'
p13
NsS'from'
p14
S'cli'
p15
sS'index'
p16
I0
sS'timeouts'
p17
I0
sS'isFuzzed'
p18
I01
sS'data'
p19
S'\x10\x17\xff\x04MQTT\x04\x02\x00<\x00\x0btest-helper'
p20
sa(dp21
g17
I0
sg19
S' \x02\x00\x00'
p22
sg14
S'srv'
p23
sg13
F7.170438766479492e-05
sg16
I1
sa(dp24
g17
I0
sg19
S'1\x1a\x00\x11/test////a//topicmessage'
p25
sg14
g15
sg13
Nsg16
I2
sas.