(dp0
S'parentFilename'
p1
S'intercept37.1822_0.1179_0.1629_4.pickle'
p2
sS'time'
p3
NsS'filename'
p4
S'intercept37.1822_0.1179_0.1629_4.1206_4.pickle'
p5
sS'seed'
p6
S'12067504425084964585'
p7
sS'fuzzer'
p8
S'Radamsa'
p9
sS'networkData'
p10
(lp11
(dp12
S'latency'
p13
NsS'from'
p14
S'cli'
p15
sS'index'
p16
I0
sS'timeouts'
p17
I0
sS'isFuzzed'
p18
I01
sS'data'
p19
S'\x10\x1c\x00\x04MQST\x04\x02\x00<\x10\x18subpua%qos1-test'
p20
sa(dp21
g17
I0
sg19
S' \x02\x00\x00'
p22
sg14
S'srv'
p23
sg13
Nsg16
I1
sa(dp24
g17
I0
sg19
S'\x82\x10\x02\x12\x00\x0bsubpub/qos1\x01'
p25
sg14
g15
sg13
Nsg16
I2
sa(dp26
g17
I0
sg19
S'\x90\x03\x02\x12\x01'
p27
sg14
g23
sg13
Nsg16
I3
sa(dp28
g16
I4
sg14
g15
sg13
Nsg17
I0
sS'isFuzzed'
p29
I01
sg19
S'0\x16\x00\x0bsubpub`/qos130\x01,messa\xe0\xb9\x83ge'
p30
sa(dp31
g17
I0
sg19
S'@\x02\x01,'
p32
sg14
g23
sg13
Nsg16
I5
sa(dp33
g17
I0
sg19
S'2\x16\x00\x0bsubpub/qos1\x00\x01message'
p34
sg14
g23
sg13
Nsg16
I6
sas.