(dp0
S'parentFilename'
p1
S'intercept167.1625_0.pickle'
p2
sS'time'
p3
NsS'filename'
p4
S'intercept167.1625_0.1662_0.pickle'
p5
sS'seed'
p6
S'16622761022125354362'
p7
sS'fuzzer'
p8
S'Radamsa'
p9
sS'networkData'
p10
(lp11
(dp12
S'latency'
p13
NsS'from'
p14
S'cli'
p15
sS'index'
p16
I0
sS'timeouts'
p17
I0
sS'isFuzzed'
p18
I01
sS'data'
p19
S'\x10\x1a\x00\x04MQTT\x04<\x00\x0ewill-qos0-test'
p20
sa(dp21
g17
I0
sg14
S'srv'
p22
sg19
S' \x02\x00\x00'
p23
sg16
I1
sg13
F0.00023318665625993162
sa(dp24
g17
I0
sg14
g15
sg19
S'\x82\x13\x005\x00\x0ewill/null/test\x00'
p25
sg16
I2
sg13
Nsa(dp26
g17
I0
sg14
g22
sg19
S'\x90\x03\x005\x00'
p27
sg16
I3
sg13
F0.00010335445404052734
sa(dp28
g17
I1
sg14
g22
sg19
S'0\x10\x00\x0ewill/null/test'
p29
sg16
I4
sg13
Nsas.