(dp0
S'parentFilename'
p1
S'intercept156.5911_0.pickle'
p2
sS'time'
p3
NsS'filename'
p4
S'intercept156.5911_0.1397_0.pickle'
p5
sS'seed'
p6
S'13970606965121581992'
p7
sS'fuzzer'
p8
S'Radamsa'
p9
sS'networkData'
p10
(lp11
(dp12
S'latency'
p13
NsS'from'
p14
S'cli'
p15
sS'index'
p16
I0
sS'timeouts'
p17
I0
sS'isFuzzed'
p18
I01
sS'data'
p19
S'\x10\x17\x00\x04\x0btMQT\x84\x04t\xf3\xa0\x80\xae\x00\xc0T\x04s\xd5<\x02e\x00\x00\x00<t\xbehelper'
p20
sa(dp21
g17
I0
sg14
S'srv'
p22
sg19
S' \x02\x00\x00'
p23
sg16
I1
sg13
F4.8279762268066406e-05
sa(dp24
g17
I0
sg14
g15
sg19
S'20\x00\x17qos1/clean_session/test\x00\x80clean-session-message'
p25
sg16
I2
sg13
Nsa(dp26
g17
I0
sg14
g22
sg19
S'@\x02\x00\x80'
p27
sg16
I3
sg13
F4.5418739318847656e-05
sas.