(dp0
S'parentFilename'
p1
S'intercept68.1605_4.pickle'
p2
sS'time'
p3
NsS'filename'
p4
S'intercept68.1605_4.1850_4.pickle'
p5
sS'seed'
p6
S'1850959486819067964'
p7
sS'fuzzer'
p8
S'Radamsa'
p9
sS'networkData'
p10
(lp11
(dp12
S'timeouts'
p13
I0
sS'from'
p14
S'cli'
p15
sS'data'
p16
S'\x10!\x00\x06MQIsdp\x03\x00\x00<\x00\x13pub-qos2-disco-test'
p17
sS'index'
p18
I0
sS'latency'
p19
Nsa(dp20
g13
I0
sg14
S'srv'
p21
sg16
S' \x02\x00\x00'
p22
sg18
I1
sg19
Nsa(dp23
g13
I0
sg14
g15
sg16
S'<*\x00\x14qos2/disconnect/test\x00\x01disconnect-message'
p24
sg18
I2
sg19
Nsa(dp25
g13
I0
sg14
g21
sg16
S'P\x02\x00\x01'
p26
sg18
I3
sg19
Nsa(dp27
g19
Nsg14
g15
sg18
I4
sg13
I0
sS'isFuzzed'
p28
I01
sg16
S'\xf3\xa0\x80\xf3\xa0\x81\x00\xcb\xaec\xa9\xf3\xa0\x80\xf3\xa0\x81\x00\xcb\xaec\xa9\x92\xa9\x92\xe2\x02\xe2\x02\x1e\x01'
p29
sa(dp30
g13
I0
sg14
g21
sg16
S'p\x02\x00\x01'
p31
sg18
I5
sg19
Nsas.