(dp0
S'parentFilename'
p1
S'intercept73.1217_0.3450_0.pickle'
p2
sS'time'
p3
NsS'filename'
p4
S'intercept73.1217_0.3450_0.9423_0.pickle'
p5
sS'seed'
p6
S'9423085632010943173'
p7
sS'fuzzer'
p8
S'Radamsa'
p9
sS'networkData'
p10
(lp11
(dp12
S'latency'
p13
NsS'from'
p14
S'cli'
p15
sS'index'
p16
I0
sS'timeouts'
p17
I0
sS'isFuzzed'
p18
I01
sS'data'
p19
S'\x10\xe2\xe2\x81\xa5\xf3\xa0\x80\xbb\x81\xa0\x17\x00\x04MMQTT\xf3\xa0\x80\xb0\x04\x02\xffelper'
p20
sa(dp21
g17
I0
sg19
S' \x02\x00\x00'
p22
sg14
S'srv'
p23
sg13
F6.091594696044922e-05
sg16
I1
sa(dp24
g17
I0
sg19
S'1\x13\x00\ntest/topicmessage'
p25
sg14
g15
sg13
Nsg16
I2
sas.