(dp0
S'parentFilename'
p1
S'intercept37.4128_4.1625_2.pickle'
p2
sS'time'
p3
NsS'filename'
p4
S'intercept37.4128_4.1625_2.4357_2.pickle'
p5
sS'seed'
p6
S'4357251298343931607'
p7
sS'fuzzer'
p8
S'Radamsa'
p9
sS'networkData'
p10
(lp11
(dp12
S'timeouts'
p13
I0
sS'from'
p14
S'cli'
p15
sS'data'
p16
S'\x10\x1c\x00\x04MQTT\x04\x02\x00<\x00\x10subpub-qos1-test'
p17
sS'index'
p18
I0
sS'latency'
p19
Nsa(dp20
g13
I0
sg14
S'srv'
p21
sg16
S' \x02\x00\x00'
p22
sg18
I1
sg19
F0.0002292543649673462
sa(dp23
g19
Nsg14
g15
sg18
I2
sg13
I0
sS'isFuzzed'
p24
I01
sg16
S'\x82\x10\x02\x12\x00\x0bsubpub/qos\xc0\xb11<-8\x01'
p25
sa(dp26
g13
I0
sg14
g21
sg16
S'\x90\x03\x02\x12\x01'
p27
sg18
I3
sg19
F4.649162292480469e-05
sa(dp28
g19
Nsg14
g15
sg18
I4
sg13
I0
sS'isFuzzed'
p29
I01
sg16
S'2\x16\x00\x0bsubpu\xf3\xa0\x81\x81b/qos1\x01,mes\xf3\xa0\x81\x9esage'
p30
sa(dp31
g13
I0
sg14
g21
sg16
S'@\x02\x01,'
p32
sg18
I5
sg19
F0.0038279294967651367
sa(dp33
g13
I0
sg14
g21
sg16
S'2\x16\x00\x0bsubpub/qos1\x00\x01message'
p34
sg18
I6
sg19
Nsas.