(dp0
S'parentFilename'
p1
S'intercept51.pickle'
p2
sS'time'
p3
NsS'filename'
p4
S'intercept51.7690_2.pickle'
p5
sS'seed'
p6
S'7690575913140161855'
p7
sS'fuzzer'
p8
S'Radamsa'
p9
sS'networkData'
p10
(lp11
(dp12
S'timeouts'
p13
I0
sS'data'
p14
S'\x10\x19\x00\x04MQTT\x04\x00\x00<\x00\rflipflop-test'
p15
sS'from'
p16
S'cli'
p17
sS'latency'
p18
NsS'index'
p19
I0
sa(dp20
g13
I0
sg14
S' \x02\x00\x00'
p21
sg16
S'srv'
p22
sg18
F0.00010204315185546875
sg19
I1
sa(dp23
g18
Nsg16
g17
sg19
I2
sg13
I0
sS'isFuzzed'
p24
I01
sg14
S'\x82\x12\x00\x01\x00\rflipflopV/test\x01'
p25
sa(dp26
g13
I0
sg14
S'\x90\x03\x00\x01\x01'
p27
sg16
g22
sg18
F5.793571472167969e-05
sg19
I3
sas.