(dp0
S'parentFilename'
p1
S'intercept179.pickle'
p2
sS'time'
p3
NsS'filename'
p4
S'intercept179.1155_2.pickle'
p5
sS'seed'
p6
S'11557658800477007570'
p7
sS'fuzzer'
p8
S'Radamsa'
p9
sS'networkData'
p10
(lp11
(dp12
S'timeouts'
p13
I0
sS'data'
p14
S'\x10,\x00\x04MQTT\x04\x82\x00\n\x00\x16connect-uname-pwd-test\x00\x08readonly'
p15
sS'from'
p16
S'cli'
p17
sS'latency'
p18
NsS'index'
p19
I0
sa(dp20
g13
I0
sg14
S' \x02\x00\x00'
p21
sg16
S'srv'
p22
sg18
F6.0265482813487425e-05
sg19
I1
sa(dp23
g18
Nsg16
g17
sg19
I2
sg13
I0
sS'isFuzzed'
p24
I01
sg14
S'\x82\x0e\x003\x00\tqos0/test\x00'
p25
sa(dp26
g13
I0
sg14
S'\x90\x03\x005\x00'
p27
sg16
g22
sg18
F2.1557993022724986e-05
sg19
I3
sa(dp28
g13
I0
sg14
S'\x82\x06\x006\x00\x01#\x00'
p29
sg16
g17
sg18
Nsg19
I4
sa(dp30
g13
I0
sg14
S'\x90\x03\x006\x00'
p31
sg16
g22
sg18
F4.919618368148804e-05
sg19
I5
sas.