(dp0
S'parentFilename'
p1
S'intercept118.1329_2.pickle'
p2
sS'time'
p3
NsS'filename'
p4
S'intercept118.1329_2.9618_2.pickle'
p5
sS'seed'
p6
S'9618934756713649685'
p7
sS'fuzzer'
p8
S'Radamsa'
p9
sS'networkData'
p10
(lp11
(dp12
S'timeouts'
p13
I0
sS'from'
p14
S'cli'
p15
sS'data'
p16
S'\x10\x17\x00\x04MQTT\x04\x02\x00<\x00\x0btest-helper'
p17
sS'index'
p18
I0
sS'latency'
p19
Nsa(dp20
g13
I0
sg14
S'srv'
p21
sg16
S' \x02\x00\x00'
p22
sg18
I1
sg19
F1.4066696166992188e-05
sa(dp23
g19
Nsg14
g15
sg18
I2
sg13
I0
sS'isFuzzed'
p24
I01
sg16
S'0\x11\xff\x08fge'
p25
sas.