(dp0
S'parentFilename'
p1
S'intercept37.1822_0.1179_0.pickle'
p2
sS'time'
p3
NsS'filename'
p4
S'intercept37.1822_0.1179_0.2510_2.pickle'
p5
sS'seed'
p6
S'2510180809331467178'
p7
sS'fuzzer'
p8
S'Radamsa'
p9
sS'networkData'
p10
(lp11
(dp12
S'latency'
p13
NsS'from'
p14
S'cli'
p15
sS'index'
p16
I0
sS'timeouts'
p17
I0
sS'isFuzzed'
p18
I01
sS'data'
p19
S'\x10\x1c\x00\x04MQST\x04\x02\x00<\x10\x18subpua%qos1-test'
p20
sa(dp21
g17
I0
sg14
S'srv'
p22
sg19
S' \x02\x00\x00'
p23
sg16
I1
sg13
Nsa(dp24
g16
I2
sg14
g15
sg13
Nsg17
I0
sS'isFuzzed'
p25
I01
sg19
S'\x82\x10\x02\x12\x00\x0bsubpub/qos1\x01'
p26
sa(dp27
g17
I0
sg14
g22
sg19
S'\x90\x03\x02\x12\x01'
p28
sg16
I3
sg13
Nsa(dp29
g17
I0
sg14
g15
sg19
S'2\x16\x00\x0bsubpub/qos1\x01,message'
p30
sg16
I4
sg13
Nsa(dp31
g17
I0
sg14
g22
sg19
S'@\x02\x01,'
p32
sg16
I5
sg13
Nsa(dp33
g17
I0
sg14
g22
sg19
S'2\x16\x00\x0bsubpub/qos1\x00\x01message'
p34
sg16
I6
sg13
Nsas.