(dp0
S'parentFilename'
p1
S'intercept80.1394_7.8061_7.pickle'
p2
sS'time'
p3
NsS'filename'
p4
S'intercept80.1394_7.8061_7.7802_5.pickle'
p5
sS'seed'
p6
S'780255699387144391'
p7
sS'fuzzer'
p8
S'Radamsa'
p9
sS'networkData'
p10
(lp11
(dp12
S'timeouts'
p13
I0
sS'from'
p14
S'cli'
p15
sS'data'
p16
S'\x10\x1c\x00\x04MQTT\x04\x02\x00<\x00\x10pattern-sub-test'
p17
sS'index'
p18
I0
sS'latency'
p19
Nsa(dp20
g13
I0
sg14
S'srv'
p21
sg16
S' \x02\x00\x00'
p22
sg18
I1
sg19
Nsa(dp23
g13
I0
sg14
g15
sg16
S'\x82\n\x018\x00\x05foo/#\x00'
p24
sg18
I2
sg19
Nsa(dp25
g13
I0
sg14
g21
sg16
S'\x90\x03\x018\x00'
p26
sg18
I3
sg19
Nsa(dp27
g13
I0
sg14
g21
sg16
S'0\x14\x00\x0bfoo/bar/bazmessage'
p28
sg18
I4
sg19
Nsa(dp29
g18
I5
sg14
g15
sg19
Nsg13
I0
sS'isFuzzed'
p30
I01
sg16
S'\xa2\t\x00\x00\x00\xea\xc0\x80\xc0\x85\xc0\x80\xc0\x86%'
p31
sa(dp32
g13
I0
sg14
g21
sg16
S'\xb0\x02\x00\xea'
p33
sg18
I6
sg19
Nsa(dp34
g19
Nsg14
g15
sg18
I7
sg13
I0
sS'isFuzzed'
p35
I01
sg16
S'\x82\n\x012147483648\x00\x05foo3'
p36
sa(dp37
g13
I0
sg14
g21
sg16
S'\x90\x03\x018\x00'
p38
sg18
I8
sg19
Nsa(dp39
g13
I0
sg14
g21
sg16
S'1\x14\x00\x0bfoo/bar/bazmessage'
p40
sg18
I9
sg19
Nsas.