(dp0
S'parentFilename'
p1
S'intercept131.1516_0.pickle'
p2
sS'time'
p3
NsS'filename'
p4
S'intercept131.1516_0.5294_0.pickle'
p5
sS'seed'
p6
S'5294265470124026980'
p7
sS'fuzzer'
p8
S'Radamsa'
p9
sS'networkData'
p10
(lp11
(dp12
S'latency'
p13
NsS'from'
p14
S'cli'
p15
sS'index'
p16
I0
sS'timeouts'
p17
I0
sS'isFuzzed'
p18
I01
sS'data'
p19
S'\x10est'
p20
sa(dp21
g17
I0
sg14
S'srv'
p22
sg19
S' \x02\x00\x00'
p23
sg16
I1
sg13
F0.00013303756713867188
sa(dp24
g17
I0
sg14
g15
sg19
S'\x82\x0f\x018\x00\nfoo//baz/#\x00'
p25
sg16
I2
sg13
Nsa(dp26
g17
I0
sg14
g22
sg19
S'\x90\x03\x018\x00'
p27
sg16
I3
sg13
F7.510185241699219e-05
sa(dp28
g17
I0
sg14
g22
sg19
S'1\x13\x00\nfoo//baz//message1\x15\x00\x0cfoo//baz/barmessage1\x11\x00\x08foo//bazmessage'
p29
sg16
I4
sg13
F0.041931867599487305
sa(dp30
g17
I1
sg14
g22
sg19
S'0\x15\x00\x0cfoo//baz/barmessage'
p31
sg16
I5
sg13
Nsa(dp32
g17
I0
sg14
g15
sg19
g31
sg16
I6
sg13
Nsas.