(dp0
S'parentFilename'
p1
S'intercept3.1680_0.1535_0.pickle'
p2
sS'time'
p3
NsS'filename'
p4
S'intercept3.1680_0.1535_0.1819_0.pickle'
p5
sS'seed'
p6
S'18196901887027638942'
p7
sS'fuzzer'
p8
S'Radamsa'
p9
sS'networkData'
p10
(lp11
(dp12
S'latency'
p13
NsS'from'
p14
S'cli'
p15
sS'index'
p16
I0
sS'timeouts'
p17
I0
sS'isFuzzed'
p18
I01
sS'data'
p19
S'\x10\x0c"\x00\x06M)QIsdp\x00\xe6\x02\x00\n\x00\x14connect-invalid-tes\xe2\x80\xa8t'
p20
sa(dp21
g17
I0
sg14
S'srv'
p22
sg19
S' \x02\x00\x01'
p23
sg16
I1
sg13
Nsas.