(dp0
S'parentFilename'
p1
S'intercept56.3522_4.3777_6.pickle'
p2
sS'time'
p3
NsS'filename'
p4
S'intercept56.3522_4.3777_6.7417_6.pickle'
p5
sS'seed'
p6
S'7417697956105816124'
p7
sS'fuzzer'
p8
S'Radamsa'
p9
sS'networkData'
p10
(lp11
(dp12
S'timeouts'
p13
I0
sS'from'
p14
S'cli'
p15
sS'data'
p16
S'\x10\x19\x00\x04MQTT\x04\x02\x00<\x00\rsubhier-crash'
p17
sS'index'
p18
I0
sS'latency'
p19
Nsa(dp20
g13
I0
sg14
S'srv'
p21
sg16
S' \x02\x00\x00'
p22
sg18
I1
sg19
F0.00016230344772338867
sa(dp23
g13
I0
sg14
g15
sg16
S'\x82\x0c\x00\x01\x00\x07topic/a\x00'
p24
sg18
I2
sg19
Nsa(dp25
g13
I0
sg14
g21
sg16
S'\x90\x03\x00\x01\x00'
p26
sg18
I3
sg19
F9.463727474212646e-05
sa(dp27
g19
Nsg14
g15
sg18
I4
sg13
I0
sS'isFuzzed'
p28
I01
sg16
S'\x07topic/\xca\xb3b\x00'
p29
sa(dp30
g13
I0
sg14
g21
sg16
S'\x90\x03\x00\x02\x00'
p31
sg18
I5
sg19
Nsa(dp32
g19
Nsg14
g15
sg18
I6
sg13
I0
sS'isFuzzed'
p33
I01
sg16
S'\xa2\x0b\x00\x03\x00\x07topic/a'
p34
sa(dp35
g13
I0
sg14
g21
sg16
S'\xb0\x02\x00\x03'
p36
sg18
I7
sg19
Nsa(dp37
g13
I0
sg14
g15
sg16
S'\xe0\x00'
p38
sg18
I8
sg19
Nsas.