(dp0
S'parentFilename'
p1
S'intercept187.1577_0.pickle'
p2
sS'time'
p3
NsS'filename'
p4
S'intercept187.1577_0.6717_0.pickle'
p5
sS'seed'
p6
S'6717028463441747479'
p7
sS'fuzzer'
p8
S'Radamsa'
p9
sS'networkData'
p10
(lp11
(dp12
S'latency'
p13
NsS'from'
p14
S'cli'
p15
sS'index'
p16
I0
sS'timeouts'
p17
I0
sS'isFuzzed'
p18
I01
sS'data'
p19
S'\x10C\x00\x04M\xce\x90QTT\x04\xc2\x00\n\x00\x16co\xe2\x80\x8dnn\xf3\xa0\x81\x99ect-unatt\xf0\x9d\x85\xa0er'
p20
sa(dp21
g17
I0
sg14
S'srv'
p22
sg19
S' \x02\x00\x00'
p23
sg16
I1
sg13
F0.00010895729064941406
sas.