(dp0
S'parentFilename'
p1
S'intercept17.1424_0.pickle'
p2
sS'time'
p3
NsS'filename'
p4
S'intercept17.1424_0.1647_0.pickle'
p5
sS'seed'
p6
S'1647479012578886804'
p7
sS'fuzzer'
p8
S'Radamsa'
p9
sS'networkData'
p10
(lp11
(dp12
S'latency'
p13
NsS'from'
p14
S'cli'
p15
sS'index'
p16
I0
sS'timeouts'
p17
I0
sS'isFuzzed'
p18
I01
sS'data'
p19
S'\x10\x04MQTT\x04\x82\x00\n\x00\x12connect-unamect-unest\x00\x04user'
p20
sa(dp21
g17
I0
sg14
S'srv'
p22
sg19
S' \x02\x00\x00'
p23
sg16
I1
sg13
Nsas.