(dp0
S'parentFilename'
p1
S'intercept61.1823_2.pickle'
p2
sS'time'
p3
NsS'filename'
p4
S'intercept61.1823_2.9568_4.pickle'
p5
sS'seed'
p6
S'956895880691266590'
p7
sS'fuzzer'
p8
S'Radamsa'
p9
sS'networkData'
p10
(lp11
(dp12
S'timeouts'
p13
I0
sS'data'
p14
S'\x10\x19\x00\x04MQTT\x04\x02\x00<\x00\rpub-qos2-test'
p15
sS'from'
p16
S'cli'
p17
sS'latency'
p18
NsS'index'
p19
I0
sa(dp20
g13
I0
sg14
S' \x02\x00\x00'
p21
sg16
S'srv'
p22
sg18
F0.0001259446144104004
sg19
I1
sa(dp23
g18
Nsg16
g17
sg19
I2
sg13
I0
sS'isFuzzed'
p24
I01
sg14
S'4\x18\x00\rpub/qos2/test\x018message'
p25
sa(dp26
g13
I0
sg14
S'P\x02\x018'
p27
sg16
g22
sg18
F0.00010341405868530273
sg19
I3
sa(dp28
g18
Nsg16
g17
sg19
I4
sg13
I0
sS'isFuzzed'
p29
I01
sg14
S'b\x02b\x02\x01\x018'
p30
sa(dp31
g13
I0
sg14
S'p\x02\x018'
p32
sg16
g22
sg18
F3.0994415283203125e-05
sg19
I5
sas.