(dp0
S'parentFilename'
p1
S'intercept137.pickle'
p2
sS'time'
p3
NsS'filename'
p4
S'intercept137.3015_0.pickle'
p5
sS'seed'
p6
S'3015690250721902213'
p7
sS'fuzzer'
p8
S'Radamsa'
p9
sS'networkData'
p10
(lp11
(dp12
S'latency'
p13
NsS'from'
p14
S'cli'
p15
sS'index'
p16
I0
sS'timeouts'
p17
I0
sS'isFuzzed'
p18
I01
sS'data'
p19
S'\x10\x1c\x00\x04MQTT\x04\x02\x1d\x00<\x00\x10pattern-sub\xf3\xa0\x81\xa6-tern-sub\xf3\xa0\x81\xa6-test'
p20
sa(dp21
g17
I0
sg19
S' \x02\x00\x00'
p22
sg14
S'srv'
p23
sg13
F4.3511390686035156e-05
sg16
I1
sa(dp24
g17
I0
sg19
S'\x82\x07\x018\x00\x02/#\x00'
p25
sg14
g15
sg13
Nsg16
I2
sa(dp26
g17
I0
sg19
S'\x90\x03\x018\x00'
p27
sg14
g23
sg13
F3.910064697265625e-05
sg16
I3
sa(dp28
g17
I0
sg19
S'1\x14\x00\x0b/test/topicmessage1\x1a\x00\x11/test////a//topicmessage1\r\x00\x04/foomessage'
p29
sg14
g23
sg13
F0.042589545249938965
sg16
I4
sa(dp30
g17
I1
sg19
S'0\x16\x00\r////foo///barmessage'
p31
sg14
g23
sg13
Nsg16
I5
sa(dp32
g17
I0
sg19
g31
sg14
g15
sg13
Nsg16
I6
sas.