(dp0
S'parentFilename'
p1
S'intercept112.1688_0.4093_0.1366_2.pickle'
p2
sS'time'
p3
NsS'filename'
p4
S'intercept112.1688_0.4093_0.1366_2.1491_2.pickle'
p5
sS'seed'
p6
S'14914521610501786652'
p7
sS'fuzzer'
p8
S'Radamsa'
p9
sS'networkData'
p10
(lp11
(dp12
S'latency'
p13
NsS'from'
p14
S'cli'
p15
sS'index'
p16
I0
sS'timeouts'
p17
I0
sS'isFuzzed'
p18
I01
sS'data'
p19
S'\x10\x17\xff\x04MQTT\x04\x02\x00<\x00\x0btest-\xe2\x80\xafhelper'
p20
sa(dp21
g17
I0
sg14
S'srv'
p22
sg19
S' \x02\x00\x00'
p23
sg16
I1
sg13
Nsa(dp24
g16
I2
sg14
g15
sg13
Nsg17
I0
sS'isFuzzed'
p25
I01
sg19
S'65535\xe0\xb9\x82\x1a\x00\x11/test////a//toppppicmessageeeeeeeessageeeeeeeeeeeeeeeeeeest////a//toppppicmessageeeeeeeeeeeeeeeeeeeeeeeeeeeeeeeeeeeee'
p26
sas.