(dp0
S'parentFilename'
p1
S'intercept47.pickle'
p2
sS'time'
p3
NsS'filename'
p4
S'intercept47.1429_0.pickle'
p5
sS'seed'
p6
S'1429757260723765034'
p7
sS'fuzzer'
p8
S'Radamsa'
p9
sS'networkData'
p10
(lp11
(dp12
S'latency'
p13
NsS'from'
p14
S'cli'
p15
sS'index'
p16
I0
sS'timeouts'
p17
I0
sS'isFuzzed'
p18
I01
sS'data'
p19
S'\x10-\x00\x04MQTT\x04\x02\x00<\x00!suncubsribe-invalid-no-topic-test'
p20
sa(dp21
g17
I0
sg19
S' \x02\x00\x00'
p22
sg14
S'srv'
p23
sg13
F0.0001256316900253296
sg16
I1
sa(dp24
g17
I0
sg19
S'\xa2\x02\x00\x03'
p25
sg14
g15
sg13
Nsg16
I2
sas.