(dp0
S'parentFilename'
p1
S'intercept156.3201_0.1095_0.pickle'
p2
sS'time'
p3
NsS'filename'
p4
S'intercept156.3201_0.1095_0.9973_2.pickle'
p5
sS'seed'
p6
S'9973181975080322634'
p7
sS'fuzzer'
p8
S'Radamsa'
p9
sS'networkData'
p10
(lp11
(dp12
S'latency'
p13
NsS'from'
p14
S'cli'
p15
sS'index'
p16
I0
sS'timeouts'
p17
I0
sS'isFuzzed'
p18
I01
sS'data'
p19
S'\x10\x17\x00\xc0\x84MQs\xc9p\x00e\x02T\x0btTh\x04\x00tyle-e'
p20
sa(dp21
g17
I0
sg14
S'srv'
p22
sg19
S' \x02\x00\x00'
p23
sg16
I1
sg13
Nsa(dp24
g16
I2
sg14
g15
sg13
Nsg17
I0
sS'isFuzzed'
p25
I01
sg19
S'18446744073709551617\x00\x17qos255/clean_sestion/t18446744073709551617\x00\x17qos255/clean_sestion/t18446744073709551617\x00\x17qos255/clean_sestion/t18446744073709551617\x00\x17qos255/clean_sestion/t18446744073709551617\x00\x17qos255/clean_sestion/t18446744073709551617\x00\x17qos255/clean_sestion/t18446744073709551617\x00\x17qos255/clean_sestion/t18446744073709551617\x00\x17qos255/clean_sestion/t18446744073709551617\x00\x17qos255/clean_sestion/t18446744073709551617\x00\x17qos255/clean_sestion/t18446744073709551617\x00\x17qos255/clean_sestion/t18446744073709551617\x00\x17qos255/clean_sestion/t18446744073709551617\x00\x17qos255/clean_sestion/t18446744073720196396\x00\x17qos255/clean_sestion/t18446744073709551617\x00\x17qos255/clean_sestion/t18446744073709551617\x00\x17qos255/clean_sestion/t18446744073709551617\x00\x17qos255/clean_sestion/t18446744073709551617\x00\x17qos255/clean_sestion/t18446744073709551617\x00\x17qos255/clean_sestion/t18446744073709551617\x00\x17qos255/clean_sestion/t18446744073709551617\x00\x17qos255/clean_sestion/t18446744073709551617\x00\x17qos255/clean_sestion/t18474047097635451617\x00\x17qos255/clean_sestion/t18446744073709551617\x00\x17qos255/clean_sestion/t18446744073709551617\x00\x17qos255/clean_sestion/t18446744073709551617\x00\x17qos255/clean_sestion/t18446744073709551617\x00\x17qos2147483904/clean_sestion/t18446744073709551617\x00\x17qos255/clean_sestion/t18446744073709551617\x00\x17qos255/clean_sestion/t18446744073709551617\x00\x17qos255/clean_sestion/t18446744073709551617\x00\x17qos255/clean_sestion/t18446744073709551617\x00\x17qos255/clean_sestion/t18446744073709551617\x00\x17qos255/clean_sestion/t18446744073709551617\x00\x17qos255/clean_sestion/t18446744073709551617\x00\x17qos255/clean_sestion/t18446744073709551617\x00\x17qos255/clean_sestion/t18446744073709551617\x00\x17qos255/clean_sestion/t18446744073709551617\x00\x17qos255/clean_sestion/t18446744073709551617\x00\x17qos255/clean_sestion/t18446744073709551617\x00\x17qos255/clean_sestion/t18446744073709551617\x00\x17qos255/clean_sestion/t18446744073709551617\x00\x17qos255/clean_sestion/t18446744073709551617\x00\x17qos255/clean_sestion/t18446744073709551617\x00\x17qos255/clean_sestion/t18446744073709551617\x00\x17qos255/clean_sestion/t18446744073709551617\x00\x17qos255/clean_sestion/t18446744073709551617\x00\x17qos255/clean_sestion/t18446744073709551617\x00\x17qos255/clean_sestion/t18446744073709551617\x00\x17qos255/clean_sestion/t18446744073709551617\x00\x17qos255/clean_sestion/t18446744073709551617\x00\x17qos255/clean_sestion/t18446744073709551617\x00\x17qos255/clean_sestion/t18446744073709551617\x00\x17qos255/clean_sestion/t18446744073709551617\x00\x17qos255/clean_sestion/t18446744073709551617\x00\x17qos255/clean_sestion/t18446744073709551617\x00\x17qos255/clean_sestion/t18446744073709551617\x00\x17qos255/clean_sestion/t18446744073709551617\x00\x17qos255/clean_sestion/t18446744073709551617\x00\x17qos255/clean_sestion/t18446744073709551617\x00\x17qos255/clean_sestion/t18446744073709551617\x00\x17qos255/clean_sestion/t18446744073709551617\x00\x17qos255/clean_sestion/t18446744073709551617\x00\x17qos255/clean_sestion/t18446744073709551617\x00\x17qos255/clean_sestion/t18446744073709551617\x00\x17qos255/clean_sestion/t18446744073709551617\x00\x17qos255/clean_sestion/t18446744073709551617\x00\x17qos255/clean_sestion/t18446744073709551617\x00\x17qos255/clean_sestion/t18446744073709551617\x00\x17qos255/clean_sestion/t18446744073709551617\x00\x17qos255/clean_sestion/t18446744073709551617\x00\x17qos255/clean_sestion/t18446744073709551617\x00\x17qos255/clean_sestion/t18446744073709551617\x00\x17qos255/clean_sestion/t18446744073709551617\x00\x17qos255/clean_sestion/t18446744073709551617\x00\x17qos255/clean_sestion/t18446744073709551617\x00\x17qos255/clean_sestion/t18446744073709551617\x00\x17qos255/clean_sestion/t18446744073709551617\x00\x17qos255/clean_sestion/t18446744073709551617\x00\x17qos255/clean_sestion/t18446744073709551617\x00\x17qos255/clean_sestion/t18446744073709551617\x00\x17qos255/clean_sestion/t18446744073709551617\x00\x17qos255/clean_sestion/t18446744073709551617\x00\x17qos255/clean_sestion/t18446744073709551617\x00\x17qos255/clean_sestion/t18446744073709551617\x00\x17qos255/clean_sestion/t18446744073709551617\x00\x17qos255/clean_sestion/t18446744073709551617\x00\x17qos255/clean_sestion/t18446744073709551617\x00\x17qos255/clean_sestion/t18446744073709551617\x00\x17qos255/clean_sestion/t18446744073709551617\x00\x17qos255/clean_sestion/t18446744073709551617\x00\x17qos255/clean_sestion/t18446744073709551617\x00\x17qos255/clean_sestion/t18446744073709551617\x00\x17qos255/clean_sestion/t18446744073709551617\x00\x17qos255/clean_sestion/t18446744073709551617\x00\x17qos255/clean_sestion/t18446744073709551617\x00\x17qos255/clean_sestion/t18446744073709551617\x00\x17qos255/clean_sestion/t18446744073709551617\x00\x17qos255/clean_sestion/t18446744073709551617\x00\x17qos255/clean_sestion/t18446744073709551617\x00\x17qos255/clean_sestion/t18446744073709551617\x00\x17qos255/clean_sestion/t18446744073709551617\x00\x17qos255/clean_sestion/t18446744073709551617\x00\x17qos255/clean_sestion/t18446744073709551617\x00\x17qos255/clean_sestion/t18446744073709551617\x00\x17qos255/clean_sestion/t18446744073709551617\x00\x17qos255/clean_sestion/t18446744073709551617\x00\x17qos255/clean_sestion/t18446744073709551617\x00\x17qos255/clean_sestion/t18446744073709551617\x00\x17qos255/clean_sestion/t18446744073709551617\x00\x17qos255/clean_sestion/t18446744073709551617\x00\x17qos255/clean_sestion/t18446744073709551617\x00\x17qos255/clean_sestion/t18446744073709551617\x00\x17qos255/clean_sestion/t18446744073709551617\x00\x17qos255/clean_sestion/t18446744073709551617\x00\x17qos255/clean_sestion/t18446744073709551617\x00\x17qos255/clean_sestion/t18446744073709551617\x00\x17qos255/clean_sestion/t18446744073709551617\x00\x17qos255/clean_sestion/t18446744073709551617\x00\x17qos255/clean_sestion/t18446744073709551617\x00\x17qos255/clean_sestion/t18446744073709551617\x00\x17qos255/clean_sestion/t18446744073709551617\x00\x17qos255/clean_sestion/t18446744073709551617\x00\x17qos255/clean_sestion/t18446744073709551617\x00\x17qos255/clean_sestion/t18446744073709551617\x00\x17qos255/clean_sestion/t18446744073709551617\x00\x17qos255/clean_sestion/t18446744073709551617\x00\x17qos255/clean_sestion/t18446744073709551617\x00\x17qos255/clean_sestion/t18446744073709551617\x00\x17qos255/clean_sestion/t18446744073709551617\x00\x17qos255/clean_sestion/t18446744073709551617\x00\x17qos255/clean_sestion/t18446744073709551617\x00\x17qos255/clean_sestion/t18446744073709551617\x00\x17qos255/clean_sestion/t18446744073709551617\x00\x17qos255/clean_sestion/t18446744073709551617\x00\x17qos255/clean_sestion/t18446744073709551617\x00\x17qos255/clean_sestion/t18446744073709551617\x00\x17qos255/clean_sestion/t18446744073709551617\x00\x17qos255/clean_sestion/t18446744073709551617\x00\x17qos255/clean_sestion/t18446744073709551617\x00\x17qos255/clean_sestion/t18446744073709551617\x00\x17qos255/clean_sestion/t18446744073709551617\x00\x17qos255/clean_sestion/t18446744073709551617\x00\x17qos255/clean_sestion/t18446744073709551617\x00\x17qos255/clean_sestion/t18446744073709551617\x00\x17qos255/clean_sestion/t18446744073709551617\x00\x17qos255/clean_sestion/t18446744073709551617\x00\x17qos255/clean_sestion/t18446744073709551617\x00\x17qos255/clean_sestion/t18446744073709551617\x00\x17qos255/clean_sestion/t18446744073709551617\x00\x17qos255/clean_sestion/t18446744073709551617\x00\x17qos255/clean_sestion/t18446744073709551617\x00\x17qos255/clean_sestion/t18446744073709551617\x00\x17qos255/clean_sestion/t18446744073709551617\x00\x17qos255/clean_sestion/t18446744073709551617\x00\x17qos255/clean_sestion/t18446744073709551617\x00\x17qos255/clean_sestion/t18446744073709551617\x00\x17qos255/clean_sestion/t18446744073709551617\x00\x17qos255/clean_sestion/t18446744073709551617\x00\x17qos255/clean_sestion/t18446744073709551617\x00\x17qos255/clean_sestion/t18446744073709551617\x00\x17qos255/clean_sestion/t18446744073709551617\x00\x17qos255/clean_sestion/t18446744073709551617\x00\x17qos255/clean_sestion/t18446744073709551617\x00\x17qos255/clean_sestion/t18446744073709551617\x00\x17qos255/clean_sestion/t18446744073709551617\x00\x17qos255/clean_sestion/t18446744073709551617\x00\x17qos255/clean_sestion/t18446744073709551617\x00\x17qos255/clean_sestion/t18446744073709551617\x00\x17qos255/clean_sestion/t18446744073709551617\x00\x17qos255/clean_sestion/t18446744073709551617\x00\x17qos255/clean_sestion/t18446744073709551617\x00\x17qos255/clean_sestion/t18446744073709551617\x00\x17qos255/clean_sestion/t18446744073709551617\x00\x17qos255/clean_sestion/t18446744073709551617\x00\x17qos255/clean_sestion/t18446744073709551617\x00\x17qos255/clean_sestion/t18446744073709551617\x00\x17qos255/clean_sestion/t18446744073709551617\x00\x17qos255/clean_sestion/t18446744073709551617\x00\x17qos255/clean_sestion/t18446744073709551617\x00\x17qos255/clean_sestion/t18446744073709551617\x00\x17qos255/clean_sestion/t18446744073709551617\x00\x17qos255/clean_sestion/t18446744073709551617\x00\x17qos255/clean_sestion/t18446744073709551617\x00\x17qos255/clean_sestion/t18446744073709551617\x00\x17qos255/clean_sestion/t18446744073709551617\x00\x17qos255/clean_sestion/t18446744073709551617\x00\x17qos255/clean_sestion/t18446744073709551617\x00\x17qos255/clean_sestion/t18446744073709551617\x00\x17qos255/clean_sestion/t18446744073709551617\x00\x17qos255/clean_sestion/t18446744073709551617\x00\x17qos255/clean_sestion/t18446744073709551617\x00\x17qos255/clean_sestion/t18446744073709551617\x00\x17qos255/clean_sestion/t18446744073709551617\x00\x17qos255/clean_sestion/t18446744073709551617\x00\x17qos255/clean_sestion/t18446744073709551617\x00\x17qos255/clean_sestion/t18446744073709551617\x00\x17qos255/clean_sestion/t18446744073709551617\x00\x17qos255/clean_sestion/t18446744073709551617\x00\x17qos255/clean_sestion/t18446744073709551617\x00\x17qos255/clean_sestion/t18446744073709551617\x00\x17qos255/clean_sestion/t18446744073709551617\x00\x17qos255/clean_sestion/t18446744073709551617\x00\x17qos255/clean_sestion/t18446744073709551617\x00\x17qos255/clean_sestion/t18446744073709551617\x00\x17qos255/clean_sestion/t18446744073709551617\x00\x17qos255/clean_sestion/t18446744073709551617\x00\x17qos255/clean_sestion/t18446744073709551617\x00\x17qos255/clean_sestion/t18446744073709551617\x00\x17qos255/clean_sestion/t18446744073709551617\x00\x17qos255/clean_sestion/t18446744073709551617\x00\x17qos255/clean_sestion/t18446744073709551617\x00\x17qos255/clean_sestion/t18446744073709551617\x00\x17qos255/clean_sestion/t18446744073709551617\x00\x17qos255/clean_sestion/t18446744073709551617\x00\x17qos255/clean_sestion/t18446744073709551617\x00\x17qos255/clean_sestion/t18446744073709551617\x00\x17qos255/clean_sestion/t18446744073709551617\x00\x17qos255/clean_sestion/t18446744073709551617\x00\x17qos255/clean_sestion/t18446744073709551617\x00\x17qos255/clean_sestion/t18446744073709551617\x00\x17qos255/clean_sestion/t18446744073709551617\x00\x17qos255/clean_sestion/t18446744073709551617\x00\x17qos255/clean_sestion/t18446744073709551617\x00\x17qos255/clean_sestion/t18446744073709551617\x00\x17qos255/clean_sestion/t18446744073709551617\x00\x17qos255/clean_sestion/t18446744073709551617\x00\x17qos255/clean_sestion/t18446744073709551617\x00\x17qos255/clean_sestion/t18446744073709551617\x00\x17qos255/clean_sestion/t18446744073709551617\x00\x17qos255/clean_sestion/t18446744073709551617\x00\x17qos255/clean_sestion/t18446744073709551617\x00\x17qos255/clean_sestion/t18446744073709551617\x00\x17qos255/clean_sestion/t18446744073709551617\x00\x17qos255/clean_sestion/t18446744073709551617\x00\x17qos255/clean_sestion/t18446744073709551617\x00\x17qos255/clean_sestion/t18446744073709551617\x00\x17qos255/clean_sestion/t18446744073709551617\x00\x17qos255/clean_sestion/t18446744073709551617\x00\x17qos255/clean_sestion/t18446744073709551617\x00\x17qos255/clean_sestion/t18446744073709551617\x00\x17qos255/clean_sestion/t18446744073709551617\x00\x17qos255/clean_sestion/t18446744073709551617\x00\x17qos255/clean_sestion/t18446744073709551617\x00\x17qos255/clean_sestion/t18446744073709551617\x00\x17qos255/clean_sestion/t18446744073709551617\x00\x17qos255/clean_sestion/t18446744073709551617\x00\x17qos255/clean_sestion/t18446744073709551617\x00\x17qos255/clean_sestion/t18446744073709551617\x00\x17qos255/clean_sestion/t18446744073709551617\x00\x17qos255/clean_sestion/t18446744073709551617\x00\x17qos255/clean_sestion/t18446744073709551617\x00\x17qos255/clean_sestion/t18446744073709551617\x00\x17qos255/clean_sestion/t18446744073709551617\x00\x17qos255/clean_sestion/t18446744073709551617\x00\x17qos255/clean_sestion/t18446744073709551617\x00\x17qos255/clean_sestion/t18446744073709551617\x00\x17qos255/clean_sestion/t18446744073709551617\x00\x17qos255/clean_sestion/t18446744073709551617\x00\x17qos255/clean_sestion/t18446744073709551617\x00\x17qos255/clean_sestion/t18446744073709551617\x00\x17qos255/clean_sestion/t18446744073709551617\x00\x17qos255/clean_sestion/t18446744073709551617\x00\x17qos255/clean_sestion/t18446744073709551617\x00\x17qos255/clean_sestion/t18446744073709551617\x00\x17qos255/clean_sestion/t18446744073709551617\x00\x17qos255/clean_sestion/t18446744073709551617\x00\x17qos255/clean_sestion/t18446744073709551617\x00\x17qos255/clean_sestion/t18446744073709551617\x00\x17qos255/clean_sestion/t18446744073709551617\x00\x17qos255/clean_sestion/t18446744073709551617\x00\x17qos255/clean_sestion/t18446744073709551617\x00\x17qos255/clean_sestion/t18446744073709551617\x00\x17qos255/clean_sestion/t18446744073709551617\x00\x17qos255/clean_sestion/t18446744073709551617\x00\x17qos255/clean_sestion/t18446744073709551617\x00\x17qos255/clean_sestion/test\x00\x80clean-session-message'
p26
sa(dp27
g17
I0
sg14
g22
sg19
S'@\x02\x00\x80'
p28
sg16
I3
sg13
Nsas.