(dp0
S'serverpid'
p1
I7622
sS'asanOutput'
p2
NsS'reallydead'
p3
I-11
sS'signum'
p4
I0
sS'exitcode'
p5
I0
sS'fuzzerPos'
p6
S'C'
p7
sS'corpusData'
p8
(dp9
S'parentFilename'
p10
S'intercept68.1605_4.pickle'
p11
sS'time'
p12
NsS'filename'
p13
S'intercept68.1605_4.5075_0.pickle'
p14
sS'seed'
p15
S'5075484644730159485'
p16
sS'fuzzer'
p17
S'Radamsa'
p18
sS'networkData'
p19
(lp20
(dp21
S'latency'
p22
NsS'from'
p23
S'cli'
p24
sS'index'
p25
I0
sS'timeouts'
p26
I0
sS'isFuzzed'
p27
I01
sS'data'
p28
S'\x10!\xe3\x81\xa8\x01\x06MQIsdp\x03\x00\x00\x13pub-qos-18446744073709551616\xc0\xb40282366920938463463374607431768210457-disco\xed\xba\xad-test'
p29
sa(dp30
g26
I0
sg28
S' \x02\x00\x00'
p31
sg23
S'srv'
p32
sg22
Nsg25
I1
sa(dp33
g26
I0
sg28
S'<*\x00\x14qos2/disconnect/test\x00\x01disconnect-message'
p34
sg23
g24
sg22
Nsg25
I2
sa(dp35
g26
I0
sg28
S'P\x02\x00\x01'
p36
sg23
g32
sg22
Nsg25
I3
sa(dp37
g22
Nsg23
g24
sg25
I4
sg26
I0
sS'isFuzzed'
p38
I01
sg28
S'\xf3\xa0\x80\xf3\xa0\x81\x00\xcb\xaec\xa9\x92\xe2\x02\x01'
p39
sa(dp40
g26
I0
sg28
S'p\x02\x00\x01'
p41
sg23
g32
sg22
Nsg25
I5
sassg13
S'intercept68.1605_4.5075_0.5075_0.crash'
p42
s.