(dp0
S'serverpid'
p1
I6588
sS'asanOutput'
p2
NsS'reallydead'
p3
I-11
sS'signum'
p4
I0
sS'exitcode'
p5
I0
sS'fuzzerPos'
p6
S'C'
p7
sS'corpusData'
p8
(dp9
S'parentFilename'
p10
S'intercept61.1791_2.1518_2.pickle'
p11
sS'time'
p12
NsS'filename'
p13
S'intercept61.1791_2.1518_2.2694_4.pickle'
p14
sS'seed'
p15
S'2694369085737047735'
p16
sS'fuzzer'
p17
S'Radamsa'
p18
sS'networkData'
p19
(lp20
(dp21
S'timeouts'
p22
I0
sS'from'
p23
S'cli'
p24
sS'data'
p25
S'\x10\x19\x00\x04MQTT\x04\x02\x00<\x00\rpub-qos2-test'
p26
sS'index'
p27
I0
sS'latency'
p28
Nsa(dp29
g22
I0
sg23
S'srv'
p30
sg25
S' \x02\x00\x00'
p31
sg27
I1
sg28
F3.0040740966796875e-05
sa(dp32
g28
Nsg23
g24
sg27
I2
sg22
I0
sS'isFuzzed'
p33
I01
sg25
S'4\x18\x00\rpub/qos9223372036854775811/\xe1\xbe\x82test\x018message'
p34
sa(dp35
g22
I0
sg23
g30
sg25
S'P\x02\x018'
p36
sg27
I3
sg28
F0.00017499923706054688
sa(dp37
g27
I4
sg23
g24
sg28
Nsg22
I0
sS'isFuzzed'
p38
I01
sg25
S'b\x02\x01170141183460469231731687303715884105737'
p39
sa(dp40
g22
I1
sg23
g30
sg25
S'p\x02\x018'
p41
sg27
I5
sg28
Nsassg13
S'intercept61.1791_2.1518_2.2694_4.2694_4.crash'
p42
s.