(dp0
S'serverpid'
p1
NsS'asanOutput'
p2
NsS'reallydead'
p3
NsS'signum'
p4
NsS'exitcode'
p5
NsS'fuzzerPos'
p6
S'C'
p7
sS'corpusData'
p8
(dp9
S'parentFilename'
p10
S'intercept189.pickle'
p11
sS'time'
p12
NsS'filename'
p13
S'intercept189.5101_0.pickle'
p14
sS'seed'
p15
S'5101677257700493055'
p16
sS'fuzzer'
p17
S'Radamsa'
p18
sS'networkData'
p19
(lp20
(dp21
S'latency'
p22
NsS'from'
p23
S'cli'
p24
sS'index'
p25
I0
sS'timeouts'
p26
I0
sS'isFuzzed'
p27
I01
sS'data'
p28
S'\x10C\x00\x04MQ\xf3\xa0\x80\xbcTT\x04\xc2\x00\n\x00\x16connecptaendue---wmst\x00\x10test-username@v\xff\xfe-34028236692093846346337460431768211458\x00\rdoesNotMat\xff\xff\x00\x00ter'
p29
sa(dp30
g26
I1
sg28
S' \x02\x00\x00'
p31
sg23
S'srv'
p32
sg22
Nsg25
I1
sassg13
S'intercept189.5101_0.5101_0.crash'
p33
s.