(dp0
S'serverpid'
p1
I27317
sS'asanOutput'
p2
NsS'reallydead'
p3
I-11
sS'signum'
p4
I0
sS'exitcode'
p5
I0
sS'fuzzerPos'
p6
S'B'
p7
sS'corpusData'
p8
(dp9
S'parentFilename'
p10
S'intercept100.2957_0.pickle'
p11
sS'time'
p12
NsS'filename'
p13
S'intercept100.2957_0.2044_2.pickle'
p14
sS'seed'
p15
S'2044575415560206463'
p16
sS'fuzzer'
p17
S'Radamsa'
p18
sS'networkData'
p19
(lp20
(dp21
S'latency'
p22
NsS'from'
p23
S'cli'
p24
sS'index'
p25
I0
sS'timeouts'
p26
I0
sS'isFuzzed'
p27
I01
sS'data'
p28
S'\x10\xf3\xa0\x80\xb6\xc2\xf3\xa0\x81\x8a\xb6\x17\x00<\x00\x0bt\xbeste\xe2\x80\xa9rt-helper'
p29
sa(dp30
g26
I1
sg28
S' \x02\x00\x00'
p31
sg23
S'srv'
p32
sg22
Nsg25
I1
sa(dp33
g22
Nsg23
g24
sg25
I2
sg26
I0
sS'isFuzzed'
p34
I01
sg28
S'2147483648\x14\x00\x0btest/topic/me\xf3\xa0\x81\x9cssage'
p35
sassg13
S'intercept100.2957_0.2044_2.2044_2.crash'
p36
s.