(dp0
S'serverpid'
p1
NsS'asanOutput'
p2
NsS'reallydead'
p3
NsS'signum'
p4
NsS'exitcode'
p5
NsS'fuzzerPos'
p6
S'C'
p7
sS'corpusData'
p8
(dp9
S'parentFilename'
p10
S'intercept153.1085_3.1047_2.pickle'
p11
sS'time'
p12
NsS'filename'
p13
S'intercept153.1085_3.1047_2.5200_0.pickle'
p14
sS'seed'
p15
S'5200728029309734121'
p16
sS'fuzzer'
p17
S'Radamsa'
p18
sS'networkData'
p19
(lp20
(dp21
S'latency'
p22
NsS'from'
p23
S'cli'
p24
sS'index'
p25
I0
sS'timeouts'
p26
I0
sS'isFuzzed'
p27
I01
sS'data'
p28
S'\x10\x1c\x00\x04MQTT\x04\x02\x00<\x00\x10retain-qos-18446744073709551615-test'
p29
sa(dp30
g26
I0
sg28
S' \x02\x00\x00'
p31
sg23
S'srv'
p32
sg22
F0.00011610984802246094
sg25
I1
sa(dp33
g22
Nsg23
g24
sg25
I2
sg26
I0
sS'isFuzzed'
p34
I01
sg28
S'1"\x00\x10ret\xf3\xa0\x80\xb8ain/qos0/testretained message'
p35
sa(dp36
g22
Nsg23
g24
sg25
I3
sg26
I0
sS'isFuzzed'
p37
I01
sg28
S'\x82\x15\xf3\xa0\x81\xa5\x00\x10\xf3\xa0\x81\xab\x00\x10ret\xf3\xa0\x81\x8bain\xef\xbf\xf3\xe2\x80\x87\xa0\xed\xaa\xad\x80\xb7\xbf/qos0/test\x01'
p38
sa(dp39
g26
I1
sg28
S'\x90\x03\x00\x10\x01'
p40
sg23
g32
sg22
Nsg25
I4
sassg13
S'intercept153.1085_3.1047_2.5200_0.5200_0.crash'
p41
s.