(dp0
S'serverpid'
p1
I14883
sS'asanOutput'
p2
NsS'reallydead'
p3
I-11
sS'signum'
p4
I0
sS'exitcode'
p5
I0
sS'fuzzerPos'
p6
S'C'
p7
sS'corpusData'
p8
(dp9
S'parentFilename'
p10
S'intercept57.1699_6.pickle'
p11
sS'time'
p12
NsS'filename'
p13
S'intercept57.1699_6.6057_4.pickle'
p14
sS'seed'
p15
S'6057559723115657725'
p16
sS'fuzzer'
p17
S'Radamsa'
p18
sS'networkData'
p19
(lp20
(dp21
S'timeouts'
p22
I0
sS'data'
p23
S'\x10\x19\x00\x04MQTT\x04\x02\x00<\x00\rsubhier-crash'
p24
sS'from'
p25
S'cli'
p26
sS'latency'
p27
NsS'index'
p28
I0
sa(dp29
g22
I0
sg23
S' \x02\x00\x00'
p30
sg25
S'srv'
p31
sg27
F0.00013709068298339844
sg28
I1
sa(dp32
g22
I0
sg23
S'\x82\x0c\x00\x01\x00\x07topic/a\x00'
p33
sg25
g26
sg27
Nsg28
I2
sa(dp34
g22
I0
sg23
S'\x90\x03\x00\x01\x00'
p35
sg25
g31
sg27
F0.0005869865417480469
sg28
I3
sa(dp36
g27
Nsg25
g26
sg28
I4
sg22
I0
sS'isFuzzed'
p37
I01
sg23
S'\x82\x04\x00\x02co\x07\x00\x00tib/p'
p38
sa(dp39
g22
I1
sg23
S'\x90\x03\x00\x02\x00'
p40
sg25
g31
sg27
Nsg28
I5
sa(dp41
g27
Nsg25
g26
sg28
I6
sg22
I0
sS'isFuzzed'
p42
I01
sg23
S'\xa2\x0b\x00\x03\x00\x07topi\xe2\x81\xa9c/a'
p43
sa(dp44
g22
I0
sg23
S'\xb0\x02\x00\x03'
p45
sg25
g31
sg27
Nsg28
I7
sa(dp46
g22
I0
sg23
S'\xe0\x00'
p47
sg25
g26
sg27
Nsg28
I8
sassg13
S'intercept57.1699_6.6057_4.6057_4.crash'
p48
s.