(dp0
S'serverpid'
p1
I7851
sS'asanOutput'
p2
NsS'reallydead'
p3
I-11
sS'signum'
p4
I0
sS'exitcode'
p5
I0
sS'fuzzerPos'
p6
S'B'
p7
sS'corpusData'
p8
(dp9
S'parentFilename'
p10
S'intercept79.1164_2.3432_2.pickle'
p11
sS'time'
p12
NsS'filename'
p13
S'intercept79.1164_2.3432_2.5808_2.pickle'
p14
sS'seed'
p15
S'5808973433117200617'
p16
sS'fuzzer'
p17
S'Radamsa'
p18
sS'networkData'
p19
(lp20
(dp21
S'timeouts'
p22
I0
sS'data'
p23
S'\x10\x17\x00\x04MQTT\x04\x02\x00<\x00\x0btest-helper'
p24
sS'from'
p25
S'cli'
p26
sS'latency'
p27
NsS'index'
p28
I0
sa(dp29
g22
I0
sg23
S' \x02\x00\x00'
p30
sg25
S'srv'
p31
sg27
F0.00011420249938964844
sg28
I1
sa(dp32
g27
Nsg25
g26
sg28
I2
sg22
I0
sS'isFuzzed'
p33
I01
sg23
S'4294967550\x14\x00\x0bfoo/bar/bar/bar/bar/bar/bazmesgesaar/bar/bar/bar/b\xe2\x80\x82azmesgesa'
p34
sassg13
S'intercept79.1164_2.3432_2.5808_2.5808_2.crash'
p35
s.