(dp0
S'serverpid'
p1
I23138
sS'asanOutput'
p2
NsS'reallydead'
p3
I-11
sS'signum'
p4
I0
sS'exitcode'
p5
I0
sS'fuzzerPos'
p6
S'C'
p7
sS'corpusData'
p8
(dp9
S'parentFilename'
p10
S'intercept45.1277_2.1243_2.pickle'
p11
sS'time'
p12
NsS'filename'
p13
S'intercept45.1277_2.1243_2.1700_2.pickle'
p14
sS'seed'
p15
S'17008969186505758475'
p16
sS'fuzzer'
p17
S'Radamsa'
p18
sS'networkData'
p19
(lp20
(dp21
S'timeouts'
p22
I0
sS'from'
p23
S'cli'
p24
sS'data'
p25
S'\x10!\x00\x04MQTT\x04\x02\x00<\x00\x15unsubscribe-qos2-test'
p26
sS'index'
p27
I0
sS'latency'
p28
Nsa(dp29
g22
I0
sg23
S'srv'
p30
sg25
S' \x02\x00\x00'
p31
sg27
I1
sg28
F0.00010800361633300781
sa(dp32
g28
Nsg23
g24
sg27
I2
sg22
I0
sS'isFuzzed'
p33
I01
sg25
S'\xa2\r\x00\t\r\x03\x00\tqos-6832382268323822684885392/ttest'
p34
sa(dp35
g22
I1
sg23
g30
sg25
S'\xb0\x02\x00\x03'
p36
sg27
I3
sg28
Nsassg13
S'intercept45.1277_2.1243_2.1700_2.1700_2.crash'
p37
s.