(dp0
S'serverpid'
p1
NsS'asanOutput'
p2
NsS'reallydead'
p3
NsS'signum'
p4
NsS'exitcode'
p5
NsS'fuzzerPos'
p6
S'B'
p7
sS'corpusData'
p8
(dp9
S'parentFilename'
p10
S'intercept37.1822_0.1179_0.1629_4.pickle'
p11
sS'time'
p12
NsS'filename'
p13
S'intercept37.1822_0.1179_0.1629_4.2341_0.pickle'
p14
sS'seed'
p15
S'2341062723795298341'
p16
sS'fuzzer'
p17
S'Radamsa'
p18
sS'networkData'
p19
(lp20
(dp21
S'latency'
p22
NsS'from'
p23
S'cli'
p24
sS'index'
p25
I0
sS'timeouts'
p26
I0
sS'isFuzzed'
p27
I01
sS'data'
p28
S'\xc7\x10\x10Qb\x1c<\x00p\x04STu\x10M\x02\x00u\x18s\x04a%qos---3-test'
p29
sa(dp30
g26
I1
sg23
S'srv'
p31
sg28
S' \x02\x00\x00'
p32
sg25
I1
sg22
Nsa(dp33
g26
I0
sg23
g24
sg28
S'\x82\x10\x02\x12\x00\x0bsubpub/qos1\x01'
p34
sg25
I2
sg22
Nsa(dp35
g26
I0
sg23
g31
sg28
S'\x90\x03\x02\x12\x01'
p36
sg25
I3
sg22
Nsa(dp37
g25
I4
sg23
g24
sg22
Nsg26
I0
sS'isFuzzed'
p38
I01
sg28
S'3\x16\x00\x0bsubpub`/qos130\x01,messa\xe0\xb9\x83ge'
p39
sa(dp40
g26
I0
sg23
g31
sg28
S'@\x02\x01,'
p41
sg25
I5
sg22
Nsa(dp42
g26
I0
sg23
g31
sg28
S'2\x16\x00\x0bsubpub/qos1\x00\x01message'
p43
sg25
I6
sg22
Nsassg13
S'intercept37.1822_0.1179_0.1629_4.2341_0.2341_0.crash'
p44
s.