(dp0
S'serverpid'
p1
I9169
sS'asanOutput'
p2
NsS'reallydead'
p3
I-11
sS'signum'
p4
I0
sS'exitcode'
p5
I0
sS'fuzzerPos'
p6
S'C'
p7
sS'corpusData'
p8
(dp9
S'parentFilename'
p10
S'intercept37.4128_4.8181_4.pickle'
p11
sS'time'
p12
NsS'filename'
p13
S'intercept37.4128_4.8181_4.2577_0.pickle'
p14
sS'seed'
p15
S'257757568196388542'
p16
sS'fuzzer'
p17
S'Radamsa'
p18
sS'networkData'
p19
(lp20
(dp21
S'index'
p22
I0
sS'from'
p23
S'cli'
p24
sS'latency'
p25
NsS'timeouts'
p26
I0
sS'isFuzzed'
p27
I01
sS'data'
p28
S'\x10\x1c\x00\x04MQTT\x04\x02\x00\x00\xff\xff\x00<\x00subpub-qos--91992754487838963170317497742801980573-test'
p29
sa(dp30
g26
I0
sg23
S'srv'
p31
sg28
S' \x02\x00\x00'
p32
sg22
I1
sg25
F0.0019969940185546875
sa(dp33
g26
I0
sg23
g24
sg28
S'\x82\x10\x02\x12\x00\x0bsubpub/qos1\x01'
p34
sg22
I2
sg25
Nsa(dp35
g26
I1
sg23
g31
sg28
S'\x90\x03\x02\x12\x01'
p36
sg22
I3
sg25
Nsa(dp37
g25
Nsg23
g24
sg22
I4
sg26
I0
sS'isFuzzed'
p38
I01
sg28
S'2\x16\x00\x0bsubpu\xf3\xa0\x81\x81b/qos1\x01,mes\xf3\xa0\x81\x9esage'
p39
sa(dp40
g26
I0
sg23
g31
sg28
S'@\x02\x01,'
p41
sg22
I5
sg25
Nsa(dp42
g26
I0
sg23
g31
sg28
S'2\x16\x00\x0bsubpub/qos1\x00\x01message'
p43
sg22
I6
sg25
Nsassg13
S'intercept37.4128_4.8181_4.2577_0.2577_0.crash'
p44
s.