(dp0
S'serverpid'
p1
NsS'asanOutput'
p2
NsS'reallydead'
p3
NsS'signum'
p4
NsS'exitcode'
p5
NsS'fuzzerPos'
p6
S'C'
p7
sS'corpusData'
p8
(dp9
S'parentFilename'
p10
S'intercept37.4128_4.8181_4.1045_0.1768_0.pickle'
p11
sS'time'
p12
NsS'filename'
p13
S'intercept37.4128_4.8181_4.1045_0.1768_0.6111_0.pickle'
p14
sS'seed'
p15
S'6111747926255906500'
p16
sS'fuzzer'
p17
S'Radamsa'
p18
sS'networkData'
p19
(lp20
(dp21
S'index'
p22
I0
sS'from'
p23
S'cli'
p24
sS'latency'
p25
NsS'timeouts'
p26
I0
sS'isFuzzed'
p27
I01
sS'data'
p28
S'\x81\x9aMQTT34128336692093846346334607531768211457\x04\x02\x00<\x00\x10s\xbc\x8f\x05\xf3\xa0\x81\x9aMQTT1\x04\x02\x00<\x00\x10su\xf3\xa0\x80\xb7bpub-qos-1845674407370955161503715803715803715803715803715803715803715803715803715803715803715803715803715803715803715803715803715803715803715803715803715803715803715803715803715803715803715803715803715803715803715803715803715803715803715803715803715803715803715803715803715801240465997873426288260339122782777433574112031590100005086069127744907883446914938796430566293562315648300713679763617651304353199923617248169415938925229301736849951049624061086797891987283823228132101990298758012463138688666820019574184644581550527397956490836430742252172547684729392477291952886865294022146809396967561109729912265087332104556981057316287203554030885054721734956803372299817398296796985790170729871277566947-test'
p29
sa(dp30
g26
I0
sg28
S' \x02\x00\x00'
p31
sg23
S'srv'
p32
sg25
Nsg22
I1
sa(dp33
g26
I0
sg28
S'\x82\x10\x02\x12\x00\x0bsubpub/qos1\x01'
p34
sg23
g24
sg25
Nsg22
I2
sa(dp35
g26
I0
sg28
S'\x90\x03\x02\x12\x01'
p36
sg23
g32
sg25
Nsg22
I3
sa(dp37
g25
Nsg23
g24
sg22
I4
sg26
I0
sS'isFuzzed'
p38
I01
sg28
S'2\x16\x00\x0bsubpu\xf3\xa0\x81\x81b/qos1\x01,mes\xf3\xa0\x81\x9esage'
p39
sa(dp40
g26
I0
sg28
S'@\x02\x01,'
p41
sg23
g32
sg25
Nsg22
I5
sa(dp42
g26
I0
sg28
S'2\x16\x00\x0bsubpub/qos1\x00\x01message'
p43
sg23
g32
sg25
Nsg22
I6
sassg13
S'intercept37.4128_4.8181_4.1045_0.1768_0.6111_0.6111_0.crash'
p44
s.