(dp0
S'serverpid'
p1
I18613
sS'asanOutput'
p2
NsS'reallydead'
p3
I-11
sS'signum'
p4
I0
sS'exitcode'
p5
I0
sS'fuzzerPos'
p6
S'C'
p7
sS'corpusData'
p8
(dp9
S'parentFilename'
p10
S'intercept164.pickle'
p11
sS'time'
p12
NsS'filename'
p13
S'intercept164.5427_2.pickle'
p14
sS'seed'
p15
S'5427530246239825813'
p16
sS'fuzzer'
p17
S'Radamsa'
p18
sS'networkData'
p19
(lp20
(dp21
S'timeouts'
p22
I0
sS'data'
p23
S'\x10\x1a\x00\x04MQTT\x04\x02\x00<\x00\x0ewill-qos0-test'
p24
sS'from'
p25
S'cli'
p26
sS'latency'
p27
NsS'index'
p28
I0
sa(dp29
g22
I0
sg23
S' \x02\x00\x00'
p30
sg25
S'srv'
p31
sg27
F8.392333984375e-05
sg28
I1
sa(dp32
g27
Nsg25
g26
sg28
I2
sg22
I0
sS'isFuzzed'
p33
I01
sg23
S'\x82\x13\x0041322\x00\x0ewill/qo\xc2\xa041322\x00\x0ewill/qos65536/test\xf3\xa0\x81\xb2\x00'
p34
sa(dp35
g22
I1
sg23
S'\x90\x03\x005\x00'
p36
sg25
g31
sg27
Nsg28
I3
sa(dp37
g22
I0
sg23
S'0\x1c\x00\x0ewill/qos0/testwill-message'
p38
sg25
g31
sg27
Nsg28
I4
sassg13
S'intercept164.5427_2.5427_2.crash'
p39
s.