(dp0
S'serverpid'
p1
I30345
sS'asanOutput'
p2
NsS'reallydead'
p3
I-11
sS'signum'
p4
I0
sS'exitcode'
p5
I0
sS'fuzzerPos'
p6
S'A'
p7
sS'corpusData'
p8
(dp9
S'parentFilename'
p10
S'intercept86.pickle'
p11
sS'time'
p12
NsS'filename'
p13
S'intercept86.1722_6.pickle'
p14
sS'seed'
p15
S'1722012351401637349'
p16
sS'fuzzer'
p17
S'Radamsa'
p18
sS'networkData'
p19
(lp20
(dp21
S'timeouts'
p22
I0
sS'data'
p23
S'\x10\x1c\x00\x04MQTT\x04\x02\x00<\x00\x10pattern-sub-test'
p24
sS'from'
p25
S'cli'
p26
sS'latency'
p27
NsS'index'
p28
I0
sa(dp29
g22
I1
sg23
S' \x02\x00\x00'
p30
sg25
S'srv'
p31
sg27
Nsg28
I1
sa(dp32
g22
I0
sg23
S'\x82\x10\x018\x00\x0bfoo/+/baz/#\x00'
p33
sg25
g26
sg27
Nsg28
I2
sa(dp34
g22
I0
sg23
S'\x90\x03\x018\x00'
p35
sg25
g31
sg27
Nsg28
I3
sa(dp36
g22
I0
sg23
S'1\x14\x00\x0bfoo/bar/bazmessage'
p37
sg25
g31
sg27
Nsg28
I4
sa(dp38
g22
I0
sg23
S'0\x14\x00\x0bfoo/bar/bazmessage'
p39
sg25
g31
sg27
Nsg28
I5
sa(dp40
g27
Nsg25
g26
sg28
I6
sg22
I0
sS'isFuzzed'
p41
I01
sg23
S'---32766\x14\x00\x0bfoobahmes\xd0s\xcbrmessa\x0fe'
p42
sassg13
S'intercept86.1722_6.1722_6.crash'
p43
s.