(dp0
S'serverpid'
p1
I8809
sS'asanOutput'
p2
NsS'reallydead'
p3
I-11
sS'signum'
p4
I0
sS'exitcode'
p5
I0
sS'fuzzerPos'
p6
S'C'
p7
sS'corpusData'
p8
(dp9
S'parentFilename'
p10
S'intercept57.1623_6.pickle'
p11
sS'time'
p12
NsS'filename'
p13
S'intercept57.1623_6.4362_0.pickle'
p14
sS'seed'
p15
S'4362394082640497466'
p16
sS'fuzzer'
p17
S'Radamsa'
p18
sS'networkData'
p19
(lp20
(dp21
S'latency'
p22
NsS'from'
p23
S'cli'
p24
sS'index'
p25
I0
sS'timeouts'
p26
I0
sS'isFuzzed'
p27
I01
sS'data'
p28
S'\x10\x19\x00\x04MQTT\x04\x02\x00<\x00\rsubh\xf3\xa0\x81\x90ier-crash'
p29
sa(dp30
g26
I0
sg28
S' \x02\x00\x00'
p31
sg23
S'srv'
p32
sg22
Nsg25
I1
sa(dp33
g26
I0
sg28
S'\x82\x0c\x00\x01\x00\x07topic/a\x00'
p34
sg23
g24
sg22
Nsg25
I2
sa(dp35
g26
I0
sg28
S'\x90\x03\x00\x01\x00'
p36
sg23
g32
sg22
Nsg25
I3
sa(dp37
g26
I0
sg28
S'\x82\x0c\x00\x02\x00\x07topic/b\x00'
p38
sg23
g24
sg22
Nsg25
I4
sa(dp39
g26
I0
sg28
S'\x90\x03\x00\x02\x00'
p40
sg23
g32
sg22
Nsg25
I5
sa(dp41
g22
Nsg23
g24
sg25
I6
sg26
I0
sS'isFuzzed'
p42
I01
sg28
S'\xa1\x0b\x00\x03\x00\x07t\x00\x03\x00\x07to\xe1\x9a\x80pic\xe2\x81\xe0\xb9\x81\xe2\xf0\x85a'
p43
sa(dp44
g26
I0
sg28
S'\xb0\x02\x00\x03'
p45
sg23
g32
sg22
Nsg25
I7
sa(dp46
g26
I0
sg28
S'\xe0\x00'
p47
sg23
g24
sg22
Nsg25
I8
sassg13
S'intercept57.1623_6.4362_0.4362_0.crash'
p48
s.