(dp0
S'serverpid'
p1
I3136
sS'asanOutput'
p2
NsS'reallydead'
p3
I-11
sS'signum'
p4
I0
sS'exitcode'
p5
I0
sS'fuzzerPos'
p6
S'B'
p7
sS'corpusData'
p8
(dp9
S'parentFilename'
p10
S'intercept147.9588_8.pickle'
p11
sS'time'
p12
NsS'filename'
p13
S'intercept147.9588_8.1704_2.pickle'
p14
sS'seed'
p15
S'17047230771604518663'
p16
sS'fuzzer'
p17
S'Radamsa'
p18
sS'networkData'
p19
(lp20
(dp21
S'timeouts'
p22
I0
sS'data'
p23
S'\x10 \x00\x04MQTT\x04\x02\x00<\x00\x14retain-qos0-rep-test'
p24
sS'from'
p25
S'cli'
p26
sS'latency'
p27
NsS'index'
p28
I0
sa(dp29
g22
I0
sg23
S' \x02\x00\x00'
p30
sg25
S'srv'
p31
sg27
F0.00017404556274414062
sg28
I1
sa(dp32
g27
Nsg25
g26
sg28
I2
sg22
I0
sS'isFuzzed'
p33
I01
sg23
S'1"\x10rs-671997\xc0\xb8/testretained message'
p34
sa(dp35
g22
I0
sg23
S'\x82\x15\x00\x10\x00\x10retain/qos0/test\x00'
p36
sg25
g26
sg27
Nsg28
I3
sa(dp37
g22
I1
sg23
S'\x90\x03\x00\x10\x00'
p38
sg25
g31
sg27
Nsg28
I4
sa(dp39
g22
I0
sg23
S'1"\x00\x10retain/qos0/testretained message'
p40
sg25
g31
sg27
Nsg28
I5
sa(dp41
g22
I0
sg23
S'\xa2\x14\x00\r\x00\x10retain/qos0/test'
p42
sg25
g26
sg27
Nsg28
I6
sa(dp43
g22
I0
sg23
S'\xb0\x02\x00\r'
p44
sg25
g31
sg27
Nsg28
I7
sa(dp45
g27
Nsg25
g26
sg28
I8
sg22
I0
sS'isFuzzed'
p46
I01
sg23
S'\x82\x15\x00\x10\xf3\xa0\x81\x00\x10r\xf3\xa0\x81\xb1etain/qos0/test\x00'
p47
sa(dp48
g22
I0
sg23
S'\x90\x03\x00\x10\x00'
p49
sg25
g31
sg27
Nsg28
I9
sa(dp50
g22
I0
sg23
S'1"\x00\x10retain/qos0/testretained message'
p51
sg25
g31
sg27
Nsg28
I10
sassg13
S'intercept147.9588_8.1704_2.1704_2.crash'
p52
s.