(dp0
S'serverpid'
p1
I23249
sS'asanOutput'
p2
NsS'reallydead'
p3
I-11
sS'signum'
p4
I0
sS'exitcode'
p5
I0
sS'fuzzerPos'
p6
S'C'
p7
sS'corpusData'
p8
(dp9
S'parentFilename'
p10
S'intercept53.1125_2.1936_2.3338_2.pickle'
p11
sS'time'
p12
NsS'filename'
p13
S'intercept53.1125_2.1936_2.3338_2.1270_2.pickle'
p14
sS'seed'
p15
S'12704145506021886911'
p16
sS'fuzzer'
p17
S'Radamsa'
p18
sS'networkData'
p19
(lp20
(dp21
S'timeouts'
p22
I0
sS'from'
p23
S'cli'
p24
sS'data'
p25
S'\x10\x19\x00\x04MQTT\x04\x00\x00<\x00\rflipflop-test'
p26
sS'index'
p27
I0
sS'latency'
p28
Nsa(dp29
g22
I0
sg23
S'srv'
p30
sg25
S' \x02\x00\x00'
p31
sg27
I1
sg28
F0.00014781951904296875
sa(dp32
g28
Nsg23
g24
sg27
I2
sg22
I0
sS'isFuzzed'
p33
I01
sg25
S'\x82\x12\x00\x00\rfl\xf3\xa0\x81g\x80\x0bip\xf3\xa0\xe2\x80\x8f\x80\xf3\xa0\x81\x9e\xa6\xf3\xa0\x80\xa7fl\xf3\x81\xa0\x81\x8epp/\xf3\xa0\xe3\x85\xe1\x85\x9f\xa4\x81\xafte\xe2\x80\xafst\xf4\xa0\x81\x81\xe2\x81\xa5\xb1\x02'
p34
sa(dp35
g22
I1
sg23
g30
sg25
S'\x90\x03\x00\x01\x01'
p36
sg27
I3
sg28
Nsa(dp37
g22
I0
sg23
g30
sg25
S'2\x18\x00\rflipflop/test\x00\x01message'
p38
sg27
I4
sg28
Nsassg13
S'intercept53.1125_2.1936_2.3338_2.1270_2.1270_2.crash'
p39
s.