(dp0
S'serverpid'
p1
I1089
sS'asanOutput'
p2
NsS'reallydead'
p3
I139
sS'signum'
p4
I0
sS'exitcode'
p5
I0
sS'fuzzerPos'
p6
S'B'
p7
sS'corpusData'
p8
(dp9
S'parentFilename'
p10
S'intercept49.1311_2.3466_2.pickle'
p11
sS'time'
p12
NsS'filename'
p13
S'intercept49.1311_2.3466_2.1249_0.pickle'
p14
sS'seed'
p15
S'12498238106846201417'
p16
sS'fuzzer'
p17
S'Radamsa'
p18
sS'networkData'
p19
(lp20
(dp21
S'latency'
p22
NsS'from'
p23
S'cli'
p24
sS'index'
p25
I0
sS'timeouts'
p26
I0
sS'isFuzzed'
p27
I01
sS'data'
p28
S'\x10"\x00\x04MQTT\x04\x02\x00<\x00\x16subscribe-invalid-utf4294967295'
p29
sa(dp30
g26
I0
sg28
S' \x02\x00\x00'
p31
sg23
S'srv'
p32
sg22
F0.00015401840209960938
sg25
I1
sa(dp33
g22
Nsg23
g24
sg25
I2
sg26
I0
sS'isFuzzed'
p34
I01
sg28
S'\xf3\xa0\x80\xa4\xe2\x80\x8a\x82\x11\x00922337203654775809\x00\x0cinv\xe2\x80\xf3\xa0\x80\xb6\x8falid\xf3\xa0\x81\xf3\xa0\x81\x8a\xf3\xa0\x81\xa8\xbf\x00\xef\xbb\xbeutf2\x00'
p35
sassg13
S'intercept49.1311_2.3466_2.1249_0.1249_0.crash'
p36
s.