(dp0
S'serverpid'
p1
I20246
sS'asanOutput'
p2
NsS'reallydead'
p3
I-11
sS'signum'
p4
I0
sS'exitcode'
p5
I0
sS'fuzzerPos'
p6
S'B'
p7
sS'corpusData'
p8
(dp9
S'parentFilename'
p10
S'intercept147.2537_8.3723_6.pickle'
p11
sS'time'
p12
NsS'filename'
p13
S'intercept147.2537_8.3723_6.1361_2.pickle'
p14
sS'seed'
p15
S'13619472106060297404'
p16
sS'fuzzer'
p17
S'Radamsa'
p18
sS'networkData'
p19
(lp20
(dp21
S'timeouts'
p22
I0
sS'data'
p23
S'\x10 \x00\x04MQTT\x04\x02\x00<\x00\x14retain-qos0-rep-test'
p24
sS'from'
p25
S'cli'
p26
sS'latency'
p27
NsS'index'
p28
I0
sa(dp29
g22
I0
sg23
S' \x02\x00\x00'
p30
sg25
S'srv'
p31
sg27
F0.00015306472778320312
sg28
I1
sa(dp32
g27
Nsg25
g26
sg28
I2
sg22
I0
sS'isFuzzed'
p33
I01
sg23
S'1876/testretain/qos65536/testretainestretained message'
p34
sa(dp35
g22
I0
sg23
S'\x82\x15\x00\x10\x00\x10retain/qos0/test\x00'
p36
sg25
g26
sg27
Nsg28
I3
sa(dp37
g22
I1
sg23
S'\x90\x03\x00\x10\x00'
p38
sg25
g31
sg27
Nsg28
I4
sa(dp39
g22
I0
sg23
S'1"\x00\x10retain/qos0/testretained message'
p40
sg25
g31
sg27
Nsg28
I5
sa(dp41
g27
Nsg25
g26
sg28
I6
sg22
I0
sS'isFuzzed'
p42
I01
sg23
S'\xa2\xf3\xa0\x80\xb1\x14\xe2\x80\xa8\x00\r\x00\x10reta\xf3\xa0\x81\x8fin/qos1/\xe2\x81\xa8te\xe2\x80\xabsj'
p43
sa(dp44
g22
I0
sg23
S'\xb0\x02\x00\r'
p45
sg25
g31
sg27
Nsg28
I7
sa(dp46
g27
Nsg25
g26
sg28
I8
sg22
I0
sS'isFuzzed'
p47
I01
sg23
S'\x82\x15\x00\x10\x00\x10retain/qos-146685407878593472120606\xf3\xa0\x81\xb0571\xf3\xa0\x81\xb1574898950488/test\x00'
p48
sa(dp49
g22
I0
sg23
S'\x90\x03\x00\x10\x00'
p50
sg25
g31
sg27
Nsg28
I9
sa(dp51
g22
I0
sg23
S'1"\x00\x10retain/qos0/testretained message'
p52
sg25
g31
sg27
Nsg28
I10
sassg13
S'intercept147.2537_8.3723_6.1361_2.1361_2.crash'
p53
s.