(dp0
S'serverpid'
p1
I16747
sS'asanOutput'
p2
NsS'reallydead'
p3
I-11
sS'signum'
p4
I0
sS'exitcode'
p5
I0
sS'fuzzerPos'
p6
S'B'
p7
sS'corpusData'
p8
(dp9
S'parentFilename'
p10
S'intercept139.1576_2.1551_2.pickle'
p11
sS'time'
p12
NsS'filename'
p13
S'intercept139.1576_2.1551_2.7926_2.pickle'
p14
sS'seed'
p15
S'7926034037721551670'
p16
sS'fuzzer'
p17
S'Radamsa'
p18
sS'networkData'
p19
(lp20
(dp21
S'timeouts'
p22
I0
sS'data'
p23
S'\x10 \x00\x04MQTT\x04\x02\x00<\x00\x14publish-invalid-utf8'
p24
sS'from'
p25
S'cli'
p26
sS'latency'
p27
NsS'index'
p28
I0
sa(dp29
g22
I0
sg23
S' \x02\x00\x00'
p30
sg25
S'srv'
p31
sg27
F8.487701416015625e-05
sg28
I1
sa(dp32
g27
Nsg25
g26
sg28
I2
sg22
I0
sS'isFuzzed'
p33
I01
sg23
S'0\x10\xf2\x00\x0cinv\xca\x92\xf3\xa0\x81\xbfali+/v8\xe2\x81\xbfali\xe2\x81\xa0d\x00-9223372036854775809\xf3\xa0\x81\x9c4294968054\xe1\x85\xa0-18446744073709578135\xe2\x80\x8f7'
p34
sassg13
S'intercept139.1576_2.1551_2.7926_2.7926_2.crash'
p35
s.