(dp0
S'serverpid'
p1
NsS'asanOutput'
p2
NsS'reallydead'
p3
NsS'signum'
p4
NsS'exitcode'
p5
NsS'fuzzerPos'
p6
S'C'
p7
sS'corpusData'
p8
(dp9
S'parentFilename'
p10
S'intercept80.1394_7.8061_7.pickle'
p11
sS'time'
p12
NsS'filename'
p13
S'intercept80.1394_7.8061_7.1777_0.pickle'
p14
sS'seed'
p15
S'17771876355131465660'
p16
sS'fuzzer'
p17
S'Radamsa'
p18
sS'networkData'
p19
(lp20
(dp21
S'index'
p22
I0
sS'from'
p23
S'cli'
p24
sS'latency'
p25
NsS'timeouts'
p26
I0
sS'isFuzzed'
p27
I01
sS'data'
p28
S'\x10\x1c\x00\x04MQT\xf3\xa0\x80\xa6T\x04\x02\x00<\x00\x10pattern-sub-test'
p29
sa(dp30
g26
I0
sg23
S'srv'
p31
sg28
S' \x02\x00\x00'
p32
sg22
I1
sg25
Nsa(dp33
g26
I0
sg23
g24
sg28
S'\x82\n\x018\x00\x05foo/#\x00'
p34
sg22
I2
sg25
Nsa(dp35
g26
I0
sg23
g31
sg28
S'\x90\x03\x018\x00'
p36
sg22
I3
sg25
Nsa(dp37
g26
I0
sg23
g31
sg28
S'0\x14\x00\x0bfoo/bar/bazmessage'
p38
sg22
I4
sg25
Nsa(dp39
g26
I0
sg23
g24
sg28
S'\xa2\t\x00\xea\x00\x05foo/#'
p40
sg22
I5
sg25
Nsa(dp41
g26
I0
sg23
g31
sg28
S'\xb0\x02\x00\xea'
p42
sg22
I6
sg25
Nsa(dp43
g25
Nsg23
g24
sg22
I7
sg26
I0
sS'isFuzzed'
p44
I01
sg28
S'\x82\n\x012147483648\x00\x05foo3'
p45
sa(dp46
g26
I0
sg23
g31
sg28
S'\x90\x03\x018\x00'
p47
sg22
I8
sg25
Nsa(dp48
g26
I0
sg23
g31
sg28
S'1\x14\x00\x0bfoo/bar/bazmessage'
p49
sg22
I9
sg25
Nsassg13
S'intercept80.1394_7.8061_7.1777_0.1777_0.crash'
p50
s.