(dp0
S'serverpid'
p1
I9997
sS'asanOutput'
p2
NsS'reallydead'
p3
I-11
sS'signum'
p4
I0
sS'exitcode'
p5
I0
sS'fuzzerPos'
p6
S'B'
p7
sS'corpusData'
p8
(dp9
S'parentFilename'
p10
S'intercept37.1822_0.1179_0.2510_2.6916_0.pickle'
p11
sS'time'
p12
NsS'filename'
p13
S'intercept37.1822_0.1179_0.2510_2.6916_0.8297_4.pickle'
p14
sS'seed'
p15
S'8297679648975285649'
p16
sS'fuzzer'
p17
S'Radamsa'
p18
sS'networkData'
p19
(lp20
(dp21
S'latency'
p22
NsS'from'
p23
S'cli'
p24
sS'index'
p25
I0
sS'timeouts'
p26
I0
sS'isFuzzed'
p27
I01
sS'data'
p28
S'\x10\x1c\x00\x04q%u\x18\x02<\x10bS\x04pu\x00TMQsaos1-test'
p29
sa(dp30
g26
I1
sg23
S'srv'
p31
sg28
S' \x02\x00\x00'
p32
sg25
I1
sg22
Nsa(dp33
g25
I2
sg23
g24
sg22
Nsg26
I0
sS'isFuzzed'
p34
I01
sg28
S'\x82\x10\x02\x12\x00\x0bsubpub/qos1\x01'
p35
sa(dp36
g26
I0
sg23
g31
sg28
S'\x90\x03\x02\x12\x01'
p37
sg25
I3
sg22
Nsa(dp38
g25
I4
sg23
g24
sg22
Nsg26
I0
sS'isFuzzed'
p39
I01
sg28
S'2\x16\x00\x0bsubpub/qosqos1\x01,message'
p40
sa(dp41
g26
I0
sg23
g31
sg28
S'@\x02\x01,'
p42
sg25
I5
sg22
Nsa(dp43
g26
I0
sg23
g31
sg28
S'2\x16\x00\x0bsubpub/qos1\x00\x01message'
p44
sg25
I6
sg22
Nsassg13
S'intercept37.1822_0.1179_0.2510_2.6916_0.8297_4.8297_4.crash'
p45
s.