(dp0
S'serverpid'
p1
I17865
sS'asanOutput'
p2
NsS'reallydead'
p3
I-11
sS'signum'
p4
I0
sS'exitcode'
p5
I0
sS'fuzzerPos'
p6
S'B'
p7
sS'corpusData'
p8
(dp9
S'parentFilename'
p10
S'intercept49.pickle'
p11
sS'time'
p12
NsS'filename'
p13
S'intercept49.1072_2.pickle'
p14
sS'seed'
p15
S'10728090275035944189'
p16
sS'fuzzer'
p17
S'Radamsa'
p18
sS'networkData'
p19
(lp20
(dp21
S'timeouts'
p22
I0
sS'data'
p23
S'\x10"\x00\x04MQTT\x04\x02\x00<\x00\x16subscribe-invalid-utf8'
p24
sS'from'
p25
S'cli'
p26
sS'latency'
p27
NsS'index'
p28
I0
sa(dp29
g22
I0
sg23
S' \x02\x00\x00'
p30
sg25
S'srv'
p31
sg27
F7.796287536621094e-05
sg28
I1
sa(dp32
g27
Nsg25
g26
sg28
I2
sg22
I0
sS'isFuzzed'
p33
I01
sg23
S'\x82\x11\x00\xcb\x905\x00\x0cinvalid\x00utf8lid\x00utf8\x00'
p34
sassg13
S'intercept49.1072_2.1072_2.crash'
p35
s.