(dp0
S'serverpid'
p1
I18869
sS'asanOutput'
p2
NsS'reallydead'
p3
I-11
sS'signum'
p4
I0
sS'exitcode'
p5
I0
sS'fuzzerPos'
p6
S'C'
p7
sS'corpusData'
p8
(dp9
S'parentFilename'
p10
S'intercept52.pickle'
p11
sS'time'
p12
NsS'filename'
p13
S'intercept52.1646_2.pickle'
p14
sS'seed'
p15
S'164667162377765546'
p16
sS'fuzzer'
p17
S'Radamsa'
p18
sS'networkData'
p19
(lp20
(dp21
S'timeouts'
p22
I0
sS'data'
p23
S'\x10\x19\x00\x04MQTT\x04\x02\x00<\x00\rflipflop-test'
p24
sS'from'
p25
S'cli'
p26
sS'latency'
p27
NsS'index'
p28
I0
sa(dp29
g22
I0
sg23
S' \x02\x00\x00'
p30
sg25
S'srv'
p31
sg27
F7.104873657226562e-05
sg28
I1
sa(dp32
g27
Nsg25
g26
sg28
I2
sg22
I0
sS'isFuzzed'
p33
I01
sg23
S'\x82\x12\xe2\x80\x84\x00\x01\x00\rflipflo\xf3\xa0\x81\x90p\xe2\x81\xa8/test\x01'
p34
sa(dp35
g22
I1
sg23
S'\x90\x03\x00\x01\x01'
p36
sg25
g31
sg27
Nsg28
I3
sassg13
S'intercept52.1646_2.1646_2.crash'
p37
s.