(dp0
S'serverpid'
p1
I1417
sS'asanOutput'
p2
NsS'reallydead'
p3
I-11
sS'signum'
p4
I0
sS'exitcode'
p5
I0
sS'fuzzerPos'
p6
S'B'
p7
sS'corpusData'
p8
(dp9
S'parentFilename'
p10
S'intercept92.1027_7.pickle'
p11
sS'time'
p12
NsS'filename'
p13
S'intercept92.1027_7.2200_7.pickle'
p14
sS'seed'
p15
S'2200568720932106708'
p16
sS'fuzzer'
p17
S'Radamsa'
p18
sS'networkData'
p19
(lp20
(dp21
S'timeouts'
p22
I0
sS'data'
p23
S'\x10\x1c\x00\x04MQTT\x04\x02\x00<\x00\x10pattern-sub-test'
p24
sS'from'
p25
S'cli'
p26
sS'latency'
p27
NsS'index'
p28
I0
sa(dp29
g22
I0
sg23
S' \x02\x00\x00'
p30
sg25
S'srv'
p31
sg27
F0.00015497207641601562
sg28
I1
sa(dp32
g22
I0
sg23
S'\x82\x12\x018\x00\rfoo/foo/baz/#\x00'
p33
sg25
g26
sg27
Nsg28
I2
sa(dp34
g22
I0
sg23
S'\x90\x03\x018\x00'
p35
sg25
g31
sg27
F0.00025391578674316406
sg28
I3
sa(dp36
g22
I1
sg23
S'0\x18\x00\x0ffoo/foo/baz/barmessage'
p37
sg25
g31
sg27
Nsg28
I4
sa(dp38
g22
I0
sg23
S'\xa2\x11\x00\xea\x00\rfoo/foo/baz/#'
p39
sg25
g26
sg27
Nsg28
I5
sa(dp40
g22
I0
sg23
S'\xb0\x02\x00\xea'
p41
sg25
g31
sg27
Nsg28
I6
sa(dp42
g27
Nsg25
g26
sg28
I7
sg22
I0
sS'isFuzzed'
p43
I01
sg23
S'\xf3\xa0\x81\xb5\x82\x12\x01-4795830738757863\xf3\xa0\x80\xb60\x00\rfoo/f11\xf3\xa0\x80\xb6-4294967296\x00\rfoo/foo/baz/#\x00'
p44
sa(dp45
g22
I0
sg23
S'\x90\x03\x018\x00'
p46
sg25
g31
sg27
Nsg28
I8
sa(dp47
g22
I0
sg23
S'1\x18\x00\x0ffoo/foo/baz/barmessage'
p48
sg25
g31
sg27
Nsg28
I9
sassg13
S'intercept92.1027_7.2200_7.2200_7.crash'
p49
s.