(dp0
S'serverpid'
p1
I10223
sS'asanOutput'
p2
NsS'reallydead'
p3
I-11
sS'signum'
p4
I0
sS'exitcode'
p5
I0
sS'fuzzerPos'
p6
S'B'
p7
sS'corpusData'
p8
(dp9
S'parentFilename'
p10
S'intercept80.1394_7.8061_7.9846_7.1697_7.pickle'
p11
sS'time'
p12
NsS'filename'
p13
S'intercept80.1394_7.8061_7.9846_7.1697_7.1462_5.pickle'
p14
sS'seed'
p15
S'14620862792221251250'
p16
sS'fuzzer'
p17
S'Radamsa'
p18
sS'networkData'
p19
(lp20
(dp21
S'timeouts'
p22
I0
sS'data'
p23
S'\x10\x1c\x00\x04MQTT\x04\x02\x00<\x00\x10pattern-sub-test'
p24
sS'from'
p25
S'cli'
p26
sS'latency'
p27
NsS'index'
p28
I0
sa(dp29
g22
I0
sg23
S' \x02\x00\x00'
p30
sg25
S'srv'
p31
sg27
F2.09808349609375e-05
sg28
I1
sa(dp32
g22
I0
sg23
S'\x82\n\x018\x00\x05foo/#\x00'
p33
sg25
g26
sg27
Nsg28
I2
sa(dp34
g22
I0
sg23
S'\x90\x03\x018\x00'
p35
sg25
g31
sg27
F1.1920928955078125e-05
sg28
I3
sa(dp36
g22
I1
sg23
S'0\x14\x00\x0bfoo/bar/bazmessage'
p37
sg25
g31
sg27
Nsg28
I4
sa(dp38
g27
Nsg25
g26
sg28
I5
sg22
I0
sS'isFuzzed'
p39
I01
sg23
S'\xa2\t\x00\xe2\xea\x00\x05\xf3\xa0\x81\x9cf\xe1\x85\xa0oo/#'
p40
sa(dp41
g22
I0
sg23
S'\xb0\x02\x00\xea'
p42
sg25
g31
sg27
Nsg28
I6
sa(dp43
g27
Nsg25
g26
sg28
I7
sg22
I0
sS'isFuzzed'
p44
I01
sg23
S'\x82\n\x012147534166\x00\x05foo-99\xe2\x80\x8e14118\xf3\xa0\x80\xab3460\xf3\xa0\x81\x86469231731687303\xf3\xa0\x81\x8d71588410\xce\x905725'
p45
sa(dp46
g22
I0
sg23
S'\x90\x03\x018\x00'
p47
sg25
g31
sg27
Nsg28
I8
sa(dp48
g22
I0
sg23
S'1\x14\x00\x0bfoo/bar/bazmessage'
p49
sg25
g31
sg27
Nsg28
I9
sassg13
S'intercept80.1394_7.8061_7.9846_7.1697_7.1462_5.1462_5.crash'
p50
s.