(dp0
S'serverpid'
p1
I7467
sS'asanOutput'
p2
NsS'reallydead'
p3
I-11
sS'signum'
p4
I0
sS'exitcode'
p5
I0
sS'fuzzerPos'
p6
S'C'
p7
sS'corpusData'
p8
(dp9
S'parentFilename'
p10
S'intercept9.pickle'
p11
sS'time'
p12
NsS'filename'
p13
S'intercept9.1656_0.pickle'
p14
sS'seed'
p15
S'16567539934775471430'
p16
sS'fuzzer'
p17
S'Radamsa'
p18
sS'networkData'
p19
(lp20
(dp21
S'latency'
p22
NsS'from'
p23
S'cli'
p24
sS'index'
p25
I0
sS'timeouts'
p26
I0
sS'isFuzzed'
p27
I01
sS'data'
p28
S'\x10\n\x00\x04MQ\n\x00\x04MQTT\x04\x02\x00\n'
p29
sassg13
S'intercept9.1656_0.1656_0.crash'
p30
s.