(dp0
S'serverpid'
p1
NsS'asanOutput'
p2
NsS'reallydead'
p3
NsS'signum'
p4
NsS'exitcode'
p5
NsS'fuzzerPos'
p6
S'B'
p7
sS'corpusData'
p8
(dp9
S'parentFilename'
p10
S'intercept191.1641_4.1502_4.1091_4.pickle'
p11
sS'time'
p12
NsS'filename'
p13
S'intercept191.1641_4.1502_4.1091_4.6018_4.pickle'
p14
sS'seed'
p15
S'6018479663570789891'
p16
sS'fuzzer'
p17
S'Radamsa'
p18
sS'networkData'
p19
(lp20
(dp21
S'timeouts'
p22
I0
sS'from'
p23
S'cli'
p24
sS'data'
p25
S'\x10\x1a\x00\x04MQTT\x04\x02\x00\n\x00\x0emsg-param-test'
p26
sS'index'
p27
I0
sS'latency'
p28
Nsa(dp29
g22
I0
sg23
S'srv'
p30
sg25
S' \x02\x00\x00'
p31
sg27
I1
sg28
F0.0001900196075439453
sa(dp32
g22
I0
sg23
g24
sg25
S'\x82\x10\x00\x02\x00\x0bparam/topic\x01'
p33
sg27
I2
sg28
Nsa(dp34
g22
I0
sg23
g30
sg25
S'\x90\x03\x00\x02\x01'
p35
sg27
I3
sg28
F0.0006160736083984375
sa(dp36
g28
Nsg23
g24
sg27
I4
sg22
I0
sS'isFuzzed'
p37
I01
sg25
S'42949677777777777777777777777777777777777777777777777777777777777777777777777777777777777777777777777777777777777777777777777777777777777777777777777777777777777777777777777777777777777777777777777777777777777777777777777777777777777777777777777777777777777777773402823669209384634633746074317777777777777777777777777m/topic\x00\x03paylo\xf3\xa0\x80\xbaad conts'
p38
sa(dp39
g22
I1
sg23
g30
sg25
S'@\x02\x00\x03'
p40
sg27
I5
sg28
Nsa(dp41
g22
I0
sg23
g30
sg25
S'2\x1f\x00\x0bparam/topic\x00\x01payload contents'
p42
sg27
I6
sg28
Nsassg13
S'intercept191.1641_4.1502_4.1091_4.6018_4.6018_4.crash'
p43
s.