(dp0
S'serverpid'
p1
I3954
sS'asanOutput'
p2
NsS'reallydead'
p3
I-11
sS'signum'
p4
I0
sS'exitcode'
p5
I0
sS'fuzzerPos'
p6
S'C'
p7
sS'corpusData'
p8
(dp9
S'parentFilename'
p10
S'intercept147.2537_8.2709_3.pickle'
p11
sS'time'
p12
NsS'filename'
p13
S'intercept147.2537_8.2709_3.1286_2.pickle'
p14
sS'seed'
p15
S'12866850207139902652'
p16
sS'fuzzer'
p17
S'Radamsa'
p18
sS'networkData'
p19
(lp20
(dp21
S'timeouts'
p22
I0
sS'data'
p23
S'\x10 \x00\x04MQTT\x04\x02\x00<\x00\x14retain-qos0-rep-test'
p24
sS'from'
p25
S'cli'
p26
sS'latency'
p27
NsS'index'
p28
I0
sa(dp29
g22
I0
sg23
S' \x02\x00\x00'
p30
sg25
S'srv'
p31
sg27
F0.00011301040649414062
sg28
I1
sa(dp32
g27
Nsg25
g26
sg28
I2
sg22
I0
sS'isFuzzed'
p33
I01
sg23
S'5084084086702922295"\x00\x10retain/qos170141183460469231731687303715884105729/testretaine\xf3\xa0\x81\xb6d message'
p34
sa(dp35
g27
Nsg25
g26
sg28
I3
sg22
I0
sS'isFuzzed'
p36
I01
sg23
S'\x82\x15\x00\x10\x00\x10retain/qos2147483648/test\x00'
p37
sa(dp38
g22
I0
sg23
S'\x90\x03\x00\x10\x00'
p39
sg25
g31
sg27
F0.0006449222564697266
sg28
I4
sa(dp40
g22
I1
sg23
S'1"\x00\x10retain/qos0/testretained message'
p41
sg25
g31
sg27
Nsg28
I5
sa(dp42
g22
I0
sg23
S'\xa2\x14\x00\r\x00\x10retain/qos0/test'
p43
sg25
g26
sg27
Nsg28
I6
sa(dp44
g22
I0
sg23
S'\xb0\x02\x00\r'
p45
sg25
g31
sg27
Nsg28
I7
sa(dp46
g27
Nsg25
g26
sg28
I8
sg22
I0
sS'isFuzzed'
p47
I01
sg23
S'\x82\x15\x00\x10\x00\x10retain/qos-146685407878593472120606\xf3\xa0\x81\xb0571\xf3\xa0\x81\xb1574898950488/test\x00'
p48
sa(dp49
g22
I0
sg23
S'\x90\x03\x00\x10\x00'
p50
sg25
g31
sg27
Nsg28
I9
sa(dp51
g22
I0
sg23
S'1"\x00\x10retain/qos0/testretained message'
p52
sg25
g31
sg27
Nsg28
I10
sassg13
S'intercept147.2537_8.2709_3.1286_2.1286_2.crash'
p53
s.