(dp0
S'serverpid'
p1
I19866
sS'asanOutput'
p2
NsS'reallydead'
p3
I-11
sS'signum'
p4
I0
sS'exitcode'
p5
I0
sS'fuzzerPos'
p6
S'C'
p7
sS'corpusData'
p8
(dp9
S'parentFilename'
p10
S'intercept107.1658_5.1146_5.1706_5.5164_0.pickle'
p11
sS'time'
p12
NsS'filename'
p13
S'intercept107.1658_5.1146_5.1706_5.5164_0.6820_2.pickle'
p14
sS'seed'
p15
S'6820008493250519367'
p16
sS'fuzzer'
p17
S'Radamsa'
p18
sS'networkData'
p19
(lp20
(dp21
S'latency'
p22
NsS'from'
p23
S'cli'
p24
sS'index'
p25
I0
sS'timeouts'
p26
I0
sS'isFuzzed'
p27
I01
sS'data'
p28
S'\x10\x1c@\x04MQTT\x04\x02\x00<\x00\x10pattern-sub-test'
p29
sa(dp30
g26
I0
sg28
S' \x02\x00\x00'
p31
sg23
S'srv'
p32
sg22
F0.00016188621520996094
sg25
I1
sa(dp33
g22
Nsg23
g24
sg25
I2
sg26
I0
sS'isFuzzed'
p34
I01
sg28
S'\x82\x1d\x01-0\x00\x18+\x80+\xa0///\xb0\x81/+/+\xf3+/+/+ste\xact//+/\xf3++\xa0\x00'
p35
sa(dp36
g26
I1
sg28
S'\x90\x03\x018\x00'
p37
sg23
g32
sg22
Nsg25
I3
sa(dp38
g26
I0
sg28
S'0>\x005one/two/three/four/five/six/seven/eight/nine/ten/testmessage'
p39
sg23
g32
sg22
Nsg25
I4
sa(dp40
g22
Nsg23
g24
sg25
I5
sg26
I0
sS'isFuzzed'
p41
I01
sg28
S'\xa2\xe2\xa9\x1c\x00\xea\xb9\x18+/+/\xf3\xa0\x80\xe1\xa1\x8e\xbc\xbc\xbc+\xe2\x80\xa8/+/+/+/+/tete\x89ssss|||t'
p42
sa(dp43
g26
I0
sg28
S'\xb0\x02\x00\xea'
p44
sg23
g32
sg22
Nsg25
I6
sa(dp45
g26
I0
sg28
S'\x82\x1d\x018\x00\x18+/+/+/+/+/+/+/+/+/+/test\x00'
p46
sg23
g24
sg22
Nsg25
I7
sa(dp47
g26
I0
sg28
S'\x90\x03\x018\x00'
p48
sg23
g32
sg22
Nsg25
I8
sa(dp49
g26
I0
sg28
S'1>\x005one/two/three/four/five/six/seven/eight/nine/ten/testmessage'
p50
sg23
g32
sg22
Nsg25
I9
sassg13
S'intercept107.1658_5.1146_5.1706_5.5164_0.6820_2.6820_2.crash'
p51
s.