(dp0
S'serverpid'
p1
I27648
sS'asanOutput'
p2
NsS'reallydead'
p3
I-11
sS'signum'
p4
I0
sS'exitcode'
p5
I0
sS'fuzzerPos'
p6
S'C'
p7
sS'corpusData'
p8
(dp9
S'parentFilename'
p10
S'intercept37.4128_4.8181_4.1822_2.pickle'
p11
sS'time'
p12
NsS'filename'
p13
S'intercept37.4128_4.8181_4.1822_2.3191_0.pickle'
p14
sS'seed'
p15
S'3191580982672126455'
p16
sS'fuzzer'
p17
S'Radamsa'
p18
sS'networkData'
p19
(lp20
(dp21
S'index'
p22
I0
sS'from'
p23
S'cli'
p24
sS'latency'
p25
NsS'timeouts'
p26
I0
sS'isFuzzed'
p27
I01
sS'data'
p28
S'\x10\x1c\x00\x04MQTT\x04\x02\x00<\x00\x10subpub-qos1-teub-qos1-teub-qos1-teub-qos1-teub-qos1-teub-qos1-teub-qos1-teub-qos1-teub-qos1-teub-qos1-teub-qos1-teub-qos1-teub-qos1-teub-qos1-teub-b-qos1-teub-qos1-teub-qos1-teub-qos1-teub-qos1-teub-qos1-teub-qos1-teub-qos1-teub-qos1-teub-qos1-teub-qos1-teub-qos1-teub-qos1-teub-qos1-teub-qos4294967295-teub-qos1-teub-qos1-teub-qos1-teub-qos1-teub-qos1-teub-qos1-teub-qos1-teub-qos1-teub-qos1-teub-qos1-teub-qos1-teub-qos1-teub-qos1-teub-qos1-teub-qos1-teub-qos1-teub-qos1-teub-qos1-teub-qos1-teub-qos1-teub-qos1-teub-qos1-teub-qos1-teub-qos1-teub-qos1-teub-qos1-teub-qos1-teub-qos1-teub-qos1-teub-qos1-teub-qos1-teub-qos1-teub-qos1-teub-qos1-teub-qos1-teub-qos1-teub-qos1-teub-qos1-teub-qos1-teub-qos1-teub-qos1-teub-qos1-teub-qos1-teub-qos1-teub-qos1-teub-qos1-teub-qos1-teub-qos1-teub-qos1-teub-qos1-teub-qos1-teub-qos1-teub-qos1-teub-qos1-teub-qos1-teub-qos1-teub-qos1-teub-qos1-teub-qos1-teub-qos1-teub-qos1-teub-qos1-teub-qos1-teub-qos1-teub-qos1-teub-qos1-teub-qos1-teub-qos1-teub-qos1-teub-qos1-teub-qos1-teub-qos1-teub-qos1-teub-qos1-teub-qos1-teub-qos1-teub-qos1-teub-qos1-teub-qos1-teub-qos1-teub-qos1-teub-qos1-teub-qos1-teub-qos1-teub-qos1-teub-qos1-teub-qos1-teub-qos1-teub-qos1-teub-qos1-teub-qos1-teub-qos1-teub-qos1-teub-qos1-teub-qos1-teub-qos1-teub-qos1-teub-qos1-teub-qos1-teub-qos1-tett'
p29
sa(dp30
g26
I0
sg23
S'srv'
p31
sg28
S' \x02\x00\x00'
p32
sg22
I1
sg25
F0.00017404556274414062
sa(dp33
g22
I2
sg23
g24
sg25
Nsg26
I0
sS'isFuzzed'
p34
I01
sg28
S'\x82\x10\x02\x12\x00\x0bsubpub/qos-340282366920938463463374607432910184077\xf4\x8f\xbf\xbe6920938463463374607431768211456\x01'
p35
sa(dp36
g26
I1
sg23
g31
sg28
S'\x90\x03\x02\x12\x01'
p37
sg22
I3
sg25
Nsa(dp38
g25
Nsg23
g24
sg22
I4
sg26
I0
sS'isFuzzed'
p39
I01
sg28
S'2\x16\x00\x0bsubpu\xf3\xa0\x81\x81b/qos1\x01,mes\xf3\xa0\x81\x9esage'
p40
sa(dp41
g26
I0
sg23
g31
sg28
S'@\x02\x01,'
p42
sg22
I5
sg25
Nsa(dp43
g26
I0
sg23
g31
sg28
S'2\x16\x00\x0bsubpub/qos1\x00\x01message'
p44
sg22
I6
sg25
Nsassg13
S'intercept37.4128_4.8181_4.1822_2.3191_0.3191_0.crash'
p45
s.