(dp0
S'serverpid'
p1
I3870
sS'asanOutput'
p2
NsS'reallydead'
p3
I-11
sS'signum'
p4
I0
sS'exitcode'
p5
I0
sS'fuzzerPos'
p6
S'C'
p7
sS'corpusData'
p8
(dp9
S'parentFilename'
p10
S'intercept56.3522_4.3777_6.7417_6.pickle'
p11
sS'time'
p12
NsS'filename'
p13
S'intercept56.3522_4.3777_6.7417_6.5505_2.pickle'
p14
sS'seed'
p15
S'5505367566985864256'
p16
sS'fuzzer'
p17
S'Radamsa'
p18
sS'networkData'
p19
(lp20
(dp21
S'timeouts'
p22
I0
sS'from'
p23
S'cli'
p24
sS'data'
p25
S'\x10\x19\x00\x04MQTT\x04\x02\x00<\x00\rsubhier-crash'
p26
sS'index'
p27
I0
sS'latency'
p28
Nsa(dp29
g22
I0
sg23
S'srv'
p30
sg25
S' \x02\x00\x00'
p31
sg27
I1
sg28
F0.0005049705505371094
sa(dp32
g27
I2
sg23
g24
sg28
Nsg22
I0
sS'isFuzzed'
p33
I01
sg25
S'\x82\x0c\xf3\xa0\x81\xb6\x00\x01\x00\x07topic\xe3\x80\x80/a\x00'
p34
sa(dp35
g22
I1
sg23
g30
sg25
S'\x90\x03\x00\x01\x00'
p36
sg27
I3
sg28
Nsa(dp37
g28
Nsg23
g24
sg27
I4
sg22
I0
sS'isFuzzed'
p38
I01
sg25
S'\x07topic/\xca\xb3b\x00'
p39
sa(dp40
g22
I0
sg23
g30
sg25
S'\x90\x03\x00\x02\x00'
p41
sg27
I5
sg28
Nsa(dp42
g28
Nsg23
g24
sg27
I6
sg22
I0
sS'isFuzzed'
p43
I01
sg25
S'\xa2\x0b\x00\x03\x00\x07topic/a'
p44
sa(dp45
g22
I0
sg23
g30
sg25
S'\xb0\x02\x00\x03'
p46
sg27
I7
sg28
Nsa(dp47
g22
I0
sg23
g24
sg25
S'\xe0\x00'
p48
sg27
I8
sg28
Nsassg13
S'intercept56.3522_4.3777_6.7417_6.5505_2.5505_2.crash'
p49
s.