(dp0
S'serverpid'
p1
I2618
sS'asanOutput'
p2
NsS'reallydead'
p3
I255
sS'signum'
p4
I0
sS'exitcode'
p5
I0
sS'fuzzerPos'
p6
S'B'
p7
sS'corpusData'
p8
(dp9
S'parentFilename'
p10
S'intercept31.1319_0.pickle'
p11
sS'time'
p12
NsS'filename'
p13
S'intercept31.1319_0.8367_0.pickle'
p14
sS'seed'
p15
S'8367105712928022715'
p16
sS'fuzzer'
p17
S'Radamsa'
p18
sS'networkData'
p19
(lp20
(dp21
S'latency'
p22
NsS'from'
p23
S'cli'
p24
sS'index'
p25
I0
sS'timeouts'
p26
I0
sS'isFuzzed'
p27
I01
sS'data'
p28
S'\x0f\x1f\x00\x04MQTT\x04\x02\x00<\x00\x13s\xef\xbe\xa0ubscribe-qos922337\xef\xa3\xbf203\xf3\xa0\x80\xa168547758ts\xf3\xa0\x81\xaft'
p29
sa(dp30
g26
I1
sg28
S' \x02\x00\x00'
p31
sg23
S'srv'
p32
sg22
Nsg25
I1
sa(dp33
g26
I0
sg28
S'\x82\x0e\x00O\x00\tqos1/test\x01'
p34
sg23
g24
sg22
Nsg25
I2
sa(dp35
g26
I0
sg28
S'\x90\x03\x00O\x01'
p36
sg23
g32
sg22
Nsg25
I3
sassg13
S'intercept31.1319_0.8367_0.8367_0.crash'
p37
s.