(dp0
S'serverpid'
p1
I15073
sS'asanOutput'
p2
NsS'reallydead'
p3
I-11
sS'signum'
p4
I0
sS'exitcode'
p5
I0
sS'fuzzerPos'
p6
S'C'
p7
sS'corpusData'
p8
(dp9
S'parentFilename'
p10
S'intercept37.4128_4.1625_2.4357_2.pickle'
p11
sS'time'
p12
NsS'filename'
p13
S'intercept37.4128_4.1625_2.4357_2.1289_4.pickle'
p14
sS'seed'
p15
S'12895094649071530146'
p16
sS'fuzzer'
p17
S'Radamsa'
p18
sS'networkData'
p19
(lp20
(dp21
S'timeouts'
p22
I0
sS'from'
p23
S'cli'
p24
sS'data'
p25
S'\x10\x1c\x00\x04MQTT\x04\x02\x00<\x00\x10subpub-qos1-test'
p26
sS'index'
p27
I0
sS'latency'
p28
Nsa(dp29
g22
I0
sg23
S'srv'
p30
sg25
S' \x02\x00\x00'
p31
sg27
I1
sg28
F2.288818359375e-05
sa(dp32
g28
Nsg23
g24
sg27
I2
sg22
I0
sS'isFuzzed'
p33
I01
sg25
S'\x82\x10\x02\x12\x00\x0bsubpub/qos\xc0\xb11<-8\x01'
p34
sa(dp35
g22
I0
sg23
g30
sg25
S'\x90\x03\x02\x12\x01'
p36
sg27
I3
sg28
F0.00011205673217773438
sa(dp37
g28
Nsg23
g24
sg27
I4
sg22
I0
sS'isFuzzed'
p38
I01
sg25
S'\xf3\xa0\x81\xbc\xf3\xe1\x85\x9f\xa0\x80\xaf32767\x16\x00\xe3\x85\xa4\x0bsubpu\xf3\xa0\x82\x81b/qos\xf3\xa0\x81\x89.1849640679156\x01,m\xfb\xee(es\xf3\xa0\x81\x9es\xe2\x81\xa9age'
p39
sa(dp40
g22
I1
sg23
g30
sg25
S'@\x02\x01,'
p41
sg27
I5
sg28
Nsa(dp42
g22
I0
sg23
g30
sg25
S'2\x16\x00\x0bsubpub/qos1\x00\x01message'
p43
sg27
I6
sg28
Nsassg13
S'intercept37.4128_4.1625_2.4357_2.1289_4.1289_4.crash'
p44
s.