(dp0
S'serverpid'
p1
I16875
sS'asanOutput'
p2
NsS'reallydead'
p3
I-11
sS'signum'
p4
I0
sS'exitcode'
p5
I0
sS'fuzzerPos'
p6
S'B'
p7
sS'corpusData'
p8
(dp9
S'parentFilename'
p10
S'intercept151.pickle'
p11
sS'time'
p12
NsS'filename'
p13
S'intercept151.7965_3.pickle'
p14
sS'seed'
p15
S'7965743550897690904'
p16
sS'fuzzer'
p17
S'Radamsa'
p18
sS'networkData'
p19
(lp20
(dp21
S'timeouts'
p22
I0
sS'data'
p23
S'\x10\x1d\x00\x04MQTT\x04\x02\x00<\x00\x11retain-clear-test'
p24
sS'from'
p25
S'cli'
p26
sS'latency'
p27
NsS'index'
p28
I0
sa(dp29
g22
I0
sg23
S' \x02\x00\x00'
p30
sg25
S'srv'
p31
sg27
F0.0001380443572998047
sg28
I1
sa(dp32
g22
I0
sg23
S'1#\x00\x11retain/clear/testretained message'
p33
sg25
g26
sg27
Nsg28
I2
sa(dp34
g27
Nsg25
g26
sg28
I3
sg22
I0
sS'isFuzzed'
p35
I01
sg23
S'\x82\x16\x16\x16\x02P\x00\x11retain/clear/test\x00'
p36
sa(dp37
g22
I1
sg23
S'\x90\x03\x02P\x00'
p38
sg25
g31
sg27
Nsg28
I4
sa(dp39
g22
I0
sg23
S'1#\x00\x11retain/clear/testretained message'
p40
sg25
g31
sg27
Nsg28
I5
sa(dp41
g22
I0
sg23
S'\xa2\x15\x02Q\x00\x11retain/clear/test'
p42
sg25
g26
sg27
Nsg28
I6
sa(dp43
g22
I0
sg23
S'\xb0\x02\x02Q'
p44
sg25
g31
sg27
Nsg28
I7
sa(dp45
g22
I0
sg23
S'1\x13\x00\x11retain/clear/test'
p46
sg25
g26
sg27
Nsg28
I8
sa(dp47
g22
I0
sg23
S'\x82\x16\x02P\x00\x11retain/clear/test\x00'
p48
sg25
g26
sg27
Nsg28
I9
sa(dp49
g22
I0
sg23
S'\x90\x03\x02P\x00'
p50
sg25
g31
sg27
Nsg28
I10
sassg13
S'intercept151.7965_3.7965_3.crash'
p51
s.