(dp0
S'serverpid'
p1
NsS'asanOutput'
p2
NsS'reallydead'
p3
NsS'signum'
p4
NsS'exitcode'
p5
NsS'fuzzerPos'
p6
S'B'
p7
sS'corpusData'
p8
(dp9
S'parentFilename'
p10
S'intercept119.7056_2.1506_0.pickle'
p11
sS'time'
p12
NsS'filename'
p13
S'intercept119.7056_2.1506_0.1396_6.pickle'
p14
sS'seed'
p15
S'13962080350140141110'
p16
sS'fuzzer'
p17
S'Radamsa'
p18
sS'networkData'
p19
(lp20
(dp21
S'latency'
p22
NsS'from'
p23
S'cli'
p24
sS'index'
p25
I0
sS'timeouts'
p26
I0
sS'isFuzzed'
p27
I01
sS'data'
p28
S'\x10\x1c\x00\x04MQTcT\x04\x02\x00<\x00\x10pabttern\xbc-sub-test'
p29
sa(dp30
g26
I1
sg28
S' \x02\x00\x00'
p31
sg23
S'srv'
p32
sg22
Nsg25
I1
sa(dp33
g22
Nsg23
g24
sg25
I2
sg26
I0
sS'isFuzzed'
p34
I01
sg28
S'\x82\x0e\x01-1\x00\tfoo/+/+/baz\xf0\x9f\x92\xa9\x00'
p35
sa(dp36
g26
I0
sg28
S'\x90\x03\x018\x00'
p37
sg23
g32
sg22
Nsg25
I3
sa(dp38
g26
I0
sg28
S'1\x14\x00\x0bfoo/bar/bazmessage'
p39
sg23
g32
sg22
Nsg25
I4
sa(dp40
g26
I0
sg28
S'0\x11\x00\x08foo//bazmessage'
p41
sg23
g32
sg22
Nsg25
I5
sa(dp42
g22
Nsg23
g24
sg25
I6
sg26
I0
sS'isFuzzed'
p43
I01
sg28
S'1\x11\x00\x08foo//bazmessage'
p44
sassg13
S'intercept119.7056_2.1506_0.1396_6.1396_6.crash'
p45
s.