(dp0
S'serverpid'
p1
I7504
sS'asanOutput'
p2
NsS'reallydead'
p3
I-11
sS'signum'
p4
I0
sS'exitcode'
p5
I0
sS'fuzzerPos'
p6
S'C'
p7
sS'corpusData'
p8
(dp9
S'parentFilename'
p10
S'intercept1.8541_0.pickle'
p11
sS'time'
p12
NsS'filename'
p13
S'intercept1.8541_0.5995_0.pickle'
p14
sS'seed'
p15
S'5995145007616925043'
p16
sS'fuzzer'
p17
S'Radamsa'
p18
sS'networkData'
p19
(lp20
(dp21
S'latency'
p22
NsS'from'
p23
S'cli'
p24
sS'index'
p25
I0
sS'timeouts'
p26
I0
sS'isFuzzed'
p27
I01
sS'data'
p28
S'\x10 \x00\x04MQTT\x04\x02\x00\n\x00\x14connBbt-succer7-testnBbt-succer7-testnBbt-succer7-testnBbt-succer7-testnBbt-succer7-testnBbt-succer7-testnBbt-succer7-testnBbt-succer7-testnBbt-succer7-testnBbt-succer7-testnBbt-succer7-testnBbt-succer7-testnBbt-succer7-testnBbt-succer7-testnBbt-succer7-testnBbt-succer7-testnBbt-succer7-testnBbt-succer7-testnBbt-succer7-testnBbt-succer7-testnBbt-succer7-testnBbt-succer7-testnBbt-succer7-testnBbt-succer7-testnBbt-succer7-testnBbt-succer7-testnBbt-succer7-testnBbt-succer7-testnBbt-succer7-testnBbt-succer7-testnBbt-succer7-testnBbt-succer7-testnBbt-succer7-testnBbt-succer7-testnBbt-succer7-testnBbt-succer7-testnBbt-succer7-testnBbt-succer7-testnBbt-succer7-testnBbt-succer7-testnBbt-succer7-testnBbt-succer7-testnBbt-succer7-testnBbt-succer7-testnBbt-succer7-testnBbt-succer7-testnBbt-succer7-testnBbt-succer7-testnBbt-succer7-testnBbt-succer7-testnBbt-succer7-testnBbt-succer7-testnBbt-succer7-testnBbt-succer7-testnBbt-succer7-testnBbt-succer7-testnBbt-succer7-testnBbt-succer7-testnBbt-succer7-testnBbt-succer7-testnBbt-succer7-testnBbt-succer7-testnBbt-succer7-testnBbt-succer7-testnBbt-succer7-testnBbt-succer7-testnBbt-succer7-testnBbt-succer7-testnBbt-succer7-testnBbt-succer7-testnBbt-succer7-testnBbt-succer7-testnBbt-succer7-testnBbt-succer7-testnBbt-succer7-testnBbt-succer7-testnBbt-succer7-testnBbt-succer7-testnBbt-succer7-testnBbt-succer7-testnBbt-succer7-testnBbt-succer7-testnBbt-succer7-testnBbt-succer7-testnBbt-succer7-testnBbt-succer7-testnBbt-succer7-testnBbt-succer7-testnBbt-succer7-testnBbt-succer7-testnBbt-succer7-testnBbt-succer7-testnBbt-succer7-testnBbt-succer7-testnBbt-succer7-testnBbt-succer7-testnBbt-succer7-testnBbt-succer7-testnBbt-succer7-testnBbt-succer7-testnBbt-succer7-testnBbt-succer7-testnBbt-succer7-testnBbt-succer7-testnBbt-succer7-testnBbt-succer7-testnBbt-succer7-testnBbt-succer7-testnBbt-succer7-testnBbt-succer7-testnBbt-succer7-testnBbt-succer7-testnBbt-succer7-testnBbt-succer7-testnBbt-succer7-testnBbt-succer7-testnBbt-succer7-testnBbt-succer7-testnBbt-succer7-testnBbt-succer7-testnBbt-succer7-testnBbt-succer7-testnBbt-succer7-testnBbt-succer7-testnBbt-succer7-testnBbt-succer7-testnBbt-succer7-testnBbt-succer7-testnBbt-succer7-testnBbt-succer7-testnBbt-succer7-testnBbt-succer7-testnBbt-succer7-testnBbt-succer7-testnBbt-succer7-testnBbt-succer7-testnBbt-succer7-testnBbt-succer7-testnBbt-succer7-testnBbt-succer7-testnBbt-succer7-testnBbt-succer7-testnBbt-succer7-testnBbt-succer7-testnBbt-succer7-testnBbt-succer7-testnBbt-succer7-testnBbt-succer7-testnBbt-succer7-testnBbt-succer7-testnBbt-succer7-testnBbt-succer7-testnBbt-succer7-testnBbt-succer7-testnBbt-succer7-testnBbt-succer7-testnBbt-succer7-testnBbt-succer7-testnBbt-succer7-testnBbt-succer7-testnBbt-succer7-testnBbt-succer7-testnBbt-succer7-testnBbt-succer7-testnBbt-succer7-testnBbt-succer7-testnBbt-succer7-testnBbt-succer7-testnBbt-succer7-testnBbt-succer7-testnBbt-succer7-testnBbt-succer7-testnBbt-succer7-testnBbt-succer7-testnBbt-succer7-testnBbt-succer7-testnBbt-succer7-testnBbt-succer7-testnBbt-succer7-testnBbt-succer7-testnBbt-succer7-testnBbt-succer7-testnBbt-succer7-testnBbt-succer7-testnBbt-succer7-testnBbt-succer7-testnBbt-succer7-testnBbt-succer7-testnBbt-succer7-testnBbt-succer7-testnBbt-succer7-testnBbt-succer7-testnBbt-succer7-testnBbt-succer7-testnBbt-succer7-testnBbt-succer7-testnBbt-succer7-testnBbt-succer7-testnBbt-succer7-testnBbt-succer7-testnBbt-succer7-testnBbt-succer7-testnBbt-succer7-testnBbt-succer7-testnBbt-succer7-testnBbt-succer7-testnBbt-succer7-testnBbt-succer7-testnBbt-succer7-testnBbt-succer7-testnBbt-succer7-testnBbt-succer7-testnBbt-succer7-testnBbt-succer7-testnBbt-succer7-testnBbt-succer7-testnBbt-succer7-testnBbt-succer7-testnBbt-succer7-testnBbt-succer7-testnBbt-succer7-testnBbt-succer7-testnBbt-succer7-testnBbt-succer7-testnBbt-succer7-testnBbt-succer7-testnBbt-succer7-testnBbt-succer7-testnBbt-succer7-testnBbt-succer7-testnBbt-succer7-testnBbt-succer7-testnBbt-succer7-testnBbt-succer7-testnBbt-succer7-testnBbt-succer7-testnBbt-succer7-testnBbt-succer7-testnBbt-succer7-testnBbt-succer7-testnBbt-succer7-testnBbt-succer7-testnBbt-succer7-testnBbt-succer7-testnBbt-succer7-testnBbt-succer7-testnBbt-succer7-testnBbt-succer7-testnBbt-succer7-testnBbt-succer7-testnBbt-succer7-testnBbt-succer7-testnBbt-succer7-testnBbt-succer7-testnBbt-succer7-testnBbt-succer7-testnBbt-succer7-testnBbt-succer7-testnBbt-succer7-testnBbt-succer7-testnBbt-succer7-testnBbt-succer7-testnBbt-succer7-testnBbt-succer7-testnBbt-succer7-testnBbt-succer7-testnBbt-succer7-testnBbt-succer7-testnBbt-succer7-testnBbt-succer7-testnBbt-succer7-testnBbt-succer7-testnBbt-succer7-testnBbt-succer7-testnBbt-succer7-testnBbt-succer7-testnBbt-succer7-testnBbt-succer7-testnBbt-succer7-testnBbt-succer7-testnBbt-succer7-testnBbt-succer7-testnBbt-succer7-testnBbt-succer7-testnBbt-succer7-testnBbt-succer7-testnBbt-succer7-testnBbt-succer7-testnBbt-succer7-testnBbt-succer7-testnBbt-succer7-testnBbt-succer7-testnBbt-succer7-testnBbt-succer7-testnBbt-succer7-testnBbt-succer7-testnBbt-succer7-testnBbt-succer7-testnBbt-succer7-testnBbt-succer7-testnBbt-succer7-testnBbt-succer7-testnBbt-succer7-testnBbt-succer7-testnBbt-succer7-testnBbt-succer7-testnBbt-succer7-testnBbt-succer7-testnBbt-succer7-testnBbt-succer7-testnBbt-succer7-testnBbt-succer7-testnBbt-succer7-testnBbt-succer7-testnBbt-succer7-testnBbt-succer7-testnBbt-succer7-testnBbt-succer7-testnBbt-succer7-testnBbt-succer7-testnBbt-succer7-testnBbt-succer7-testnBbt-succer7-testnBbt-succer7-testnBbt-succer7-testnBbt-succer7-testnBbt-succer7-testnBbt-succer7-testnBbt-succer7-testnBbt-succer7-testnBbt-succer7-testnBbt-succer7-testnBbt-succer7-testnBbt-succer7-testnBbt-succer7-testnBbt-succer7-testnBbt-succer7-testnBbt-succer7-testnBbt-succer7-testnBbt-succer7-testnBbt-succer7-testnBbt-succer7-testnBbt-succer7-testnBbt-succer7-testnBbt-succer7-testnBbt-succer7-testnBbt-succer7-testnBbt-succer7-testnBbt-succer7-testnBbt-succer7-testnBbt-succer7-testnBbt-succer7-testnBbt-succer7-testnBbt-succer7-testnBbt-succer7-testnBbt-succer7-testnBbt-succer7-testnBbt-succer7-testnBbt-succer7-testnBbt-succer7-testnBbt-succer7-testnBbt-succer7-testnBbt-succer7-testnBbt-succer7-testnBbt-succer7-testnBbt-succer7-testnBbt-succer7-testnBbt-succer7-testnBbt-succfr7-testnBbt-succer7-testnBbt-succer7-testnBbt-succer7-testnBbt-succer7-testnBbt-succer7-testnBbt-succer7-testnBbt-succer7-testnBbt-succer7-testnBbt-succer7-testccer7-testnBbt-succer7-testnBbt-succer7-testnBbt-succer7-testnBbt-succer7-testnBbt-succer7-testnBbt-succer7-testnBbt-succfr7-testnBbt-succer7-testnBbt-succer7-testnBbt-succer7-testnBbt-succer7-testnBbt-succer7-testnBbt-succer7-testnBbt-succer7-testnBbt-succer7-testnBbt-succer7-testccer7-testnBbt-succer7-testnBbt-succer7-testnBbt-succer7-testnBbt-succer7-testnBbt-succer7-testnBbt-succer7-testnBbt-succfr7-testnBbt-succer7-testnBbt-succer7-testnBbt-succer7-testnBbt-succer7-testnBbt-succer7-testnBbt-succer7-testnBbt-succer7-testnBbt-succer7-testnBbt-succer7-testccer7-testnBbt-succer7-testnBbt-succer7-testnBbt-succer7-testnBbt-succer7-testnBbt-succer7-testnBbt-succer7-testnBbt-succfr7-testnBbt-succer7-testnBbt-succer7-testnBbt-succer7-testnBbt-succer7-testnBbt-succer7-testnBbt-succer7-testnBbt-succer7-testnBbt-succer7-testnBbt-succer7-testccer7-testnBbt-succer7-testnBbt-succer7-testnBbt-succer7-testnBbt-succer7-testnBbt-succer7-testnBbt-succer7-testnBbt-succfr7-testnBbt-succer7-testnBbt-succer7-testnBbt-succer7-testnBbt-succer7-testnBbt-succer7-testnBbt-succer7-testnBbt-succer7-testnBbt-succer7-testnBbt-succer7-testccer7-testnBbt-succer7-testnBbt-succer7-testnBbt-succer7-testnBbt-succer7-testnBbt-succer7-testnBbt-succer7-testnBbt-succfr7-testnBbt-succer7-testnBbt-succer7-testnBbt-succer7-testnBbt-succer7-testnBbt-succer7-testnBbt-succer7-testnBbt-succer7-testnBbt-succer7-testnBbt-succer7-testccer7-testnBbt-succer7-testnBbt-succer7-testnBbt-succer7-testnBbt-succer7-testnBbt-succer7-testnBbt-succer7-testnBbt-succfr7-testnBbt-succer7-testnBbt-succer7-testnBbt-succer7-testnBbt-succer7-testnBbt-succer7-testnBbt-succer7-testnBbt-succer7-testnBbt-succer7-testnBbt-succer7-testccer7-testnBbt-succer7-testnBbt-succer7-testnBbt-succer7-testnBbt-succer7-testnBbt-succer7-testnBbt-succer7-testnBbt-succfr7-testnBbt-succer7-testnBbt-succer7-testnBbt-succer7-testnBbt-succer7-testnBbt-succer7-testnBbt-succer7-testnBbt-succer7-testnBbt-succer7-testnBbt-succer7-testccer7-testnBbt-succer7-testnBbt-succer7-testnBbt-succer7-testnBbt-succer7-testnBbt-succer7-testnBbt-succer7-testnBbt-succfr7-testnBbt-succer7-testnBbt-succer7-testnBbt-succer7-testnBbt-succer7-testnBbt-succer7-testnBbt-succer7-testnBbt-succer7-testnBbt-succer7-testnBbt-succer7-testccer7-testnBbt-succer7-testnBbt-succer7-testnBbt-succer7-testnBbt-succer7-testnBbt-succer7-testnBbt-succer7-testnBbt-succfr7-testnBbt-succer7-testnBbt-succer7-testnBbt-succer7-testnBbt-succer7-testnBbt-succer7-testnBbt-succer7-testnBbt-succer7-testnBbt-succer7-testnBbt-succer7-testccer7-testnBbt-succer7-testnBbt-succer7-testnBbt-succer7-testnBbt-succer7-testnBbt-succer7-testnBbt-succer7-testnBbt-succfr7-testnBbt-succer7-testnBbt-succer7-testnBbt-succer7-testnBbt-succer7-testnBbt-succer7-testnBbt-succer7-testnBbt-succer7-testnBbt-succer7-testnBbt-succer7-testccer7-testnBbt-succer7-testnBbt-succer7-testnBbt-succer7-testnBbt-succer7-testnBbt-succer7-testnBbt-succer7-testnBbt-succfr7-testnBbt-succer7-testnBbt-succer7-testnBbt-succer7-testnBbt-succer7-testnBbt-succer7-testnBbt-succer7-testnBbt-succer7-testnBbt-succer7-testnBbt-succer7-testccer7-testnBbt-succer7-testnBbt-succer7-testnBbt-succer7-testnBbt-succer7-testnBbt-succer7-testnBbt-succer7-testnBbt-succfr7-testnBbt-succer7-testnBbt-succer7-testnBbt-succer7-testnBbt-succer7-testnBbt-succer7-testnBbt-succer7-testnBbt-succer7-testnBbt-succer7-testnBbt-succer7-testccer7-testnBbt-succer7-testnBbt-succer7-testnBbt-succer7-testnBbt-succer7-testnBbt-succer7-testnBbt-succer7-testnBbt-succfr7-testnBbt-succer7-testnBbt-succer7-testnBbt-succer7-testnBbt-succer7-testnBbt-succer7-testnBbt-succer7-testnBbt-succer7-testnBbt-succer7-testnBbt-succer7-testccer7-testnBbt-succer7-testnBbt-succer7-testnBbt-succer7-testnBbt-succer7-testnBbt-succer7-testnBbt-succer7-testnBbt-succfr7-testnBbt-succer7-testnBbt-succer7-testnBbt-succer7-testnBbt-succer7-testnBbt-succer7-testnBbt-succer7-testnBbt-succer7-testnBbt-succer7-testnBbt-succer7-testccer7-testnBbt-succer7-testnBbt-succer7-testnBbt-succer7-testnBbt-succer7-testnBbt-succer7-testnBbt-succer7-testnBbt-succfr7-testnBbt-succer7-testnBbt-succer7-testnBbt-succer7-testnBbt-succer7-testnBbt-succer7-testnBbt-succer7-testnBbt-succer7-testnBbt-succer7-testnBbt-succer7-testccer7-testnBbt-succer7-testnBbt-succer7-testnBbt-succer7-testnBbt-succer7-testnBbt-succer7-testnBbt-succer7-testnBbt-succfr7-testnBbt-succer7-testnBbt-succer7-testnBbt-succer7-testnBbt-succer7-testnBbt-succer7-testnBbt-succer7-testnBbt-succer7-testnBbt-succer7-testnBbt-succer7-testccer7-testnBbt-succer7-testnBbt-succer7-testnBbt-succer7-testnBbt-succer7-testnBbt-succer7-testnBbt-succer7-testnBbt-succfr7-testnBbt-succer7-testnBbt-succer7-testnBbt-succer7-testnBbt-succer7-testnBbt-succer7-testnBbt-succer7-testnBbt-succer7-testnBbt-succer7-testnBbt-succer7-testccer7-testnBbt-succer7-testnBbt-succer7-testnBbt-succer7-testnBbt-succer7-testnBbt-succer7-testnBbt-succer7-testnBbt-succfr7-testnBbt-succer7-testnBbt-succer7-testnBbt-succer7-testnBbt-succer7-testnBbt-succer7-testnBbt-succer7-testnBbt-succer7-testnBbt-succer7-testnBbt-succer7-testccer7-testnBbt-succer7-testnBbt-succer7-testnBbt-succer7-testnBbt-succer7-testnBbt-succer7-testnBbt-succer7-testnBbt-succfr7-testnBbt-succer7-testnBbt-succer7-testnBbt-succer7-testnBbt-succer7-testnBbt-succer7-testnBbt-succer7-testnBbt-succer7-testnBbt-succer7-testnBbt-succer7-testccer7-testnBbt-succer7-testnBbt-succer7-testnBbt-succer7-testnBbt-succer7-testnBbt-succer7-testnBbt-succer7-testnBbt-succfr7-testnBbt-succer7-testnBbt-succer7-testnBbt-succer7-testnBbt-succer7-testnBbt-succer7-testnBbt-succer7-testnBbt-succer7-testnBbt-succer7-testnBbt-succer7-testccer7-testnBbt-succer7-testnBbt-succer7-testnBbt-succer7-testnBbt-succer7-testnBbt-succer7-testnBbt-succer7-testnBbt-succfr7-testnBbt-succer7-testnBbt-succer7-testnBbt-succer7-testnBbt-succer7-testnBbt-succer7-testnBbt-succer7-testnBbt-succer7-testnBbt-succer7-testnBbt-succer7-testccer7-testnBbt-succer7-testnBbt-succer7-testnBbt-succer7-testnBbt-succer7-testnBbt-succer7-testnBbt-succer7-testnBbt-succfr7-testnBbt-succer7-testnBbt-succer7-testnBbt-succer7-testnBbt-succer7-testnBbt-succer7-testnBbt-succer7-testnBbt-succer7-testnBbt-succer7-testnBbt-succer7-testccer7-testnBbt-succer7-testnBbt-succer7-testnBbt-succer7-testnBbt-succer7-testnBbt-succer7-testnBbt-succer7-testnBbt-succfr7-testnBbt-succer7-testnBbt-succer7-testnBbt-succer7-testnBbt-succer7-testnBbt-succer7-testnBbt-succer7-testnBbt-succer7-testnBbt-succer7-testnBbt-succer7-testccer7-testnBbt-succer7-testnBbt-succer7-testnBbt-succer7-testnBbt-succer7-testnBbt-succer7-testnBbt-succer7-testnBbt-succfr7-testnBbt-succer7-testnBbt-succer7-testnBbt-succer7-testnBbt-succer7-testnBbt-succer7-testnBbt-succer7-testnBbt-succer7-testnBbt-succer7-testnBbt-succer7-testccer7-testnBbt-succer7-testnBbt-succer7-testnBbt-succer7-testnBbt-succer7-testnBbt-succer7-testnBbt-succer7-testnBbt-succfr7-testnBbt-succer7-testnBbt-succer7-testnBbt-succer7-testnBbt-succer7-testnBbt-succer7-testnBbt-succer7-testnBbt-succer7-testnBbt-succer7-testnBbt-succer7-testccer7-testnBbt-succer7-testnBbt-succer7-testnBbt-succer7-testnBbt-succer7-testnBbt-succer7-testnBbt-succer7-testnBbt-succfr7-testnBbt-succer7-testnBbt-succer7-testnBbt-succer7-testnBbt-succer7-testnBbt-succer7-testnBbt-succer7-testnBbt-succer7-testnBbt-succer7-testnBbt-succer7-testccer7-testnBbt-succer7-testnBbt-succer7-testnBbt-succer7-testnBbt-succer7-testnBbt-succer7-testnBbt-succer7-testnBbt-succfr7-testnBbt-succer7-testnBbt-succer7-testnBbt-succer7-testnBbt-succer7-testnBbt-succer7-testnBbt-succer7-testnBbt-succer7-testnBbt-succer7-testnBbt-succer7-testccer7-testnBbt-succer7-testnBbt-succer7-testnBbt-succer7-testnBbt-succer7-testnBbt-succer7-testnBbt-succer7-testnBbt-succfr7-testnBbt-succer7-testnBbt-succer7-testnBbt-succer7-testnBbt-succer7-testnBbt-succer7-testnBbt-succer7-testnBbt-succer7-testnBbt-succer7-testnBbt-succer7-testccer7-testnBbt-succer7-testnBbt-succer7-testnBbt-succer7-testnBbt-succer7-testnBbt-succer7-testnBbt-succer7-testnBbt-succfr7-testnBbt-succer7-testnBbt-succer7-testnBbt-succer7-testnBbt-succer7-testnBbt-succer7-testnBbt-succer7-testnBbt-succer7-testnBbt-succer7-testnBbt-succer7-testccer7-testnBbt-succer7-testnBbt-succer7-testnBbt-succer7-testnBbt-succer7-testnBbt-succer7-testnBbt-succer7-testnBbt-succfr7-testnBbt-succer7-testnBbt-succer7-testnBbt-succer7-testnBbt-succer7-testnBbt-succer7-testnBbt-succer7-testnBbt-succer7-testnBbt-succer7-testnBbt-succer7-testccer7-testnBbt-succer7-testnBbt-succer7-testnBbt-succer7-testnBbt-succer7-testnBbt-succer7-testnBbt-succer7-testnBbt-succfr7-testnBbt-succer7-testnBbt-succer7-testnBbt-succer7-testnBbt-succer7-testnBbt-succer7-testnBbt-succer7-testnBbt-succer7-testnBbt-succer7-testnBbt-succer7-testccer7-testnBbt-succer7-testnBbt-succer7-testnBbt-succer7-testnBbt-succer7-testnBbt-succer7-testnBbt-succer7-testnBbt-succfr7-testnBbt-succer7-testnBbt-succer7-testnBbt-succer7-testnBbt-succer7-testnBbt-succer7-testnBbt-succer7-testnBbt-succer7-testnBbt-succer7-testnBbt-succer7-testccer7-testnBbt-succer7-testnBbt-succer7-testnBbt-succer7-testnBbt-succer7-testnBbt-succer7-testnBbt-succer7-testnBbt-succfr7-testnBbt-succer7-testnBbt-succer7-testnBbt-succer7-testnBbt-succer7-testnBbt-succer7-testnBbt-succer7-testnBbt-succer7-testnBbt-succer7-testnBbt-succer7-testccer7-testnBbt-succer7-testnBbt-succer7-testnBbt-succer7-testnBbt-succer7-testnBbt-succer7-testnBbt-succer7-testnBbt-succfr7-testnBbt-succer7-testnBbt-succer7-testnBbt-succer7-testnBbt-succer7-testnBbt-succer7-testnBbt-succer7-testnBbt-succer7-testnBbt-succer7-testnBbt-succer7-testccer7-testnBbt-succer7-testnBbt-succer7-testnBbt-succer7-testnBbt-succer7-testnBbt-succer7-testnBbt-succer7-testnBbt-succfr7-testnBbt-succer7-testnBbt-succer7-testnBbt-succer7-testnBbt-succer7-testnBbt-succer7-testnBbt-succer7-testnBbt-succer7-testnBbt-succer7-testnBbt-succer7-testccer7-testnBbt-succer7-testnBbt-succer7-testnBbt-succer7-testnBbt-succer7-testnBbt-succer7-testnBbt-succer7-testnBbt-succfr7-testnBbt-succer7-testnBbt-succer7-testnBbt-succer7-testnBbt-succer7-testnBbt-succer7-testnBbt-succer7-testnBbt-succer7-testnBbt-succer7-testnBbt-succer7-testccer7-testnBbt-succer7-testnBbt-succer7-testnBbt-succer7-testnBbt-succer7-testnBbt-succer7-testnBbt-succer7-testnBbt-succfr7-testnBbt-succer7-testnBbt-succer7-testnBbt-succer7-testnBbt-succer7-testnBbt-succer7-testnBbt-succer7-testnBbt-succer7-testnBbt-succer7-testnBbt-succer7-testccer7-testnBbt-succer7-testnBbt-succer7-testnBbt-succer7-testnBbt-succer7-testnBbt-succer7-testnBbt-succer7-testnBbt-succfr7-testnBbt-succer7-testnBbt-succer7-testnBbt-succer7-testnBbt-succer7-testnBbt-succer7-testnBbt-succer7-testnBbt-succer7-testnBbt-succer7-testnBbt-succer7-testccer7-testnBbt-succer7-testnBbt-succer7-testnBbt-succer7-testnBbt-succer7-testnBbt-succer7-testnBbt-succer7-testnBbt-succfr7-testnBbt-succer7-testnBbt-succer7-testnBbt-succer7-testnBbt-succer7-testnBbt-succer7-testnBbt-succer7-testnBbt-succer7-testnBbt-succer7-testnBbt-succer7-testccer7-testnBbt-succer7-testnBbt-succer7-testnBbt-succer7-testnBbt-succer7-testnBbt-succer7-testnBbt-succer7-testnBbt-succfr7-testnBbt-succer7-testnBbt-succer7-testnBbt-succer7-testnBbt-succer7-testnBbt-succer7-testnBbt-succer7-testnBbt-succer7-testnBbt-succer7-testnBbt-succer7-testccer7-testnBbt-succer7-testnBbt-succer7-testnBbt-succer7-testnBbt-succer7-testnBbt-succer7-testnBbt-succer7-testnBbt-succfr7-testnBbt-succer7-testnBbt-succer7-testnBbt-succer7-testnBbt-succer7-testnBbt-succer7-testnBbt-succer7-testnBbt-succer7-testnBbt-succer7-testnBbt-succer7-testccer7-testnBbt-succer7-testnBbt-succer7-testnBbt-succer7-testnBbt-succer7-testnBbt-succer7-testnBbt-succer7-testnBbt-succfr7-testnBbt-succer7-testnBbt-succer7-testnBbt-succer7-testnBbt-succer7-testnBbt-succer7-testnBbt-succer7-testnBbt-succer7-testnBbt-succer7-testnBbt-succer7-testccer7-testnBbt-succer7-testnBbt-succer7-testnBbt-succer7-testnBbt-succer7-testnBbt-succer7-testnBbt-succer7-testnBbt-succfr7-testnBbt-succer7-testnBbt-succer7-testnBbt-succer7-testnBbt-succer7-testnBbt-succer7-testnBbt-succer7-testnBbt-succer7-testnBbt-succer7-testnBbt-succer7-testccer7-testnBbt-succer7-testnBbt-succer7-testnBbt-succer7-testnBbt-succer7-testnBbt-succer7-testnBbt-succer7-testnBbt-succfr7-testnBbt-succer7-testnBbt-succer7-testnBbt-succer7-testnBbt-succer7-testnBbt-succer7-testnBbt-succer7-testnBbt-succer7-testnBbt-succer7-testnBbt-succer7-testccer7-testnBbt-succer7-testnBbt-succer7-testnBbt-succer7-testnBbt-succer7-testnBbt-succer7-testnBbt-succer7-testnBbt-succfr7-testnBbt-succer7-testnBbt-succer7-testnBbt-succer7-testnBbt-succer7-testnBbt-succer7-testnBbt-succer7-testnBbt-succer7-testnBbt-succer7-testnBbt-succer7-testccer7-testnBbt-succer7-testnBbt-succer7-testnBbt-succer7-testnBbt-succer7-testnBbt-succer7-testnBbt-succer7-testnBbt-succfr7-testnBbt-succer7-testnBbt-succer7-testnBbt-succer7-testnBbt-succer7-testnBbt-succer7-testnBbt-succer7-testnBbt-succer7-testnBbt-succer7-testnBbt-succer7-testccer7-testnBbt-succer7-testnBbt-succer7-testnBbt-succer7-testnBbt-succer7-testnBbt-succer7-testnBbt-succer7-testnBbt-succfr7-testnBbt-succer7-testnBbt-succer7-testnBbt-succer7-testnBbt-succer7-testnBbt-succer7-testnBbt-succer7-testnBbt-succer7-testnBbt-succer7-testnBbt-succer7-testccer7-testnBbt-succer7-testnBbt-succer7-testnBbt-succer7-testnBbt-succer7-testnBbt-succer7-testnBbt-succer7-testnBbt-succfr7-testnBbt-succer7-testnBbt-succer7-testnBbt-succer7-testnBbt-succer7-testnBbt-succer7-testnBbt-succer7-testnBbt-succer7-testnBbt-succer7-testnBbt-succer7-testccer7-testnBbt-succer7-testnBbt-succer7-testnBbt-succer7-testnBbt-succer7-testnBbt-succer7-testnBbt-succer7-testnBbt-succfr7-testnBbt-succer7-testnBbt-succer7-testnBbt-succer7-testnBbt-succer7-testnBbt-succer7-testnBbt-succer7-testnBbt-succer7-testnBbt-succer7-testnBbt-succer7-testccer7-testnBbt-succer7-testnBbt-succer7-testnBbt-succer7-testnBbt-succer7-testnBbt-succer7-testnBbt-succer7-testnBbt-succfr7-testnBbt-succer7-testnBbt-succer7-testnBbt-succer7-testnBbt-succer7-testnBbt-succer7-testnBbt-succer7-testnBbt-succer7-testnBbt-succer7-testnBbt-succer7-testccer7-testnBbt-succer7-testnBbt-succer7-testnBbt-succer7-testnBbt-succer7-testnBbt-succer7-testnBbt-succer7-testnBbt-succfr7-testnBbt-succer7-testnBbt-succer7-testnBbt-succer7-testnBbt-succer7-testnBbt-succer7-testnBbt-succer7-testnBbt-succer7-testnBbt-succer7-testnBbt-succer7-testccer7-testnBbt-succer7-testnBbt-succer7-testnBbt-succer7-testnBbt-succer7-testnBbt-succer7-testnBbt-succer7-testnBbt-succfr7-testnBbt-succer7-testnBbt-succer7-testnBbt-succer7-testnBbt-succer7-testnBbt-succer7-testnBbt-succer7-testnBbt-succer7-testnBbt-succer7-testnBbt-succer7-testccer7-testnBbt-succer7-testnBbt-succer7-testnBbt-succer7-testnBbt-succer7-testnBbt-succer7-testnBbt-succer7-testnBbt-succfr7-testnBbt-succer7-testnBbt-succer7-testnBbt-succer7-testnBbt-succer7-testnBbt-succer7-testnBbt-succer7-testnBbt-succer7-testnBbt-succer7-testnBbt-succer7-testccer7-testnBbt-succer7-testnBbt-succer7-testnBbt-succer7-testnBbt-succer7-testnBbt-succer7-testnBbt-succer7-testnBbt-succfr7-testnBbt-succer7-testnBbt-succer7-testnBbt-succer7-testnBbt-succer7-testnBbt-succer7-testnBbt-succer7-testnBbt-succer7-testnBbt-succer7-testnBbt-succer7-testccer7-testnBbt-succer7-testnBbt-succer7-testnBbt-succer7-testnBbt-succer7-testnBbt-succer7-testnBbt-succer7-testnBbt-succfr7-testnBbt-succer7-testnBbt-succer7-testnBbt-succer7-testnBbt-succer7-testnBbt-succer7-testnBbt-succer7-testnBbt-succer7-testnBbt-succer7-testnBbt-succer7-testccer7-testnBbt-succer7-testnBbt-succer7-testnBbt-succer7-testnBbt-succer7-testnBbt-succer7-testnBbt-succer7-testnBbt-succfr7-testnBbt-succer7-testnBbt-succer7-testnBbt-succer7-testnBbt-succer7-testnBbt-succer7-testnBbt-succer7-testnBbt-succer7-testnBbt-succer7-testnBbt-succer7-testccer7-testnBbt-succer7-testnBbt-succer7-testnBbt-succer7-testnBbt-succer7-testnBbt-succer7-testnBbt-succer7-testnBbt-succfr7-testnBbt-succer7-testnBbt-succer7-testnBbt-succer7-testnBbt-succer7-testnBbt-succer7-testnBbt-succer7-testnBbt-succer7-testnBbt-succer7-testnBbt-succer7-testccer7-testnBbt-succer7-testnBbt-succer7-testnBbt-succer7-testnBbt-succer7-testnBbt-succer7-testnBbt-succer7-testnBbt-succfr7-testnBbt-succer7-testnBbt-succer7-testnBbt-succer7-testnBbt-succer7-testnBbt-succer7-testnBbt-succer7-testnBbt-succer7-testnBbt-succer7-testnBbt-succer7-testccer7-testnBbt-succer7-testnBbt-succer7-testnBbt-succer7-testnBbt-succer7-testnBbt-succer7-testnBbt-succer7-testnBbt-succfr7-testnBbt-succer7-testnBbt-succer7-testnBbt-succer7-testnBbt-succer7-testnBbt-succer7-testnBbt-succer7-testnBbt-succer7-testnBbt-succer7-testnBbt-succer7-testccer7-testnBbt-succer7-testnBbt-succer7-testnBbt-succer7-testnBbt-succer7-testnBbt-succer7-testnBbt-succer7-testnBbt-succfr7-testnBbt-succer7-testnBbt-succer7-testnBbt-succer7-testnBbt-succer7-testnBbt-succer7-testnBbt-succer7-testnBbt-succer7-testnBbt-succer7-testnBbt-succer7-testccer7-testnBbt-succer7-testnBbt-succer7-testnBbt-succer7-testnBbt-succer7-testnBbt-succer7-testnBbt-succer7-testnBbt-succfr7-testnBbt-succer7-testnBbt-succer7-testnBbt-succer7-testnBbt-succer7-testnBbt-succer7-testnBbt-succer7-testnBbt-succer7-testnBbt-succer7-testnBbt-succer7-testccer7-testnBbt-succer7-testnBbt-succer7-testnBbt-succer7-testnBbt-succer7-testnBbt-succer7-testnBbt-succer7-testnBbt-succfr7-testnBbt-succer7-testnBbt-succer7-testnBbt-succer7-testnBbt-succer7-testnBbt-succer7-testnBbt-succer7-testnBbt-succer7-testnBbt-succer7-testnBbt-succer7-testccer7-testnBbt-succer7-testnBbt-succer7-testnBbt-succer7-testnBbt-succer7-testnBbt-succer7-testnBbt-succer7-testnBbt-succfr7-testnBbt-succer7-testnBbt-succer7-testnBbt-succer7-testnBbt-succer7-testnBbt-succer7-testnBbt-succer7-testnBbt-succer7-testnBbt-succer7-testnBbt-succer7-testccer7-testnBbt-succer7-testnBbt-succer7-testnBbt-succer7-testnBbt-succer7-testnBbt-succer7-testnBbt-succer7-testnBbt-succfr7-testnBbt-succer7-testnBbt-succer7-testnBbt-succer7-testnBbt-succer7-testnBbt-succer7-testnBbt-succer7-testnBbt-succer7-testnBbt-succer7-testnBbt-succer7-testccer7-testnBbt-succer7-testnBbt-succer7-testnBbt-succer7-testnBbt-succer7-testnBbt-succer7-testnBbt-succer7-testnBbt-succfr7-testnBbt-succer7-testnBbt-succer7-testnBbt-succer7-testnBbt-succer7-testnBbt-succer7-testnBbt-succer7-testnBbt-succer7-testnBbt-succer7-testnBbt-succer7-testccer7-testnBbt-succer7-testnBbt-succer7-testnBbt-succer7-testnBbt-succer7-testnBbt-succer7-testnBbt-succer7-testnBbt-succfr7-testnBbt-succer7-testnBbt-succer7-testnBbt-succer7-testnBbt-succer7-testnBbt-succer7-testnBbt-succer7-testnBbt-succer7-testnBbt-succer7-testnBbt-succer7-testccer7-testnBbt-succer7-testnBbt-succer7-testnBbt-succer7-testnBbt-succer7-testnBbt-succer7-testnBbt-succer7-testnBbt-succfr7-testnBbt-succer7-testnBbt-succer7-testnBbt-succer7-testnBbt-succer7-testnBbt-succer7-testnBbt-succer7-testnBbt-succer7-testnBbt-succer7-testnBbt-succer7-testccer7-testnBbt-succer7-testnBbt-succer7-testnBbt-succer7-testnBbt-succer7-testnBbt-succer7-testnBbt-succer7-testnBbt-succfr7-testnBbt-succer7-testnBbt-succer7-testnBbt-succer7-testnBbt-succer7-testnBbt-succer7-testnBbt-succer7-testnBbt-succer7-testnBbt-succer7-testnBbt-succer7-testccer7-testnBbt-succer7-testnBbt-succer7-testnBbt-succer7-testnBbt-succer7-testnBbt-succer7-testnBbt-succer7-testnBbt-succfr7-testnBbt-succer7-testnBbt-succer7-testnBbt-succer7-testnBbt-succer7-testnBbt-succer7-testnBbt-succer7-testnBbt-succer7-testnBbt-succer7-testnBbt-succer7-testccer7-testnBbt-succer7-testnBbt-succer7-testnBbt-succer7-testnBbt-succer7-testnBbt-succer7-testnBbt-succer7-testnBbt-succfr7-testnBbt-succer7-testnBbt-succer7-testnBbt-succer7-testnBbt-succer7-testnBbt-succer7-testnBbt-succer7-testnBbt-succer7-testnBbt-succer7-testnBbt-succer7-testccer7-testnBbt-succer7-testnBbt-succer7-testnBbt-succer7-testnBbt-succer7-testnBbt-succer7-testnBbt-succer7-testnBbt-succfr7-testnBbt-succer7-testnBbt-succer7-testnBbt-succer7-testnBbt-succer7-testnBbt-succer7-testnBbt-succer7-testnBbt-succer7-testnBbt-succer7-testnBbt-succer7-testccer7-testnBbt-succer7-testnBbt-succer7-testnBbt-succer7-testnBbt-succer7-testnBbt-succer7-testnBbt-succer7-testnBbt-succfr7-testnBbt-succer7-testnBbt-succer7-testnBbt-succer7-testnBbt-succer7-testnBbt-succer7-testnBbt-succer7-testnBbt-succer7-testnBbt-succer7-testnBbt-succer7-testccer7-testnBbt-succer7-testnBbt-succer7-testnBbt-succer7-testnBbt-succer7-testnBbt-succer7-testnBbt-succer7-testnBbt-succfr7-testnBbt-succer7-testnBbt-succer7-testnBbt-succer7-testnBbt-succer7-testnBbt-succer7-testnBbt-succer7-testnBbt-succer7-testnBbt-succer7-testnBbt-succer7-testccer7-testnBbt-succer7-testnBbt-succer7-testnBbt-succer7-testnBbt-succer7-testnBbt-succer7-testnBbt-succer7-testnBbt-succfr7-testnBbt-succer7-testnBbt-succer7-testnBbt-succer7-testnBbt-succer7-testnBbt-succer7-testnBbt-succer7-testnBbt-succer7-testnBbt-succer7-testnBbt-succer7-testccer7-testnBbt-succer7-testnBbt-succer7-testnBbt-succer7-testnBbt-succer7-testnBbt-succer7-testnBbt-succer7-testnBbt-succfr7-testnBbt-succer7-testnBbt-succer7-testnBbt-succer7-testnBbt-succer7-testnBbt-succer7-testnBbt-succer7-testnBbt-succer7-testnBbt-succer7-testnBbt-succer7-testccer7-testnBbt-succer7-testnBbt-succer7-testnBbt-succer7-testnBbt-succer7-testnBbt-succer7-testnBbt-succer7-testnBbt-succfr7-testnBbt-succer7-testnBbt-succer7-testnBbt-succer7-testnBbt-succer7-testnBbt-succer7-testnBbt-succer7-testnBbt-succer7-testnBbt-succer7-testnBbt-succer7-testccer7-testnBbt-succer7-testnBbt-succer7-testnBbt-succer7-testnBbt-succer7-testnBbt-succer7-testnBbt-succer7-testnBbt-succfr7-testnBbt-succer7-testnBbt-succer7-testnBbt-succer7-testnBbt-succer7-testnBbt-succer7-testnBbt-succer7-testnBbt-succer7-testnBbt-succer7-testnBbt-succer7-testccer7-testnBbt-succer7-testnBbt-succer7-testnBbt-succer7-testnBbt-succer7-testnBbt-succer7-testnBbt-succer7-testnBbt-succfr7-testnBbt-succer7-testnBbt-succer7-testnBbt-succer7-testnBbt-succer7-testnBbt-succer7-testnBbt-succer7-testnBbt-succer7-testnBbt-succer7-testnBbt-succer7-testccer7-testnBbt-succer7-testnBbt-succer7-testnBbt-succer7-testnBbt-succer7-testnBbt-succer7-testnBbt-succer7-testnBbt-succfr7-testnBbt-succer7-testnBbt-succer7-testnBbt-succer7-testnBbt-succer7-testnBbt-succer7-testnBbt-succer7-testnBbt-succer7-testnBbt-succer7-testnBbt-succer7-testccer7-testnBbt-succer7-testnBbt-succer7-testnBbt-succer7-testnBbt-succer7-testnBbt-succer7-testnBbt-succer7-testnBbt-succfr7-testnBbt-succer7-testnBbt-succer7-testnBbt-succer7-testnBbt-succer7-testnBbt-succer7-testnBbt-succer7-testnBbt-succer7-testnBbt-succer7-testnBbt-succer7-testccer7-testnBbt-succer7-testnBbt-succer7-testnBbt-succer7-testnBbt-succer7-testnBbt-succer7-testnBbt-succer7-testnBbt-succfr7-testnBbt-succer7-testnBbt-succer7-testnBbt-succer7-testnBbt-succer7-testnBbt-succer7-testnBbt-succer7-testnBbt-succer7-testnBbt-succer7-testnBbt-succer7-testccer7-testnBbt-succer7-testnBbt-succer7-testnBbt-succer7-testnBbt-succer7-testnBbt-succer7-testnBbt-succer7-testnBbt-succfr7-testnBbt-succer7-testnBbt-succer7-testnBbt-succer7-testnBbt-succer7-testnBbt-succer7-testnBbt-succer7-testnBbt-succer7-testnBbt-succer7-testnBbt-succer7-testccer7-testnBbt-succer7-testnBbt-succer7-testnBbt-succer7-testnBbt-succer7-testnBbt-succer7-testnBbt-succer7-testnBbt-succfr7-testnBbt-succer7-testnBbt-succer7-testnBbt-succer7-testnBbt-succer7-testnBbt-succer7-testnBbt-succer7-testnBbt-succer7-testnBbt-succer7-testnBbt-succer7-testccer7-testnBbt-succer7-testnBbt-succer7-testnBbt-succer7-testnBbt-succer7-testnBbt-succer7-testnBbt-succer7-testnBbt-succfr7-testnBbt-succer7-testnBbt-succer7-testnBbt-succer7-testnBbt-succer7-testnBbt-succer7-testnBbt-succer7-testnBbt-succer7-testnBbt-succer7-testnBbt-succer7-testccer7-testnBbt-succer7-testnBbt-succer7-testnBbt-succer7-testnBbt-succer7-testnBbt-succer7-testnBbt-succer7-testnBbt-succfr7-testnBbt-succer7-testnBbt-succer7-testnBbt-succer7-testnBbt-succer7-testnBbt-succer7-testnBbt-succer7-testnBbt-succer7-testnBbt-succer7-testnBbt-succer7-testccer7-testnBbt-succer7-testnBbt-succer7-testnBbt-succer7-testnBbt-succer7-testnBbt-succer7-testnBbt-succer7-testnBbt-succfr7-testnBbt-succer7-testnBbt-succer7-testnBbt-succer7-testnBbt-succer7-testnBbt-succer7-testnBbt-succer7-testnBbt-succer7-testnBbt-succer7-testnBbt-succer7-testccer7-testnBbt-succer7-testnBbt-succer7-testnBbt-succer7-testnBbt-succer7-testnBbt-succer7-testnBbt-succer7-testnBbt-succfr7-testnBbt-succer7-testnBbt-succer7-testnBbt-succer7-testnBbt-succer7-testnBbt-succer7-testnBbt-succer7-testnBbt-succer7-testnBbt-succer7-testnBbt-succer7-testccer7-testnBbt-succer7-testnBbt-succer7-testnBbt-succer7-testnBbt-succer7-testnBbt-succer7-testnBbt-succer7-testnBbt-succfr7-testnBbt-succer7-testnBbt-succer7-testnBbt-succer7-testnBbt-succer7-testnBbt-succer7-testnBbt-succer7-testnBbt-succer7-testnBbt-succer7-testnBbt-succer7-testccer7-testnBbt-succer7-testnBbt-succer7-testnBbt-succer7-testnBbt-succer7-testnBbt-succer7-testnBbt-succer7-testnBbt-succfr7-testnBbt-succer7-testnBbt-succer7-testnBbt-succer7-testnBbt-succer7-testnBbt-succer7-testnBbt-succer7-testnBbt-succer7-testnBbt-succer7-testnBbt-succer7-testccer7-testnBbt-succer7-testnBbt-succer7-testnBbt-succer7-testnBbt-succer7-testnBbt-succer7-testnBbt-succer7-testnBbt-succfr7-testnBbt-succer7-testnBbt-succer7-testnBbt-succer7-testnBbt-succer7-testnBbt-succer7-testnBbt-succer7-testnBbt-succer7-testnBbt-succer7-testnBbt-succer7-testccer7-testnBbt-succer7-testnBbt-succer7-testnBbt-succer7-testnBbt-succer7-testnBbt-succer7-testnBbt-succer7-testnBbt-succfr7-testnBbt-succer7-testnBbt-succer7-testnBbt-succer7-testnBbt-succer7-testnBbt-succer7-testnBbt-succer7-testnBbt-succer7-testnBbt-succer7-testnBbt-succer7-testccer7-testnBbt-succer7-testnBbt-succer7-testnBbt-succer7-testnBbt-succer7-testnBbt-succer7-testnBbt-succer7-testnBbt-succfr7-testnBbt-succer7-testnBbt-succer7-testnBbt-succer7-testnBbt-succer7-testnBbt-succer7-testnBbt-succer7-testnBbt-succer7-testnBbt-succer7-testnBbt-succer7-testccer7-testnBbt-succer7-testnBbt-succer7-testnBbt-succer7-testnBbt-succer7-testnBbt-succer7-testnBbt-succer7-testnBbt-succfr7-testnBbt-succer7-testnBbt-succer7-testnBbt-succer7-testnBbt-succer7-testnBbt-succer7-testnBbt-succer7-testnBbt-succer7-testnBbt-succer7-testnBbt-succer7-testccer7-testnBbt-succer7-testnBbt-succer7-testnBbt-succer7-testnBbt-succer7-testnBbt-succer7-testnBbt-succer7-testnBbt-succfr7-testnBbt-succer7-testnBbt-succer7-testnBbt-succer7-testnBbt-succer7-testnBbt-succer7-testnBbt-succer7-testnBbt-succer7-testnBbt-succer7-testnBbt-succer7-testccer7-testnBbt-succer7-testnBbt-succer7-testnBbt-succer7-testnBbt-succer7-testnBbt-succer7-testnBbt-succer7-testnBbt-succfr7-testnBbt-succer7-testnBbt-succer7-testnBbt-succer7-testnBbt-succer7-testnBbt-succer7-testnBbt-succer7-testnBbt-succer7-testnBbt-succer7-testnBbt-succer7-testccer7-testnBbt-succer7-testnBbt-succer7-testnBbt-succer7-testnBbt-succer7-testnBbt-succer7-testnBbt-succer7-testnBbt-succfr7-testnBbt-succer7-testnBbt-succer7-testnBbt-succer7-testnBbt-succer7-testnBbt-succer7-testnBbt-succer7-testnBbt-succer7-testnBbt-succer7-testnBbt-succer7-testccer7-testnBbt-succer7-testnBbt-succer7-testnBbt-succer7-testnBbt-succer7-testnBbt-succer7-testnBbt-succer7-testnBbt-succfr7-testnBbt-succer7-testnBbt-succer7-testnBbt-succer7-testnBbt-succer7-testnBbt-succer7-testnBbt-succer7-testnBbt-succer7-testnBbt-succer7-testnBbt-succer7-testccer7-testnBbt-succer7-testnBbt-succer7-testnBbt-succer7-testnBbt-succer7-testnBbt-succer7-testnBbt-succer7-testnBbt-succfr7-testnBbt-succer7-testnBbt-succer7-testnBbt-succer7-testnBbt-succer7-testnBbt-succer7-testnBbt-succer7-testnBbt-succer7-testnBbt-succer7-testnBbt-succer7-testccer7-testnBbt-succer7-testnBbt-succer7-testnBbt-succer7-testnBbt-succer7-testnBbt-succer7-testnBbt-succer7-testnBbt-succfr7-testnBbt-succer7-testnBbt-succer7-testnBbt-succer7-testnBbt-succer7-testnBbt-succer7-testnBbt-succer7-testnBbt-succer7-testnBbt-succer7-testnBbt-succer7-testccer7-testnBbt-succer7-testnBbt-succer7-testnBbt-succer7-testnBbt-succer7-testnBbt-succer7-testnBbt-succer7-testnBbt-succfr7-testnBbt-succer7-testnBbt-succer7-testnBbt-succer7-testnBbt-succer7-testnBbt-succer7-testnBbt-succer7-testnBbt-succer7-testnBbt-succer7-testnBbt-succer7-testccer7-testnBbt-succer7-testnBbt-succer7-testnBbt-succer7-testnBbt-succer7-testnBbt-succer7-testnBbt-succer7-testnBbt-succfr7-testnBbt-succer7-testnBbt-succer7-testnBbt-succer7-testnBbt-succer7-testnBbt-succer7-testnBbt-succer7-testnBbt-succer7-testnBbt-succer7-testnBbt-succer7-testccer7-testnBbt-succer7-testnBbt-succer7-testnBbt-succer7-testnBbt-succer7-testnBbt-succer7-testnBbt-succer7-testnBbt-succfr7-testnBbt-succer7-testnBbt-succer7-testnBbt-succer7-testnBbt-succer7-testnBbt-succer7-testnBbt-succer7-testnBbt-succer7-testnBbt-succer7-testnBbt-succer7-testccer7-testnBbt-succer7-testnBbt-succer7-testnBbt-succer7-testnBbt-succer7-testnBbt-succer7-testnBbt-succer7-testnBbt-succfr7-testnBbt-succer7-testnBbt-succer7-testnBbt-succer7-testnBbt-succer7-testnBbt-succer7-testnBbt-succer7-testnBbt-succer7-testnBbt-succer7-testnBbt-succer7-testccer7-testnBbt-succer7-testnBbt-succer7-testnBbt-succer7-testnBbt-succer7-testnBbt-succer7-testnBbt-succer7-testnBbt-succfr7-testnBbt-succer7-testnBbt-succer7-testnBbt-succer7-testnBbt-succer7-testnBbt-succer7-testnBbt-succer7-testnBbt-succer7-testnBbt-succer7-testnBbt-succer7-testccer7-testnBbt-succer7-testnBbt-succer7-testnBbt-succer7-testnBbt-succer7-testnBbt-succer7-testnBbt-succer7-testnBbt-succfr7-testnBbt-succer7-testnBbt-succer7-testnBbt-succer7-testnBbt-succer7-testnBbt-succer7-testnBbt-succer7-testnBbt-succer7-testnBbt-succer7-testnBbt-succer7-testccer7-testnBbt-succer7-testnBbt-succer7-testnBbt-succer7-testnBbt-succer7-testnBbt-succer7-testnBbt-succer7-testnBbt-succfr7-testnBbt-succer7-testnBbt-succer7-testnBbt-succer7-testnBbt-succer7-testnBbt-succer7-testnBbt-succer7-testnBbt-succer7-testnBbt-succer7-testnBbt-succer7-testccer7-testnBbt-succer7-testnBbt-succer7-testnBbt-succer7-testnBbt-succer7-testnBbt-succer7-testnBbt-succer7-testnBbt-succfr7-testnBbt-succer7-testnBbt-succer7-testnBbt-succer7-testnBbt-succer7-testnBbt-succer7-testnBbt-succer7-testnBbt-succer7-testnBbt-succer7-testnBbt-succer7-testccer7-testnBbt-succer7-testnBbt-succer7-testnBbt-succer7-testnBbt-succer7-testnBbt-succer7-testnBbt-succer7-testnBbt-succfr7-testnBbt-succer7-testnBbt-succer7-testnBbt-succer7-testnBbt-succer7-testnBbt-succer7-testnBbt-succer7-testnBbt-succer7-testnBbt-succer7-testnBbt-succer7-testccer7-testnBbt-succer7-testnBbt-succer7-testnBbt-succer7-testnBbt-succer7-testnBbt-succer7-testnBbt-succer7-testnBbt-succfr7-testnBbt-succer7-testnBbt-succer7-testnBbt-succer7-testnBbt-succer7-testnBbt-succer7-testnBbt-succer7-testnBbt-succer7-testnBbt-succer7-testnBbt-succer7-testccer7-testnBbt-succer7-testnBbt-succer7-testnBbt-succer7-testnBbt-succer7-testnBbt-succer7-testnBbt-succer7-testnBbt-succfr7-testnBbt-succer7-testnBbt-succer7-testnBbt-succer7-testnBbt-succer7-testnBbt-succer7-testnBbt-succer7-testnBbt-succer7-testnBbt-succer7-testnBbt-succer7-testccer7-testnBbt-succer7-testnBbt-succer7-testnBbt-succer7-testnBbt-succer7-testnBbt-succer7-testnBbt-succer7-testnBbt-succfr7-testnBbt-succer7-testnBbt-succer7-testnBbt-succer7-testnBbt-succer7-testnBbt-succer7-testnBbt-succer7-testnBbt-succer7-testnBbt-succer7-testnBbt-succer7-testccer7-testnBbt-succer7-testnBbt-succer7-testnBbt-succer7-testnBbt-succer7-testnBbt-succer7-testnBbt-succer7-testnBbt-succfr7-testnBbt-succer7-testnBbt-succer7-testnBbt-succer7-testnBbt-succer7-testnBbt-succer7-testnBbt-succer7-testnBbt-succer7-testnBbt-succer7-testnBbt-succer7-testccer7-testnBbt-succer7-testnBbt-succer7-testnBbt-succer7-testnBbt-succer7-testnBbt-succer7-testnBbt-succer7-testnBbt-succfr7-testnBbt-succer7-testnBbt-succer7-testnBbt-succer7-testnBbt-succer7-testnBbt-succer7-testnBbt-succer7-testnBbt-succer7-testnBbt-succer7-testnBbt-succer7-testccer7-testnBbt-succer7-testnBbt-succer7-testnBbt-succer7-testnBbt-succer7-testnBbt-succer7-testnBbt-succer7-testnBbt-succfr7-testnBbt-succer7-testnBbt-succer7-testnBbt-succer7-testnBbt-succer7-testnBbt-succer7-testnBbt-succer7-testnBbt-succer7-testnBbt-succer7-testnBbt-succer7-testccer7-testnBbt-succer7-testnBbt-succer7-testnBbt-succer7-testnBbt-succer7-testnBbt-succer7-testnBbt-succer7-testnBbt-succfr7-testnBbt-succer7-testnBbt-succer7-testnBbt-succer7-testnBbt-succer7-testnBbt-succer7-testnBbt-succer7-testnBbt-succer7-testnBbt-succer7-testnBbt-succer7-testccer7-testnBbt-succer7-testnBbt-succer7-testnBbt-succer7-testnBbt-succer7-testnBbt-succer7-testnBbt-succer7-testnBbt-succfr7-testnBbt-succer7-testnBbt-succer7-testnBbt-succer7-testnBbt-succer7-testnBbt-succer7-testnBbt-succer7-testnBbt-succer7-testnBbt-succer7-testnBbt-succer7-testccer7-testnBbt-succer7-testnBbt-succer7-testnBbt-succer7-testnBbt-succer7-testnBbt-succer7-testnBbt-succer7-testnBbt-succfr7-testnBbt-succer7-testnBbt-succer7-testnBbt-succer7-testnBbt-succer7-testnBbt-succer7-testnBbt-succer7-testnBbt-succer7-testnBbt-succer7-testnBbt-succer7-testccer7-testnBbt-succer7-testnBbt-succer7-testnBbt-succer7-testnBbt-succer7-testnBbt-succer7-testnBbt-succer7-testnBbt-succfr7-testnBbt-succer7-testnBbt-succer7-testnBbt-succer7-testnBbt-succer7-testnBbt-succer7-testnBbt-succer7-testnBbt-succer7-testnBbt-succer7-testnBbt-succer7-testccer7-testnBbt-succer7-testnBbt-succer7-testnBbt-succer7-testnBbt-succer7-testnBbt-succer7-testnBbt-succer7-testnBbt-succfr7-testnBbt-succer7-testnBbt-succer7-testnBbt-succer7-testnBbt-succer7-testnBbt-succer7-testnBbt-succer7-testnBbt-succer7-testnBbt-succer7-testnBbt-succer7-testccer7-testnBbt-succer7-testnBbt-succer7-testnBbt-succer7-testnBbt-succer7-testnBbt-succer7-testnBbt-succer7-testnBbt-succfr7-testnBbt-succer7-testnBbt-succer7-testnBbt-succer7-testnBbt-succer7-testnBbt-succer7-testnBbt-succer7-testnBbt-succer7-testnBbt-succer7-testnBbt-succer7-testccer7-testnBbt-succer7-testnBbt-succer7-testnBbt-succer7-testnBbt-succer7-testnBbt-succer7-testnBbt-succer7-testnBbt-succfr7-testnBbt-succer7-testnBbt-succer7-testnBbt-succer7-testnBbt-succer7-testnBbt-succer7-testnBbt-succer7-testnBbt-succer7-testnBbt-succer7-testnBbt-succer7-testccer7-testnBbt-succer7-testnBbt-succer7-testnBbt-succer7-testnBbt-succer7-testnBbt-succer7-testnBbt-succer7-testnBbt-succfr7-testnBbt-succer7-testnBbt-succer7-testnBbt-succer7-testnBbt-succer7-testnBbt-succer7-testnBbt-succer7-testnBbt-succer7-testnBbt-succer7-testnBbt-succer7-testccer7-testnBbt-succer7-testnBbt-succer7-testnBbt-succer7-testnBbt-succer7-testnBbt-succer7-testnBbt-succer7-testnBbt-succfr7-testnBbt-succer7-testnBbt-succer7-testnBbt-succer7-testnBbt-succer7-testnBbt-succer7-testnBbt-succer7-testnBbt-succer7-testnBbt-succer7-testnBbt-succer7-testccer7-testnBbt-succer7-testnBbt-succer7-testnBbt-succer7-testnBbt-succer7-testnBbt-succer7-testnBbt-succer7-testnBbt-succfr7-testnBbt-succer7-testnBbt-succer7-testnBbt-succer7-testnBbt-succer7-testnBbt-succer7-testnBbt-succer7-testnBbt-succer7-testnBbt-succer7-testnBbt-succer7-testccer7-testnBbt-succer7-testnBbt-succer7-testnBbt-succer7-testnBbt-succer7-testnBbt-succer7-testnBbt-succer7-testnBbt-succfr7-testnBbt-succer7-testnBbt-succer7-testnBbt-succer7-testnBbt-succer7-testnBbt-succer7-testnBbt-succer7-testnBbt-succer7-testnBbt-succer7-testnBbt-succer7-testccer7-testnBbt-succer7-testnBbt-succer7-testnBbt-succer7-testnBbt-succer7-testnBbt-succer7-testnBbt-succer7-testnBbt-succfr7-testnBbt-succer7-testnBbt-succer7-testnBbt-succer7-testnBbt-succer7-testnBbt-succer7-testnBbt-succer7-testnBbt-succer7-testnBbt-succer7-testnBbt-succer7-testccer7-testnBbt-succer7-testnBbt-succer7-testnBbt-succer7-testnBbt-succer7-testnBbt-succer7-testnBbt-succer7-testnBbt-succfr7-testnBbt-succer7-testnBbt-succer7-testnBbt-succer7-testnBbt-succer7-testnBbt-succer7-testnBbt-succer7-testnBbt-succer7-testnBbt-succer7-testnBbt-succer7-testccer7-testnBbt-succer7-testnBbt-succer7-testnBbt-succer7-testnBbt-succer7-testnBbt-succer7-testnBbt-succer7-testnBbt-succfr7-testnBbt-succer7-testnBbt-succer7-testnBbt-succer7-testnBbt-succer7-testnBbt-succer7-testnBbt-succer7-testnBbt-succer7-testnBbt-succer7-testnBbt-succer7-testccer7-testnBbt-succer7-testnBbt-succer7-testnBbt-succer7-testnBbt-succer7-testnBbt-succer7-testnBbt-succer7-testnBbt-succfr7-testnBbt-succer7-testnBbt-succer7-testnBbt-succer7-testnBbt-succer7-testnBbt-succer7-testnBbt-succer7-testnBbt-succer7-testnBbt-succer7-testnBbt-succer7-testccer7-testnBbt-succer7-testnBbt-succer7-testnBbt-succer7-testnBbt-succer7-testnBbt-succer7-testnBbt-succer7-testnBbt-succfr7-testnBbt-succer7-testnBbt-succer7-testnBbt-succer7-testnBbt-succer7-testnBbt-succer7-testnBbt-succer7-testnBbt-succer7-testnBbt-succer7-testnBbt-succer7-testccer7-testnBbt-succer7-testnBbt-succer7-testnBbt-succer7-testnBbt-succer7-testnBbt-succer7-testnBbt-succer7-testnBbt-succfr7-testnBbt-succer7-testnBbt-succer7-testnBbt-succer7-testnBbt-succer7-testnBbt-succer1-testnBbt-succer7-testnBbt-succer7-testnBbt-succer7-testnBbt-succer7-testccer7-testnBbt-succer7-testnBbt-succer7-testnBbt-succer7-testnBbt-succer7-testnBbt-succer7-testnBbt-succer7-testnBbt-succfr7-testnBbt-succer7-testnBbt-succer7-testnBbt-succer7-testnBbt-succer7-testnBbt-succer7-testnBbt-succer7-testnBbt-succer7-testnBbt-succer7-testnBbt-succer7-testccer7-testnBbt-succer7-testnBbt-succer7-testnBbt-succer7-testnBbt-succer7-testnBbt-succer7-testnBbt-succer7-testnBbt-succfr7-testnBbt-succer7-testnBbt-succer7-testnBbt-succer7-testnBbt-succer7-testnBbt-succer7-testnBbt-succer7-testnBbt-succer7-testnBbt-succer7-testnBbt-succer7-testccer7-testnBbt-succer7-testnBbt-succer7-testnBbt-succer7-testnBbt-succer7-testnBbt-succer7-testnBbt-succer7-testnBbt-succfr7-testnBbt-succer7-testnBbt-succer7-testnBbt-succer7-testnBbt-succer7-testnBbt-succer7-testnBbt-succer7-testnBbt-succer7-testnBbt-succer7-testnBbt-succer7-testccer7-testnBbt-succer7-testnBbt-succer7-testnBbt-succer7-testnBbt-succer7-testnBbt-succer7-testnBbt-succer7-testnBbt-succfr7-testnBbt-succer7-testnBbt-succer7-testnBbt-succer7-testnBbt-succer7-testnBbt-succer7-testnBbt-succer7-testnBbt-succer7-testnBbt-succer7-testnBbt-succer7-testccer7-testnBbt-succer7-testnBbt-succer7-testnBbt-succer7-testnBbt-succer7-testnBbt-succer7-testnBbt-succer7-testnBbt-succfr7-testnBbt-succer7-testnBbt-succer7-testnBbt-succer7-testnBbt-succer7-testnBbt-succer7-testnBbt-succer7-testnBbt-succer7-testnBbt-succer7-testnBbt-succer7-testccer7-testnBbt-succer7-testnBbt-succer7-testnBbt-succer7-testnBbt-succer7-testnBbt-succer7-testnBbt-succer7-testnBbt-succfr7-testnBbt-succer7-testnBbt-succer7-testnBbt-succer7-testnBbt-succer7-testnBbt-succer7-testnBbt-succer7-testnBbt-succer7-testnBbt-succer7-testnBbt-succer7-testccer7-testnBbt-succer7-testnBbt-succer7-testnBbt-succer65542-testnBbt-succer7-testnBbt-succer7-testnBbt-succer7-testnBbt-succfr7-testnBbt-succer7-testnBbt-succer7-testnBbt-succer7-testnBbt-succer7-testnBbt-succer7-testnBbt-succer7-testnBbt-succer7-testnBbt-succer7-testnBbt-succer7-testccer7-testnBbt-succer7-testnBbt-succer7-testnBbt-succer7-testnBbt-succer7-testnBbt-succer7-testnBbt-succer7-testnBbt-succfr7-testnBbt-succer7-testnBbt-succer7-testnBbt-succer7-testnBbt-succer7-testnBbt-succer7-testnBbt-succer7-testnBbt-succer7-testnBbt-succer7-testnBbt-succer7-test'
p29
sa(dp30
g26
I0
sg28
S' \x02\x00\x00'
p31
sg23
S'srv'
p32
sg22
Nsg25
I1
sassg13
S'intercept1.8541_0.5995_0.5995_0.crash'
p33
s.