(dp0
S'serverpid'
p1
I12743
sS'asanOutput'
p2
NsS'reallydead'
p3
I-11
sS'signum'
p4
I0
sS'exitcode'
p5
I0
sS'fuzzerPos'
p6
S'C'
p7
sS'corpusData'
p8
(dp9
S'parentFilename'
p10
S'intercept195.2200_0.pickle'
p11
sS'time'
p12
NsS'filename'
p13
S'intercept195.2200_0.1172_2.pickle'
p14
sS'seed'
p15
S'11727843323815548637'
p16
sS'fuzzer'
p17
S'Radamsa'
p18
sS'networkData'
p19
(lp20
(dp21
S'latency'
p22
NsS'from'
p23
S'cli'
p24
sS'index'
p25
I0
sS'timeouts'
p26
I0
sS'isFuzzed'
p27
I01
sS'data'
p28
S'\x10\x11\x00\x04MQTT\x04\x02\x00<\x00\x05test3'
p29
sa(dp30
g26
I0
sg28
S' \x02\x00\x00'
p31
sg23
S'srv'
p32
sg22
F0.00015997886657714844
sg25
I1
sa(dp33
g22
Nsg23
g24
sg25
I2
sg26
I0
sS'isFuzzed'
p34
I01
sg28
S'\x82\x06\x00\xf3\xa0\x80\xa7\x01\xe2\xe1\x85\xa0\x80\xae\xe0\xb9\xe2\x81\x8e\x83\xe0\xb9\x80\x00\x00\xf4\x8f\xbf\xbe\x01#\x00'
p35
sa(dp36
g26
I1
sg28
S'\x90\x03\x00\x01\x00'
p37
sg23
g32
sg22
Nsg25
I3
sa(dp38
g26
I0
sg28
S'1\x13\x00\ntest/topicmessage1\x14\x00\x0btest/topic/message1\x19\x00\x10test////a//topicmessage1\x14\x00\x0b/test/topicmessage1\x1a\x00\x11/test////a//topicmessage1\r\x00\x04/foomessage1\x16\x00\r////foo///barmessage1\x0c\x00\x03foomessage1\x14\x00\x0bfoo/bar/bazmessage1\x18\x00\x0ffoo/bar/baz/barmessage1\x18\x00\x0ffoo/foo/baz/barmessage1\x17\x00\x0efoo//bar///bazmessage1\x11\x00\x08foo//bazmessage1\x13\x00\nfoo//baz//message1\x15\x00\x0cfoo//baz/barmessage1>\x005one/two/three/four/five/six/seven/eight/nine/ten/testmessage1"\x00\x10retain/qos0/testretained message1"\x00\x10retain/qos1/testretained message1\x1d\x00\x0bparam/topicpayload contents'
p39
sg23
g32
sg22
Nsg25
I4
sa(dp40
g26
I0
sg28
g39
sg23
g24
sg22
Nsg25
I5
sassg13
S'intercept195.2200_0.1172_2.1172_2.crash'
p41
s.