(dp0
S'serverpid'
p1
NsS'asanOutput'
p2
NsS'reallydead'
p3
NsS'signum'
p4
NsS'exitcode'
p5
NsS'fuzzerPos'
p6
S'C'
p7
sS'corpusData'
p8
(dp9
S'parentFilename'
p10
S'intercept33.1038_0.3012_0.pickle'
p11
sS'time'
p12
NsS'filename'
p13
S'intercept33.1038_0.3012_0.5974_0.pickle'
p14
sS'seed'
p15
S'5974216318127011203'
p16
sS'fuzzer'
p17
S'Radamsa'
p18
sS'networkData'
p19
(lp20
(dp21
S'latency'
p22
NsS'from'
p23
S'cli'
p24
sS'index'
p25
I0
sS'timeouts'
p26
I0
sS'isFuzzed'
p27
I01
sS'data'
p28
S'\x10\x1f\x00\xe2\x80\xae\xe7\x04MQTTTTTTTTTTTTTTTTQTTTTTTTTTTTTTTTTQTTTTTTTTTTTTTTTTQTTTTTTTTTTTTTTTTQTTTTTTTTTTTTTTTTQTTTTTTTTTTTTTTTTQTTTTTTTTTTTTTTTTQTTTTTTTTTTTTTTTTQTTTTTTTTTTTTTTTTQTTTTTTTTTTTTTTTTQTTTTTTTTTTTTTTTTQTTTTTTTTTTTTTTTTQTTTTTTTTTTTTTTTTQTTTTTTTTTTTTTTTTQTTTTTTTTTTTTTTTTQTTTTTTTTTTTTTTTTQTTTTTTTTTTTTTTTTQTTTTTTTTTTTTTTTTQTTTTTTTTTTTTTTTTQTTTTTTTTTTTTTTTTQTTTTTTTTTTTTTTTTQTTTTTTTTTTTTTTTTQTTTTTTTTTTTTTTTTQTTTTTTTTTTTTTTTTQTTTTTTTTTTTTTTTTQTTTTTTTTTTTTTTTTQTTTTTTTTTTTTTTTTQTTTTTTTTTTTTTTTTQTTTTTTTTTTTTTTTTQTTTTTTTTTTTTTTTTQTTTTTTTTTTTTTTTTQTTTTTTTTTTTTTTTTQTTTTTTTTTTTTTTTTQTTTTTTTTTTTTTTTTQTTTTTTTTTTTTTTTTQTTTTTTTTTTTTTTTTQTTTTTTTTTTTTTTTTQTTTTTTTTTTTTTTTTQTTTTTTTTTTTTTTTTQTTTTTTTTTTTTTTTTQTTTTTTTTTTTTTTTTQTTTTTTTTTTTTTTTTQTTTTTTTTTTTTTTTTQTTTTTTTTTTTTTTTTQTTTTTTTTTTTTTTTTQTTTTTTTTTTTTTTTTQTTTTTTTTTTTTTTTTQTTTTTTTTTTTTTTTTQTTTTTTTTTTTTTTTTQTTTTTTTTTTTTTTTTQTTTTTTTTTTTTTTTTQTTTTTTTTTTTTTTTTQTTTTTTTTTTTTTTTTQTTTTTTTTTTTTTTTTQTTTTTTTTTTTTTTTTQTTTTTTTTTTTTTTTTQTTTTTTTTTTTTTTTTQTTTTTTTTTTTTTTTTQTTTTTTTTTTTTTTTTQTTTTTTTTTTTTTTTTQTTTTTTTTTTTTTTTTQTTTTTTTTTTTTTTTTQTTTTTTTTTTTTTTTTQTTTTTTTTTTTTTTTTQTTTTTTTTTTTTTTTTQTTTTTTTTTTTTTTTTQTTTTTTTTTTTTTTTTQTTTTTTTTTTTTTTTTQTTTTTTTTTTTTTTTTQTTTTTTTTTTTTTTTTQTTTTTTTTTTTTTTTTQTTTTTTTTTTTTTTTTQTTTTTTTTTTTTTTTTQTTTTTTTTTTTTTTTTQTTTTTTTTTTTTTTTTQTTTTTTTTTTTTTTTTQTTTTTTTTTTTTTTTTQTTTTTTTTTTTTTTTTQTTTTTTTTTTTTTTTTQTTTTTTTTTTTTTTTTQTTTTTTTTTTTTTTTTQTTTTTTTTTTTTTTTTQTTTTTTTTTTTTTTTTQTTTTTTTTTTTTTTTTQTTTTTTTTTTTTTTTTQTTTTTTTTTTTTTTTTQTTTTTTTTTTTTTTTTQTTTTTTTTTTTTTTTTQTTTTTTTTTTTTTTTTQTTTTTTTTTTTTTTTTQTTTTTTTTTTTTTTTTQTTTTTTTTTTTTTTTTQTTTTTTTTTTTTTTTTQTTTTTTTTTTTTTTTTQTTTTTTTTTTTTTTTTQTTTTTTTTTTTTTTTTQTTTTTTTTTTTTTTTTQTTTTTTTTTTTTTTTTQTTTTTTTTTTTTTTTTQTTTTTTTTTTTTTTTTQTTTTTTTTTTTTTTTTQTTTTTTTTTTTTTTTTQTTTTTTTTTTTTTTTTQTTTTTTTTTTTTTTTTQTTTTTTTTTTTTTTTTQTTTTTTTTTTTTTTTTQTTTTTTTTTTTTTTTTQTTTTTTTTTTTTTTTTQTTTTTTTTTTTTTTTTQTTTTTTTTTTTTTTTTQTTTTTTTTTTTTTTTTQTTTTTTTTTTTTTTTTQTTTTTTTTTTTTTTTTQTTTTTTTTTTTTTTTTQTTTTTTTTTTTTTTTTQTTTTTTTTTTTTTTTTQTTTTTTTTTTTTTTTTQTTTTTTTTTTTTTTTTQTTTTTTTTTTTTTTTTQTTTTTTTTTTTTTTTTQTTTTTTTTTTTTTTTTQTTTTTTTTTTTTTTTTQTTTTTTTTTTTTTTTTQTTTTTTTTTTTTTTTTQTTTTTTTTTTTTTTTTQTTTTTTTTTTTTTTTTQTTTTTTTTTTTTTTTTQTTTTTTTTTTTTTTTTQTTTTTTTTTTTTTTTTQTTTTTTTTTTTTTTTTQTTTTTTTTTTTTTTTTQTTTTTTTTTTTTTTTTQTTTTTTTTTTTTTTTTQTTTTTTTTTTTTTTTTQTTTTTTTTTTTTTTTTQTTTTTTTTTTTTTTTTQTTTTTTTTTTTTTTTTQTTTTTTTTTTTTTTTTQTTTTTTTTTTTTTTTTQTTTTTTTTTTTTTTTTQTTTTTTTTTTTTTTTTQTTTTTTTTTTTTTTTTQTTTTTTTTTTTTTTTTQTTTTTTTTTTTTTTTTQTTTTTTTTTTTTTTTTQTTTTTTTTTTTTTTTTQTTTTTTTTTTTTTTTTQTTTTTTTTTTTTTTTTQTTTTTTTTTTTTTTTTQTTTTTTTTTTTTTTTTQTTTTTTTTTTTTTTTTQTTTTTTTTTTTTTTTTQTTTTTTTTTTTTTTTTQTTTTTTTTTTTTTTTTQTTTTTTTTTTTTTTTTQTTTTTTTTTTTTTTTTQTTTTTTTTTTTTTTTTQTTTTTTTTTTTTTTTTQTTTTTTTTTTTTTTTTQTTTTTTTTTTTTTTTTQTTTTTTTTTTTTTTTTQTTTTTTTTTTTTTTTTQTTTTTTTTTTTTTTTTQTTTTTTTTTTTTTTTTQTTTTTTTTTTTTTTTTQTTTTTTTTTTTTTTTTQTTTTTTTTTTTTTTTTQTTTTTTTTTTTTTTTTQTTTTTTTTTTTTTTTTQTTTTTTTTTTTTTTTTQTTTTTTTTTTTTTTTTQTTTTTTTTTTTTTTTTQTTTTTTTTTTTTTTTTQTTTTTTTTTTTTTTTTQTTTTTTTTTTTTTTTTQTTTTTTTTTTTTTTTTQTTTTTTTTTTTTTTTTQTTTTTTTTTTTTTTTTQTTTTTTTTTTTTTTTTQTTTTTTTTTTTTTTTTQTTTTTTTTTTTTTTTTQTTTTTTTTTTTTTTTTQTTTTTTTTTTTTTTTTQTTTTTTTTTTTTTTTTQTTTTTTTTTTTTTTTTQTTTTTTTTTTTTTTTTQTTTTTTTTTTTTTTTTQTTTTTTTTTTTTTTTTQTTTTTTTTTTTTTTTTQTTTTTTTTTTTTTTTTQTTTTTTTTTTTTTTTTQTTTTTTTTTTTTTTTTQTTTTTTTTTTTTTTTTQTTTTTTTTTTTTTTTTQTTTTTTTTTTTTTTTTQTTTTTTTTTTTTTTTTQTTTTTTTTTTTTTTTTQTTTTTTTTTTTTTTTTQTTTTTTTTTTTTTTTTQTTTTTTTTTTTTTTTTQTTTTTTTTTTTTTTTTQTTTTTTTTTTTTTTTTQTTTTTTTTTTTTTTTTQTTTTTTTTTTTTTTTTQTTTTTTTTTTTTTTTTQTTTTTTTTTTTTTTTTQTTTTTTTTTTTTTTTTQTTTTTTTTTTTTTTTTQTTTTTTTTTTTTTTTTQTTTTTTTTTTTTTTTTQTTTTTTTTTTTTTTTTQTTTTTTTTTTTTTTTTQTTTTTTTTTTTTTTTTQTTTTTTTTTTTTTTTTQTTTTTTTTTTTTTTTTQTTTTTTTTTTTTTTTTQTTTTTTTTTTTTTTTTQTTTTTTTTTTTTTTTTQTTTTTTTTTTTTTTTTQTTTTTTTTTTTTTTTTQTTTTTTTTTTTTTTTTQTTTTTTTTTTTTTTTTQTTTTTTTTTTTTTTTTQTTTTTTTTTTTTTTTTQTTTTTTTTTTTTTTTTQTTTTTTTTTTTTTTTTQTTTTTTTTTTTTTTTTQTTTTTTTTTTTTTTTTQTTTTTTTTTTTTTTTTQTTTTTTTTTTTTTTTTQTTTTTTTTTTTTTTTTQTTTTTTTTTTTTTTTTQTTTTTTTTTTTTTTTTQTTTTTTTTTTTTTTTTQTTTTTTTTTTTTTTTTQTTTTTTTTTTTTTTTTQTTTTTTTTTTTTTTTTQTTTTTTTTTTTTTTTTQTTTTTTTTTTTTTTTTQTTTTTTTTTTTTTTTTQTTTTTTTTTTTTTTTTQTTTTTTTTTTTTTTTTQTTTTTTTTTTTTTTTTQTTTTTTTTTTTTTTTTQTTTTTTTTTTTTTTTTQTTTTTTTTTTTTTTTTQTTTTTTTTTTTTTTTTQTTTTTTTTTTTTTTTTQTTTTTTTTTTTTTTTTQTTTTTTTTTTTTTTTTQTTTTTTTTTTTTTTTTQTTTTTTTTTTTTTTTTQTTTTTTTTTTTTTTTTQTTTTTTTTTTTTTTTTQTTTTTTTTTTTTTTTTQTTTTTTTTTTTTTTTTQTTTTTTTTTTTTTTTTQTTTTTTTTTTTTTTTTQTTTTTTTTTTTTTTTTQTTTTTTTTTTTTTTTTQTTTTTTTTTTTTTTTTQTTTTTTTTTTTTTTTTQTTTTTTTTTTTTTTTTQTTTTTTTTTTTTTTTTQTTTTTTTTTTTTTTTTQTTTTTTTTTTTTTTTTQTTTTTTTTTTTTTTTTQTTTTTTTTTTTTTTTTQTTTTTTTTTTTTTTTTQTTTTTTTTTTTTTTTTQTTTTTTTTTTTTTTTTQTTTTTTTTTTTTTTTTQTTTTTTTTTTTTTTTTQTTTTTTTTTTTTTTTTQTTTTTTTTTTTTTTTTQTTTTTTTTTTTTTTTTQTTTTTTTTTTTTTTTTQTTTTTTTTTTTTTTTTQTTTTTTTTTTTTTTTTQTTTTTTTTTTTTTTTTQTTTTTTTTTTTTTTTTQTTTTTTTTTTTTTTTTQTTTTTTTTTTTTTTTTQTTTTTTTTTTTTTTTTQTTTTTTTTTTTTTTTTQTTTTTTTTTTTTTTTTQTTTTTTTTTTTTTTTTQTTTTTTTTTTTTTTTTQTTTTTTTTTTTTTTTTQTTTTTTTTTTTTTTTTQTTTTTTTTTTTTTTTTQTTTTTTTTTTTTTTTTQTTTTTTTTTTTTTTTTQTTTTTTTTTTTTTTTTQTTTTTTTTTTTTTTTTQTTTTTTTTTTTTTTTTQTTTTTTTTTTTTTTTTQTTTTTTTTTTTTTTTTQTTTTTTTTTTTTTTTTQTTTTTTTTTTTTTTTTQTTTTTTTTTTTTTTTTQTTTTTTTTTTTTTTTTQTTTTTTTTTTTTTTTTQTTTTTTTTTTTTTTTTQTTTTTTTTTTTTTTTTQTTTTTTTTTTTTTTTTQTTTTTTTTTTTTTTTTQTTTTTTTTTTTTTTTTQTTTTTTTTTTTTTTTTQTTTTTTTTTTTTTTTTQTTTTTTTTTTTTTTTTQTTTTTTTTTTTTTTTTQTTTTTTTTTTTTTTTTQTTTTTTTTTTTTTTTTQTTTTTTTTTTTTTTTTQTTTTTTTTTTTTTTTTQTTTTTTTTTTTTTTTTQTTTTTTTTTTTTTTTTQTTTTTTTTTTTTTTTTQTTTTTTTTTTTTTTTTQTTTTTTTTTTTTTTTTQTTTTTTTTTTTTTTTTQTTTTTTTTTTTTTTTTQTTTTTTTTTTTTTTTTQTTTTTTTTTTTTTTTTQTTTTTTTTTTTTTTTTQTTTTTTTTTTTTTTTTQTTTTTTTTTTTTTTTTQTTTTTTTTTTTTTTTTQTTTTTTTTTTTTTTTTQTTTTTTTTTTTTTTTTQTTTTTTTTTTTTTTTTQTTTTTTTTTTTTTTTTQTTTTTTTTTTTTTTTTQTTTTTTTTTTTTTTTTQTTTTTTTTTTTTTTTTQTTTTTTTTTTTTTTTTQTTTTTTTTTTTTTTTTQTTTTTTTTTTTTTTTTQTTTTTTTTTTTTTTTTQTTTTTTTTTTTTTTTTQTTTTTTTTTTTTTTTTQTTTTTTTTTTTTTTTTQTTTTTTTTTTTTTTTTQTTTTTTTTTTTTTTTTQTTTTTTTTTTTTTTTTQTTTTTTTTTTTTTTTTQTTTTTTTTTTTTTTTTQTTTTTTTTTTTTTTTTQTTTTTTTTTTTTTTTTQTTTTTTTTTTTTTTTTQTTTTTTTTTTTTTTTTQTTTTTTTTTTTTTTTTQTTTTTTTTTTTTTTTTQTTTTTTTTTTTTTTTTQTTTTTTTTTTTTTTTTQTTTTTTTTTTTTTTTTQTTTTTTTTTTTTTTTTQTTTTTTTTTTTTTTTTQTTTTTTTTTTTTTTTTQTTTTTTTTTTTTTTTTQTTTTTTTTTTTTTTTTQTTTTTTTTTTTTTTTTQTTTTTTTTTTTTTTTTQTTTTTTTTTTTTTTTTQTTTTTTTTTTTTTTTTQTTTTTTTTTTTTTTTTQTTTTTTTTTTTTTTTTQTTTTTTTTTTTTTTTTQTTTTTTTTTTTTTTTTQTTTTTTTTTTTTTTTTQTTTTTTTTTTTTTTTTQTTTTTTTTTTTTTTTTQTTTTTTTTTTTTTTTTQTTTTTTTTTTTTTTTTQTTTTTTTTTTTTTTTTQTTTTTTTTTTTTTTTTQTTTTTTTTTTTTTTTTQTTTTTTTTTTTTTTTTQTTTTTTTTTTTTTTTTQTTTTTTTTTTTTTTTTQTTTTTTTTTTTTTTTTQTTTTTTTTTTTTTTTTQTTTTTTTTTTTTTTTTQTTTTTTTTTTTTTTTTQTTTTTTTTTTTTTTTTQTTTTTTTTTTTTTTTTQTTTTTTTTTTTTTTTTQTTTTTTTTTTTTTTTTQTTTTTTTTTTTTTTTTQTTTTTTTTTTTTTTTTQTTTTTTTTTTTTTTTTQTTTTTTTTTTTTTTTTQTTTTTTTTTTTTTTTTQTTTTTTTTTTTTTTTTQTTTTTTTTTTTTTTTTQTTTTTTTTTTTTTTTQTTTTTTTTTTTTTTTTQTTTTTTTTTTTTTTTTQTTTTTTTTTTTTTTTTQTTTTTTTTTTTTTTTTQTTTTTTTTTTTTTTTTQTTTTTTTTTTTTTTTTQTTTTTTTTTTTTTTTTQTTTTTTTTTTTTTTTTQTTTTTTTTTTTTTTTTQTTTTTTTTTTTTTTTTQTTTTTTTTTTTTTTTTQTTTTTTTTTTTTTTTTQTTTTTTTTTTTTTTTTQTTTTTTTTTTTTTTTTQTTTTTTTTTTTTTTTTQTTTTTTTTTTTTTTTTQTTTTTTTTTTTTTTTTQTTTTTTTTTTTTTTTTQTTTTTTTTTTTTTTTTQTTTTTTTTTTTTTTTTQTTTTTTTTTTTTTTTTQTTTTTTTTTTTTTTTTQTTTTTTTTTTTTTTTTQTTTTTTTTTTTTTTTTQTTTTTTTTTTTTTTTTQTTTTTTTTTTTTTTTTQTTTTTTTTTTTTTTTTQTTTTTTTTTTTTTTTTQTTTTTTTTTTTTTTTTQTTTTTTTTTTTTTTTTQTTTTTTTTTTTTTTTTQTTTTTTTTTTTTTTTTQTTTTTTTTTTTTTTTTQTTTTTTTTTTTTTTTTQTTTTTTTTTTTTTTTTQTTTTTTTTTTTTTTTTTTTTTTTTTTTTTT\xf3\xa0\x80\xbe\x04\x02\x00<\x00\x13suc<\x00\x13sucscribe-qos-9223372036854775807-tesribe-qos-85325346-TTTTTTTT\xf3\xa0\x80\xbe\x04\x02\x00<\x00\x13suc<\x00\x13sucscribe-qos-9223372036854775808-tesribe-qos-25-test'
p29
sa(dp30
g26
I1
sg28
S' \x02\x00\x00'
p31
sg23
S'srv'
p32
sg22
Nsg25
I1
sa(dp33
g26
I0
sg28
S'\x82\x0e\x00\x03\x00\tqos2/test\x02'
p34
sg23
g24
sg22
Nsg25
I2
sa(dp35
g26
I0
sg28
S'\x90\x03\x00\x03\x02'
p36
sg23
g32
sg22
Nsg25
I3
sassg13
S'intercept33.1038_0.3012_0.5974_0.5974_0.crash'
p37
s.