(dp0
S'serverpid'
p1
I3704
sS'asanOutput'
p2
NsS'reallydead'
p3
I255
sS'signum'
p4
I0
sS'exitcode'
p5
I0
sS'fuzzerPos'
p6
S'A'
p7
sS'corpusData'
p8
(dp9
S'parentFilename'
p10
S'intercept143.5918_3.pickle'
p11
sS'time'
p12
NsS'filename'
p13
S'intercept143.5918_3.1541_2.pickle'
p14
sS'seed'
p15
S'15415200308704942395'
p16
sS'fuzzer'
p17
S'Radamsa'
p18
sS'networkData'
p19
(lp20
(dp21
S'timeouts'
p22
I0
sS'data'
p23
S'\x10\x1c\x00\x04MQTT\x04\x02\x00<\x00\x10retain-qos0-test'
p24
sS'from'
p25
S'cli'
p26
sS'latency'
p27
NsS'index'
p28
I0
sa(dp29
g22
I0
sg23
S' \x02\x00\x00'
p30
sg25
S'srv'
p31
sg27
F0.00037407875061035156
sg28
I1
sa(dp32
g27
Nsg25
g26
sg28
I2
sg22
I0
sS'isFuzzed'
p33
I01
sg23
S'2"\x00\x10retain/qos0/testretained message'
p34
sa(dp35
g27
Nsg25
g26
sg28
I3
sg22
I0
sS'isFuzzed'
p36
I01
sg23
S'\x82\x15\x00\x10\xe2\x80\xab\x00\xf0\x9f\xca\xb8\xe1\xbe\x82\x92\xa9\x10\xf3\xf3\xa0\x81\x97\xa0\x81\xb7r\xf3\xa0\x0c\x99\xf3\xa0\x80\xbcet\x80\xbc\xf3\xa0\x81\x94\xf3\xa0\x80\xaa\xf3\xa0\x80\xaaest\xe2\x80\x8d\x00'
p37
sa(dp38
g22
I0
sg23
S'\x90\x03\x00\x10\x00'
p39
sg25
g31
sg27
F0.0008099079132080078
sg28
I4
sa(dp40
g22
I1
sg23
S'1"\x00\x10retain/qos0/testretained message'
p41
sg25
g31
sg27
Nsg28
I5
sassg13
S'intercept143.5918_3.1541_2.1541_2.crash'
p42
s.