(dp0
S'serverpid'
p1
I31617
sS'asanOutput'
p2
NsS'reallydead'
p3
I-11
sS'signum'
p4
I0
sS'exitcode'
p5
I0
sS'fuzzerPos'
p6
S'B'
p7
sS'corpusData'
p8
(dp9
S'parentFilename'
p10
S'intercept112.1688_0.4093_0.1366_2.pickle'
p11
sS'time'
p12
NsS'filename'
p13
S'intercept112.1688_0.4093_0.1366_2.1358_0.pickle'
p14
sS'seed'
p15
S'13584413007246925169'
p16
sS'fuzzer'
p17
S'Radamsa'
p18
sS'networkData'
p19
(lp20
(dp21
S'latency'
p22
NsS'from'
p23
S'cli'
p24
sS'index'
p25
I0
sS'timeouts'
p26
I0
sS'isFuzzed'
p27
I01
sS'data'
p28
S'\xf3\xa0\x80\xa6\x10\x17\xff\x04MQ\xf3\xa0\x81\x87TT\x04\x02\x00<\x00\x0btest\xef\xbf\xbf-\xe2\x80\xafhelper'
p29
sa(dp30
g26
I1
sg23
S'srv'
p31
sg28
S' \x02\x00\x00'
p32
sg25
I1
sg22
Nsa(dp33
g25
I2
sg23
g24
sg22
Nsg26
I0
sS'isFuzzed'
p34
I01
sg28
S'1\xe0\xb9\x82\x1a\x00\x11/test////a//topicmessage'
p35
sassg13
S'intercept112.1688_0.4093_0.1366_2.1358_0.1358_0.crash'
p36
s.