(dp0
S'serverpid'
p1
I9264
sS'asanOutput'
p2
NsS'reallydead'
p3
I-11
sS'signum'
p4
I0
sS'exitcode'
p5
I0
sS'fuzzerPos'
p6
S'C'
p7
sS'corpusData'
p8
(dp9
S'parentFilename'
p10
S'intercept116.6852_6.6512_2.pickle'
p11
sS'time'
p12
NsS'filename'
p13
S'intercept116.6852_6.6512_2.1224_2.pickle'
p14
sS'seed'
p15
S'12244182608371350939'
p16
sS'fuzzer'
p17
S'Radamsa'
p18
sS'networkData'
p19
(lp20
(dp21
S'timeouts'
p22
I0
sS'data'
p23
S'\x10\x1c\x00\x04MQTT\x04\x02\x00<\x00\x10pattern-sub-test'
p24
sS'from'
p25
S'cli'
p26
sS'latency'
p27
NsS'index'
p28
I0
sa(dp29
g22
I0
sg23
S' \x02\x00\x00'
p30
sg25
S'srv'
p31
sg27
F6.985664367675781e-05
sg28
I1
sa(dp32
g27
Nsg25
g26
sg28
I2
sg22
I0
sS'isFuzzed'
p33
I01
sg23
S'\x82\n\x01170141183460469231731687314118346046923173168730371588410\x05fo\xf3\xa0\x81\xafo/#\x00'
p34
sa(dp35
g22
I1
sg23
S'\x90\x03\x018\x00'
p36
sg25
g31
sg27
Nsg28
I3
sa(dp37
g22
I0
sg23
S'1\x14\x00\x0bfoo/bar/bazmessage1\x18\x00\x0ffoo/bar/baz/barmessage1\x18\x00\x0ffoo/foo/baz/barmessage1\x0c\x00\x03foomessage'
p38
sg25
g31
sg27
Nsg28
I4
sa(dp39
g22
I0
sg23
S'0\x17\x00\x0efoo//bar///bazmessage'
p40
sg25
g31
sg27
Nsg28
I5
sa(dp41
g27
Nsg25
g26
sg28
I6
sg22
I0
sS'isFuzzed'
p42
I01
sg23
S'0\x17\x00\x0ef\xca\xb8//bar///bazmessage'
p43
sassg13
S'intercept116.6852_6.6512_2.1224_2.1224_2.crash'
p44
s.