(dp0
S'serverpid'
p1
I2060
sS'asanOutput'
p2
NsS'reallydead'
p3
I139
sS'signum'
p4
I0
sS'exitcode'
p5
I0
sS'fuzzerPos'
p6
S'C'
p7
sS'corpusData'
p8
(dp9
S'parentFilename'
p10
S'intercept56.1831_6.pickle'
p11
sS'time'
p12
NsS'filename'
p13
S'intercept56.1831_6.1766_2.pickle'
p14
sS'seed'
p15
S'17661113000044784076'
p16
sS'fuzzer'
p17
S'Radamsa'
p18
sS'networkData'
p19
(lp20
(dp21
S'timeouts'
p22
I0
sS'data'
p23
S'\x10\x19\x00\x04MQTT\x04\x02\x00<\x00\rsubhier-crash'
p24
sS'from'
p25
S'cli'
p26
sS'latency'
p27
NsS'index'
p28
I0
sa(dp29
g22
I0
sg23
S' \x02\x00\x00'
p30
sg25
S'srv'
p31
sg27
F0.00015592575073242188
sg28
I1
sa(dp32
g27
Nsg25
g26
sg28
I2
sg22
I0
sS'isFuzzed'
p33
I01
sg23
S'\x82\x0c\x00\x01\x0c\x00\x01\x00\x07t\x00\x01\x00\x06\x07t\x01\x00\x07H\xf3\xa0\x81\xb5/a\x00'
p34
sa(dp35
g22
I1
sg23
S'\x90\x03\x00\x01\x00'
p36
sg25
g31
sg27
Nsg28
I3
sa(dp37
g22
I0
sg23
S'\x82\x0c\x00\x02\x00\x07topic/b\x00'
p38
sg25
g26
sg27
Nsg28
I4
sa(dp39
g22
I0
sg23
S'\x90\x03\x00\x02\x00'
p40
sg25
g31
sg27
Nsg28
I5
sa(dp41
g27
Nsg25
g26
sg28
I6
sg22
I0
sS'isFuzzed'
p42
I01
sg23
S'\xa2\xef\xbc\x8f\x00\x03\x07\xf3\xe2\x81\xa7\xa0\x80\xa8topi\xf0\x9f\x92\xa9c\xca\xb4/a'
p43
sa(dp44
g22
I0
sg23
S'\xb0\x02\x00\x03'
p45
sg25
g31
sg27
Nsg28
I7
sa(dp46
g22
I0
sg23
S'\xe0\x00'
p47
sg25
g26
sg27
Nsg28
I8
sassg13
S'intercept56.1831_6.1766_2.1766_2.crash'
p48
s.