(dp0
S'serverpid'
p1
I7738
sS'asanOutput'
p2
NsS'reallydead'
p3
I-11
sS'signum'
p4
I0
sS'exitcode'
p5
I0
sS'fuzzerPos'
p6
S'C'
p7
sS'corpusData'
p8
(dp9
S'parentFilename'
p10
S'intercept69.1135_0.1236_0.pickle'
p11
sS'time'
p12
NsS'filename'
p13
S'intercept69.1135_0.1236_0.2938_0.pickle'
p14
sS'seed'
p15
S'2938489046423956399'
p16
sS'fuzzer'
p17
S'Radamsa'
p18
sS'networkData'
p19
(lp20
(dp21
S'latency'
p22
NsS'from'
p23
S'cli'
p24
sS'index'
p25
I0
sS'timeouts'
p26
I0
sS'isFuzzed'
p27
I01
sS'data'
p28
S'\x10\xf3\xa0\x80\xa5!\x00\x06NQ\x14sep\x03\x00\x00<\x00\x13pub-qos--9134-\xef\xa3\xbfdjsco-\xf4\x8f\xbf\xbetest'
p29
sa(dp30
g26
I0
sg23
S'srv'
p31
sg28
S' \x02\x00\x00'
p32
sg25
I1
sg22
Nsa(dp33
g26
I0
sg23
g24
sg28
S'j\x02\x00\x01'
p34
sg25
I2
sg22
Nsa(dp35
g26
I0
sg23
g31
sg28
S'p\x02\x00\x01'
p36
sg25
I3
sg22
Nsassg13
S'intercept69.1135_0.1236_0.2938_0.2938_0.crash'
p37
s.