(dp0
S'serverpid'
p1
I20062
sS'asanOutput'
p2
NsS'reallydead'
p3
I-11
sS'signum'
p4
I0
sS'exitcode'
p5
I0
sS'fuzzerPos'
p6
S'C'
p7
sS'corpusData'
p8
(dp9
S'parentFilename'
p10
S'intercept45.pickle'
p11
sS'time'
p12
NsS'filename'
p13
S'intercept45.1634_2.pickle'
p14
sS'seed'
p15
S'16341244657578639302'
p16
sS'fuzzer'
p17
S'Radamsa'
p18
sS'networkData'
p19
(lp20
(dp21
S'timeouts'
p22
I0
sS'data'
p23
S'\x10!\x00\x04MQTT\x04\x02\x00<\x00\x15unsubscribe-qos2-test'
p24
sS'from'
p25
S'cli'
p26
sS'latency'
p27
NsS'index'
p28
I0
sa(dp29
g22
I0
sg23
S' \x02\x00\x00'
p30
sg25
S'srv'
p31
sg27
F7.295608520507812e-05
sg28
I1
sa(dp32
g27
Nsg25
g26
sg28
I2
sg22
I0
sS'isFuzzed'
p33
I01
sg23
S'\xa2\r\x00\x03\x00\xf4\x8f\xbf\xa2\r\x00\x03\x00\xf4\x8f\xbf\xbe\xef\xbe\xa0\tq\xf3\xa0\x80\x81\xf3\xa0\xef\xbf\xbf\xe2\x80\xaa\x81\x8dos3\xf3\xa0\x81\x82\xca\xb1/test'
p34
sa(dp35
g22
I1
sg23
S'\xb0\x02\x00\x03'
p36
sg25
g31
sg27
Nsg28
I3
sassg13
S'intercept45.1634_2.1634_2.crash'
p37
s.