(dp0
S'serverpid'
p1
NsS'asanOutput'
p2
NsS'reallydead'
p3
NsS'signum'
p4
NsS'exitcode'
p5
NsS'fuzzerPos'
p6
S'C'
p7
sS'corpusData'
p8
(dp9
S'parentFilename'
p10
S'intercept107.1658_5.1146_5.1641_7.pickle'
p11
sS'time'
p12
NsS'filename'
p13
S'intercept107.1658_5.1146_5.1641_7.1154_0.pickle'
p14
sS'seed'
p15
S'11547323633166680775'
p16
sS'fuzzer'
p17
S'Radamsa'
p18
sS'networkData'
p19
(lp20
(dp21
S'index'
p22
I0
sS'from'
p23
S'cli'
p24
sS'latency'
p25
NsS'timeouts'
p26
I0
sS'isFuzzed'
p27
I01
sS'data'
p28
S'\x10\x1c\xef\xa3\xbf\x00\x04\xe1\xc2\xb7\x85\xa0MQTT\x04\x02\x00<\x00\x10p`ttern-s\xf3\xa0\x81\xbbub-\xca\xb2test'
p29
sa(dp30
g26
I1
sg23
S'srv'
p31
sg28
S' \x02\x00\x00'
p32
sg22
I1
sg25
Nsa(dp33
g26
I0
sg23
g24
sg28
S'\x82\x1d\x018\x00\x18+/+/+/+/+/+/+/+/+/+/test\x00'
p34
sg22
I2
sg25
Nsa(dp35
g26
I0
sg23
g31
sg28
S'\x90\x03\x018\x00'
p36
sg22
I3
sg25
Nsa(dp37
g26
I0
sg23
g31
sg28
S'0>\x005one/two/three/four/five/six/seven/eight/nine/ten/testmessage'
p38
sg22
I4
sg25
Nsa(dp39
g25
Nsg23
g24
sg22
I5
sg26
I0
sS'isFuzzed'
p40
I01
sg28
S'\xa2\xe2\xa9\x1c\x00\xea\xb9\x18+/+/\xf3\xa0\x80\xe1\xa1\x8e\xbc\xbc\xbc+\xe2\x80\xa8/+/+/+/+/tete\x89ssss|||t'
p41
sa(dp42
g26
I0
sg23
g31
sg28
S'\xb0\x02\x00\xea'
p43
sg22
I6
sg25
Nsa(dp44
g22
I7
sg23
g24
sg25
Nsg26
I0
sS'isFuzzed'
p45
I01
sg28
S'\x82\x1d\x018\x00\x18+/+/+/+/+/\xf3\xa0\x80\xa0+/+/+/+/+/test\x00'
p46
sa(dp47
g26
I0
sg23
g31
sg28
S'\x90\x03\x018\x00'
p48
sg22
I8
sg25
Nsa(dp49
g26
I0
sg23
g31
sg28
S'1>\x005one/two/three/four/five/six/seven/eight/nine/ten/testmessage'
p50
sg22
I9
sg25
Nsassg13
S'intercept107.1658_5.1146_5.1641_7.1154_0.1154_0.crash'
p51
s.