(dp0
S'serverpid'
p1
I3882
sS'asanOutput'
p2
NsS'reallydead'
p3
I-11
sS'signum'
p4
I0
sS'exitcode'
p5
I0
sS'fuzzerPos'
p6
S'C'
p7
sS'corpusData'
p8
(dp9
S'parentFilename'
p10
S'intercept147.9588_8.pickle'
p11
sS'time'
p12
NsS'filename'
p13
S'intercept147.9588_8.6057_0.pickle'
p14
sS'seed'
p15
S'6057067299520098716'
p16
sS'fuzzer'
p17
S'Radamsa'
p18
sS'networkData'
p19
(lp20
(dp21
S'latency'
p22
NsS'from'
p23
S'cli'
p24
sS'index'
p25
I0
sS'timeouts'
p26
I0
sS'isFuzzed'
p27
I01
sS'data'
p28
S'\x10 \x00\x04MQTT\x04\x02\x00<\x00\x14retain-qos--112962062132280385161019411511359097925-rep-test'
p29
sa(dp30
g26
I0
sg28
S' \x02\x00\x00'
p31
sg23
S'srv'
p32
sg22
F0.00035500526428222656
sg25
I1
sa(dp33
g26
I0
sg28
S'1"\x00\x10retain/qos0/testretained message'
p34
sg23
g24
sg22
Nsg25
I2
sa(dp35
g26
I0
sg28
S'\x82\x15\x00\x10\x00\x10retain/qos0/test\x00'
p36
sg23
g24
sg22
Nsg25
I3
sa(dp37
g26
I1
sg28
S'\x90\x03\x00\x10\x00'
p38
sg23
g32
sg22
Nsg25
I4
sa(dp39
g26
I0
sg28
S'1"\x00\x10retain/qos0/testretained message'
p40
sg23
g32
sg22
Nsg25
I5
sa(dp41
g26
I0
sg28
S'\xa2\x14\x00\r\x00\x10retain/qos0/test'
p42
sg23
g24
sg22
Nsg25
I6
sa(dp43
g26
I0
sg28
S'\xb0\x02\x00\r'
p44
sg23
g32
sg22
Nsg25
I7
sa(dp45
g22
Nsg23
g24
sg25
I8
sg26
I0
sS'isFuzzed'
p46
I01
sg28
S'\x82\x15\x00\x10\xf3\xa0\x81\x00\x10r\xf3\xa0\x81\xb1etain/qos0/test\x00'
p47
sa(dp48
g26
I0
sg28
S'\x90\x03\x00\x10\x00'
p49
sg23
g32
sg22
Nsg25
I9
sa(dp50
g26
I0
sg28
S'1"\x00\x10retain/qos0/testretained message'
p51
sg23
g32
sg22
Nsg25
I10
sassg13
S'intercept147.9588_8.6057_0.6057_0.crash'
p52
s.