(dp0
S'serverpid'
p1
NsS'asanOutput'
p2
NsS'reallydead'
p3
NsS'signum'
p4
NsS'exitcode'
p5
NsS'fuzzerPos'
p6
S'C'
p7
sS'corpusData'
p8
(dp9
S'parentFilename'
p10
S'intercept47.1488_0.pickle'
p11
sS'time'
p12
NsS'filename'
p13
S'intercept47.1488_0.8122_0.pickle'
p14
sS'seed'
p15
S'8122171024758822370'
p16
sS'fuzzer'
p17
S'Radamsa'
p18
sS'networkData'
p19
(lp20
(dp21
S'latency'
p22
NsS'from'
p23
S'cli'
p24
sS'index'
p25
I0
sS'timeouts'
p26
I0
sS'isFuzzed'
p27
I01
sS'data'
p28
S'\x10-\x00\x04MQTT\x04\x02\x00<\x00!unsubscribe-invalid-n-Topicteste-invalid-n-Topic-teste-invalid-n-Topic-teste-invalid-n-Topic-teste-invalid-n-Topic-teste-invalid-n-Topicteste-invalid-n-Topic-teste-invalid-n-Topic-teste-invalid-n-Topic-teste-invalid-n-Topic-teste-invalid-n-Topic-teste-invalid-n-Topic-teste-invalid-n-Topicteste-invalid-n-Topic-teste-invalid-n-Topic-teste-invalid-n-Topic-teste-invalid-n-Topic-teste-invalid-n-Topic\xe6-teste-invalid-n-Topic-teste-invalid-n-Topicteste-invalid-n-Topic-teste-invalid-n-Topic-teste-invalid-n-Topic-teste-invalid-n-Topic-teste-invalid-n-Topic-teste-invalid-n-Topic-teste-invalid-n-Topicteste-invalid-n-Topic-teste-invalid-n-Topic-teste-invalid-n-Topic-teste-invalid-n-Topic-teste-invalid-n-Topic-teste-invalid-n-Topic-teste-invalid-n-Topicteste-invalid-n-Topic-teste-invalid-n-Topic-teste-invalid-n-Topic-teste-invalid-n-Topic-teste-invalid-n-Topic-teste-invalid-n-Topic-teste-invalid-n-Topicteste-invalid-n-Topic-teste-invalid-n-Topic-teste-invalid-n-Topic-teste-invalid-n-Topic-teste-invalid-n-Topic-teste-invalid-n-Topic-teste-invalid-n-Topicteste-invalid-n-Topic-teste-invalid-n-Topic-teste-invalid-n-Topic-teste-invalid-n-Topic-teste-invalid-n-Topic-teste-invalid-n-Topic-test'
p29
sa(dp30
g26
I0
sg28
S' \x02\x00\x00'
p31
sg23
S'srv'
p32
sg22
Nsg25
I1
sa(dp33
g26
I0
sg28
S'\xa2\x02\x00\x03'
p34
sg23
g24
sg22
Nsg25
I2
sassg13
S'intercept47.1488_0.8122_0.8122_0.crash'
p35
s.