(dp0
S'serverpid'
p1
I4816
sS'asanOutput'
p2
NsS'reallydead'
p3
I-11
sS'signum'
p4
I0
sS'exitcode'
p5
I0
sS'fuzzerPos'
p6
S'C'
p7
sS'corpusData'
p8
(dp9
S'parentFilename'
p10
S'intercept153.1020_0.1515_2.pickle'
p11
sS'time'
p12
NsS'filename'
p13
S'intercept153.1020_0.1515_2.3037_0.pickle'
p14
sS'seed'
p15
S'3037574639157123695'
p16
sS'fuzzer'
p17
S'Radamsa'
p18
sS'networkData'
p19
(lp20
(dp21
S'latency'
p22
NsS'from'
p23
S'cli'
p24
sS'index'
p25
I0
sS'timeouts'
p26
I0
sS'isFuzzed'
p27
I01
sS'data'
p28
S'\x10\x1c\x00\x04MQTT\x04\x02\x00<\x00\x10retain-q\xca\xb7os12\xe2\x80\xae7-test'
p29
sa(dp30
g26
I0
sg28
S' \x02\x00\x00'
p31
sg23
S'srv'
p32
sg22
F0.00015401840209960938
sg25
I1
sa(dp33
g22
Nsg23
g24
sg25
I2
sg26
I0
sS'isFuzzed'
p34
I01
sg28
S'340282366920938463463374607431768211455\xf3\xa0\x81\x95"\x00\x10retain/qos2/testretained message'
p35
sa(dp36
g26
I0
sg28
S'\x82\x15\x00\x10\x00\x10retain/qos0/test\x01'
p37
sg23
g24
sg22
Nsg25
I3
sa(dp38
g26
I1
sg28
S'\x90\x03\x00\x10\x01'
p39
sg23
g32
sg22
Nsg25
I4
sassg13
S'intercept153.1020_0.1515_2.3037_0.3037_0.crash'
p40
s.