(dp0
S'serverpid'
p1
NsS'asanOutput'
p2
NsS'reallydead'
p3
NsS'signum'
p4
NsS'exitcode'
p5
NsS'fuzzerPos'
p6
S'C'
p7
sS'corpusData'
p8
(dp9
S'parentFilename'
p10
S'intercept156.3201_0.1095_0.9973_2.pickle'
p11
sS'time'
p12
NsS'filename'
p13
S'intercept156.3201_0.1095_0.9973_2.9040_0.pickle'
p14
sS'seed'
p15
S'9040151438861354817'
p16
sS'fuzzer'
p17
S'Radamsa'
p18
sS'networkData'
p19
(lp20
(dp21
S'latency'
p22
NsS'from'
p23
S'cli'
p24
sS'index'
p25
I0
sS'timeouts'
p26
I0
sS'isFuzzed'
p27
I01
sS'data'
p28
S'\x10\x17\x00\xc0\x84MQs\xc9p\x00e\x02T\x0b\x0btTh\x04\x00tyle-e'
p29
sa(dp30
g26
I1
sg23
S'srv'
p31
sg28
S' \x02\x00\x00'
p32
sg25
I1
sg22
Nsa(dp33
g25
I2
sg23
g24
sg22
Nsg26
I0
sS'isFuzzed'
p34
I01
sg28
S'18446744073709551617\x00\x17qos255/clean_sestion/t18446744073709551617\x00\x17qos255/clean_sestion/t18446744073709551617\x00\x17qos255/clean_sestion/t18446744073709551617\x00\x17qos255/clean_sestion/t18446744073709551617\x00\x17qos255/clean_sestion/t18446744073709551617\x00\x17qos255/clean_sestion/t18446744073709551617\x00\x17qos255/clean_sestion/t18446744073709551617\x00\x17qos255/clean_sestion/t18446744073709551617\x00\x17qos255/clean_sestion/t18446744073709551617\x00\x17qos255/clean_sestion/t18446744073709551617\x00\x17qos255/clean_sestion/t18446744073709551617\x00\x17qos255/clean_sestion/t18446744073709551617\x00\x17qos255/clean_sestion/t18446744073720196396\x00\x17qos255/clean_sestion/t18446744073709551617\x00\x17qos255/clean_sestion/t18446744073709551617\x00\x17qos255/clean_sestion/t18446744073709551617\x00\x17qos255/clean_sestion/t18446744073709551617\x00\x17qos255/clean_sestion/t18446744073709551617\x00\x17qos255/clean_sestion/t18446744073709551617\x00\x17qos255/clean_sestion/t18446744073709551617\x00\x17qos255/clean_sestion/t18446744073709551617\x00\x17qos255/clean_sestion/t18474047097635451617\x00\x17qos255/clean_sestion/t18446744073709551617\x00\x17qos255/clean_sestion/t18446744073709551617\x00\x17qos255/clean_sestion/t18446744073709551617\x00\x17qos255/clean_sestion/t18446744073709551617\x00\x17qos2147483904/clean_sestion/t18446744073709551617\x00\x17qos255/clean_sestion/t18446744073709551617\x00\x17qos255/clean_sestion/t18446744073709551617\x00\x17qos255/clean_sestion/t18446744073709551617\x00\x17qos255/clean_sestion/t18446744073709551617\x00\x17qos255/clean_sestion/t18446744073709551617\x00\x17qos255/clean_sestion/t18446744073709551617\x00\x17qos255/clean_sestion/t18446744073709551617\x00\x17qos255/clean_sestion/t18446744073709551617\x00\x17qos255/clean_sestion/t18446744073709551617\x00\x17qos255/clean_sestion/t18446744073709551617\x00\x17qos255/clean_sestion/t18446744073709551617\x00\x17qos255/clean_sestion/t18446744073709551617\x00\x17qos255/clean_sestion/t18446744073709551617\x00\x17qos255/clean_sestion/t18446744073709551617\x00\x17qos255/clean_sestion/t18446744073709551617\x00\x17qos255/clean_sestion/t18446744073709551617\x00\x17qos255/clean_sestion/t18446744073709551617\x00\x17qos255/clean_sestion/t18446744073709551617\x00\x17qos255/clean_sestion/t18446744073709551617\x00\x17qos255/clean_sestion/t18446744073709551617\x00\x17qos255/clean_sestion/t18446744073709551617\x00\x17qos255/clean_sestion/t18446744073709551617\x00\x17qos255/clean_sestion/t18446744073709551617\x00\x17qos255/clean_sestion/t18446744073709551617\x00\x17qos255/clean_sestion/t18446744073709551617\x00\x17qos255/clean_sestion/t18446744073709551617\x00\x17qos255/clean_sestion/t18446744073709551617\x00\x17qos255/clean_sestion/t18446744073709551617\x00\x17qos255/clean_sestion/t18446744073709551617\x00\x17qos255/clean_sestion/t18446744073709551617\x00\x17qos255/clean_sestion/t18446744073709551617\x00\x17qos255/clean_sestion/t18446744073709551617\x00\x17qos255/clean_sestion/t18446744073709551617\x00\x17qos255/clean_sestion/t18446744073709551617\x00\x17qos255/clean_sestion/t18446744073709551617\x00\x17qos255/clean_sestion/t18446744073709551617\x00\x17qos255/clean_sestion/t18446744073709551617\x00\x17qos255/clean_sestion/t18446744073709551617\x00\x17qos255/clean_sestion/t18446744073709551617\x00\x17qos255/clean_sestion/t18446744073709551617\x00\x17qos255/clean_sestion/t18446744073709551617\x00\x17qos255/clean_sestion/t18446744073709551617\x00\x17qos255/clean_sestion/t18446744073709551617\x00\x17qos255/clean_sestion/t18446744073709551617\x00\x17qos255/clean_sestion/t18446744073709551617\x00\x17qos255/clean_sestion/t18446744073709551617\x00\x17qos255/clean_sestion/t18446744073709551617\x00\x17qos255/clean_sestion/t18446744073709551617\x00\x17qos255/clean_sestion/t18446744073709551617\x00\x17qos255/clean_sestion/t18446744073709551617\x00\x17qos255/clean_sestion/t18446744073709551617\x00\x17qos255/clean_sestion/t18446744073709551617\x00\x17qos255/clean_sestion/t18446744073709551617\x00\x17qos255/clean_sestion/t18446744073709551617\x00\x17qos255/clean_sestion/t18446744073709551617\x00\x17qos255/clean_sestion/t18446744073709551617\x00\x17qos255/clean_sestion/t18446744073709551617\x00\x17qos255/clean_sestion/t18446744073709551617\x00\x17qos255/clean_sestion/t18446744073709551617\x00\x17qos255/clean_sestion/t18446744073709551617\x00\x17qos255/clean_sestion/t18446744073709551617\x00\x17qos255/clean_sestion/t18446744073709551617\x00\x17qos255/clean_sestion/t18446744073709551617\x00\x17qos255/clean_sestion/t18446744073709551617\x00\x17qos255/clean_sestion/t18446744073709551617\x00\x17qos255/clean_sestion/t18446744073709551617\x00\x17qos255/clean_sestion/t18446744073709551617\x00\x17qos255/clean_sestion/t18446744073709551617\x00\x17qos255/clean_sestion/t18446744073709551617\x00\x17qos255/clean_sestion/t18446744073709551617\x00\x17qos255/clean_sestion/t18446744073709551617\x00\x17qos255/clean_sestion/t18446744073709551617\x00\x17qos255/clean_sestion/t18446744073709551617\x00\x17qos255/clean_sestion/t18446744073709551617\x00\x17qos255/clean_sestion/t18446744073709551617\x00\x17qos255/clean_sestion/t18446744073709551617\x00\x17qos255/clean_sestion/t18446744073709551617\x00\x17qos255/clean_sestion/t18446744073709551617\x00\x17qos255/clean_sestion/t18446744073709551617\x00\x17qos255/clean_sestion/t18446744073709551617\x00\x17qos255/clean_sestion/t18446744073709551617\x00\x17qos255/clean_sestion/t18446744073709551617\x00\x17qos255/clean_sestion/t18446744073709551617\x00\x17qos255/clean_sestion/t18446744073709551617\x00\x17qos255/clean_sestion/t18446744073709551617\x00\x17qos255/clean_sestion/t18446744073709551617\x00\x17qos255/clean_sestion/t18446744073709551617\x00\x17qos255/clean_sestion/t18446744073709551617\x00\x17qos255/clean_sestion/t18446744073709551617\x00\x17qos255/clean_sestion/t18446744073709551617\x00\x17qos255/clean_sestion/t18446744073709551617\x00\x17qos255/clean_sestion/t18446744073709551617\x00\x17qos255/clean_sestion/t18446744073709551617\x00\x17qos255/clean_sestion/t18446744073709551617\x00\x17qos255/clean_sestion/t18446744073709551617\x00\x17qos255/clean_sestion/t18446744073709551617\x00\x17qos255/clean_sestion/t18446744073709551617\x00\x17qos255/clean_sestion/t18446744073709551617\x00\x17qos255/clean_sestion/t18446744073709551617\x00\x17qos255/clean_sestion/t18446744073709551617\x00\x17qos255/clean_sestion/t18446744073709551617\x00\x17qos255/clean_sestion/t18446744073709551617\x00\x17qos255/clean_sestion/t18446744073709551617\x00\x17qos255/clean_sestion/t18446744073709551617\x00\x17qos255/clean_sestion/t18446744073709551617\x00\x17qos255/clean_sestion/t18446744073709551617\x00\x17qos255/clean_sestion/t18446744073709551617\x00\x17qos255/clean_sestion/t18446744073709551617\x00\x17qos255/clean_sestion/t18446744073709551617\x00\x17qos255/clean_sestion/t18446744073709551617\x00\x17qos255/clean_sestion/t18446744073709551617\x00\x17qos255/clean_sestion/t18446744073709551617\x00\x17qos255/clean_sestion/t18446744073709551617\x00\x17qos255/clean_sestion/t18446744073709551617\x00\x17qos255/clean_sestion/t18446744073709551617\x00\x17qos255/clean_sestion/t18446744073709551617\x00\x17qos255/clean_sestion/t18446744073709551617\x00\x17qos255/clean_sestion/t18446744073709551617\x00\x17qos255/clean_sestion/t18446744073709551617\x00\x17qos255/clean_sestion/t18446744073709551617\x00\x17qos255/clean_sestion/t18446744073709551617\x00\x17qos255/clean_sestion/t18446744073709551617\x00\x17qos255/clean_sestion/t18446744073709551617\x00\x17qos255/clean_sestion/t18446744073709551617\x00\x17qos255/clean_sestion/t18446744073709551617\x00\x17qos255/clean_sestion/t18446744073709551617\x00\x17qos255/clean_sestion/t18446744073709551617\x00\x17qos255/clean_sestion/t18446744073709551617\x00\x17qos255/clean_sestion/t18446744073709551617\x00\x17qos255/clean_sestion/t18446744073709551617\x00\x17qos255/clean_sestion/t18446744073709551617\x00\x17qos255/clean_sestion/t18446744073709551617\x00\x17qos255/clean_sestion/t18446744073709551617\x00\x17qos255/clean_sestion/t18446744073709551617\x00\x17qos255/clean_sestion/t18446744073709551617\x00\x17qos255/clean_sestion/t18446744073709551617\x00\x17qos255/clean_sestion/t18446744073709551617\x00\x17qos255/clean_sestion/t18446744073709551617\x00\x17qos255/clean_sestion/t18446744073709551617\x00\x17qos255/clean_sestion/t18446744073709551617\x00\x17qos255/clean_sestion/t18446744073709551617\x00\x17qos255/clean_sestion/t18446744073709551617\x00\x17qos255/clean_sestion/t18446744073709551617\x00\x17qos255/clean_sestion/t18446744073709551617\x00\x17qos255/clean_sestion/t18446744073709551617\x00\x17qos255/clean_sestion/t18446744073709551617\x00\x17qos255/clean_sestion/t18446744073709551617\x00\x17qos255/clean_sestion/t18446744073709551617\x00\x17qos255/clean_sestion/t18446744073709551617\x00\x17qos255/clean_sestion/t18446744073709551617\x00\x17qos255/clean_sestion/t18446744073709551617\x00\x17qos255/clean_sestion/t18446744073709551617\x00\x17qos255/clean_sestion/t18446744073709551617\x00\x17qos255/clean_sestion/t18446744073709551617\x00\x17qos255/clean_sestion/t18446744073709551617\x00\x17qos255/clean_sestion/t18446744073709551617\x00\x17qos255/clean_sestion/t18446744073709551617\x00\x17qos255/clean_sestion/t18446744073709551617\x00\x17qos255/clean_sestion/t18446744073709551617\x00\x17qos255/clean_sestion/t18446744073709551617\x00\x17qos255/clean_sestion/t18446744073709551617\x00\x17qos255/clean_sestion/t18446744073709551617\x00\x17qos255/clean_sestion/t18446744073709551617\x00\x17qos255/clean_sestion/t18446744073709551617\x00\x17qos255/clean_sestion/t18446744073709551617\x00\x17qos255/clean_sestion/t18446744073709551617\x00\x17qos255/clean_sestion/t18446744073709551617\x00\x17qos255/clean_sestion/t18446744073709551617\x00\x17qos255/clean_sestion/t18446744073709551617\x00\x17qos255/clean_sestion/t18446744073709551617\x00\x17qos255/clean_sestion/t18446744073709551617\x00\x17qos255/clean_sestion/t18446744073709551617\x00\x17qos255/clean_sestion/t18446744073709551617\x00\x17qos255/clean_sestion/t18446744073709551617\x00\x17qos255/clean_sestion/t18446744073709551617\x00\x17qos255/clean_sestion/t18446744073709551617\x00\x17qos255/clean_sestion/t18446744073709551617\x00\x17qos255/clean_sestion/t18446744073709551617\x00\x17qos255/clean_sestion/t18446744073709551617\x00\x17qos255/clean_sestion/t18446744073709551617\x00\x17qos255/clean_sestion/t18446744073709551617\x00\x17qos255/clean_sestion/t18446744073709551617\x00\x17qos255/clean_sestion/t18446744073709551617\x00\x17qos255/clean_sestion/t18446744073709551617\x00\x17qos255/clean_sestion/t18446744073709551617\x00\x17qos255/clean_sestion/t18446744073709551617\x00\x17qos255/clean_sestion/t18446744073709551617\x00\x17qos255/clean_sestion/t18446744073709551617\x00\x17qos255/clean_sestion/t18446744073709551617\x00\x17qos255/clean_sestion/t18446744073709551617\x00\x17qos255/clean_sestion/t18446744073709551617\x00\x17qos255/clean_sestion/t18446744073709551617\x00\x17qos255/clean_sestion/t18446744073709551617\x00\x17qos255/clean_sestion/t18446744073709551617\x00\x17qos255/clean_sestion/t18446744073709551617\x00\x17qos255/clean_sestion/t18446744073709551617\x00\x17qos255/clean_sestion/t18446744073709551617\x00\x17qos255/clean_sestion/t18446744073709551617\x00\x17qos255/clean_sestion/t18446744073709551617\x00\x17qos255/clean_sestion/t18446744073709551617\x00\x17qos255/clean_sestion/t18446744073709551617\x00\x17qos255/clean_sestion/t18446744073709551617\x00\x17qos255/clean_sestion/t18446744073709551617\x00\x17qos255/clean_sestion/t18446744073709551617\x00\x17qos255/clean_sestion/t18446744073709551617\x00\x17qos255/clean_sestion/t18446744073709551617\x00\x17qos255/clean_sestion/t18446744073709551617\x00\x17qos255/clean_sestion/t18446744073709551617\x00\x17qos255/clean_sestion/t18446744073709551617\x00\x17qos255/clean_sestion/t18446744073709551617\x00\x17qos255/clean_sestion/t18446744073709551617\x00\x17qos255/clean_sestion/t18446744073709551617\x00\x17qos255/clean_sestion/t18446744073709551617\x00\x17qos255/clean_sestion/t18446744073709551617\x00\x17qos255/clean_sestion/t18446744073709551617\x00\x17qos255/clean_sestion/t18446744073709551617\x00\x17qos255/clean_sestion/t18446744073709551617\x00\x17qos255/clean_sestion/t18446744073709551617\x00\x17qos255/clean_sestion/t18446744073709551617\x00\x17qos255/clean_sestion/t18446744073709551617\x00\x17qos255/clean_sestion/t18446744073709551617\x00\x17qos255/clean_sestion/t18446744073709551617\x00\x17qos255/clean_sestion/t18446744073709551617\x00\x17qos255/clean_sestion/t18446744073709551617\x00\x17qos255/clean_sestion/t18446744073709551617\x00\x17qos255/clean_sestion/t18446744073709551617\x00\x17qos255/clean_sestion/t18446744073709551617\x00\x17qos255/clean_sestion/t18446744073709551617\x00\x17qos255/clean_sestion/t18446744073709551617\x00\x17qos255/clean_sestion/t18446744073709551617\x00\x17qos255/clean_sestion/t18446744073709551617\x00\x17qos255/clean_sestion/t18446744073709551617\x00\x17qos255/clean_sestion/t18446744073709551617\x00\x17qos255/clean_sestion/t18446744073709551617\x00\x17qos255/clean_sestion/t18446744073709551617\x00\x17qos255/clean_sestion/t18446744073709551617\x00\x17qos255/clean_sestion/t18446744073709551617\x00\x17qos255/clean_sestion/t18446744073709551617\x00\x17qos255/clean_sestion/t18446744073709551617\x00\x17qos255/clean_sestion/t18446744073709551617\x00\x17qos255/clean_sestion/t18446744073709551617\x00\x17qos255/clean_sestion/t18446744073709551617\x00\x17qos255/clean_sestion/t18446744073709551617\x00\x17qos255/clean_sestion/t18446744073709551617\x00\x17qos255/clean_sestion/t18446744073709551617\x00\x17qos255/clean_sestion/t18446744073709551617\x00\x17qos255/clean_sestion/t18446744073709551617\x00\x17qos255/clean_sestion/t18446744073709551617\x00\x17qos255/clean_sestion/test\x00\x80clean-session-message'
p35
sa(dp36
g26
I0
sg23
g31
sg28
S'@\x02\x00\x80'
p37
sg25
I3
sg22
Nsassg13
S'intercept156.3201_0.1095_0.9973_2.9040_0.9040_0.crash'
p38
s.