(dp0
S'serverpid'
p1
I508
sS'asanOutput'
p2
NsS'reallydead'
p3
I139
sS'signum'
p4
I0
sS'exitcode'
p5
I0
sS'fuzzerPos'
p6
S'C'
p7
sS'corpusData'
p8
(dp9
S'parentFilename'
p10
S'intercept53.1125_2.1936_2.pickle'
p11
sS'time'
p12
NsS'filename'
p13
S'intercept53.1125_2.1936_2.1522_0.pickle'
p14
sS'seed'
p15
S'15221766927220117026'
p16
sS'fuzzer'
p17
S'Radamsa'
p18
sS'networkData'
p19
(lp20
(dp21
S'index'
p22
I0
sS'from'
p23
S'cli'
p24
sS'latency'
p25
NsS'timeouts'
p26
I0
sS'isFuzzed'
p27
I01
sS'data'
p28
S'\x10\x19\x00\x04MQTT\x04\x00\x00<\x00\rflipflop-test'
p29
sa(dp30
g26
I0
sg23
S'srv'
p31
sg28
S' \x02\x00\x00'
p32
sg22
I1
sg25
F0.0001461505889892578
sa(dp33
g25
Nsg23
g24
sg22
I2
sg26
I0
sS'isFuzzed'
p34
I01
sg28
S'\x82\x12\x00\x00\rfl\xf3\xa0\x81g\x80\x0bip\xf3\xa0\x80\xf3\xa0\x81\x9e\xa6\xf3\xa0\x80\xa7flop/\xf3\xa0\xe3\x85\xa4\x81\xafte\xe2\x80\xafst\xf3\xa0\x81\xe2\x81\xa5\xb1\x01'
p35
sa(dp36
g26
I1
sg23
g31
sg28
S'\x90\x03\x00\x01\x01'
p37
sg22
I3
sg25
Nsa(dp38
g26
I0
sg23
g31
sg28
S'2\x18\x00\rflipflop/test\x00\x01message'
p39
sg22
I4
sg25
Nsassg13
S'intercept53.1125_2.1936_2.1522_0.1522_0.crash'
p40
s.