(dp0
S'serverpid'
p1
I7704
sS'asanOutput'
p2
NsS'reallydead'
p3
I-11
sS'signum'
p4
I0
sS'exitcode'
p5
I0
sS'fuzzerPos'
p6
S'C'
p7
sS'corpusData'
p8
(dp9
S'parentFilename'
p10
S'intercept104.1088_2.pickle'
p11
sS'time'
p12
NsS'filename'
p13
S'intercept104.1088_2.1835_2.pickle'
p14
sS'seed'
p15
S'18353552561118852714'
p16
sS'fuzzer'
p17
S'Radamsa'
p18
sS'networkData'
p19
(lp20
(dp21
S'timeouts'
p22
I0
sS'data'
p23
S'\x10\x1c\x00\x04MQTT\x04\x02\x00<\x00\x10pattern-sub-test'
p24
sS'from'
p25
S'cli'
p26
sS'latency'
p27
NsS'index'
p28
I0
sa(dp29
g22
I0
sg23
S' \x02\x00\x00'
p30
sg25
S'srv'
p31
sg27
F0.0006458759307861328
sg28
I1
sa(dp32
g27
Nsg25
g26
sg28
I2
sg22
I0
sS'isFuzzed'
p33
I01
sg23
S'\x82\x11\x0165536\x00\x0ctest/topic/+\x00'
p34
sa(dp35
g22
I1
sg23
S'\x90\x03\x018\x00'
p36
sg25
g31
sg27
Nsg28
I3
sa(dp37
g22
I0
sg23
S'1\x14\x00\x0btest/topic/message'
p38
sg25
g31
sg27
Nsg28
I4
sa(dp39
g22
I0
sg23
S'0\x14\x00\x0btest/topic/message'
p40
sg25
g31
sg27
Nsg28
I5
sa(dp41
g22
I0
sg23
g40
sg25
g26
sg27
Nsg28
I6
sassg13
S'intercept104.1088_2.1835_2.1835_2.crash'
p42
s.