(dp0
S'serverpid'
p1
I9023
sS'asanOutput'
p2
NsS'reallydead'
p3
I-11
sS'signum'
p4
I0
sS'exitcode'
p5
I0
sS'fuzzerPos'
p6
S'B'
p7
sS'corpusData'
p8
(dp9
S'parentFilename'
p10
S'intercept80.1394_7.pickle'
p11
sS'time'
p12
NsS'filename'
p13
S'intercept80.1394_7.1015_0.pickle'
p14
sS'seed'
p15
S'1015273912282940256'
p16
sS'fuzzer'
p17
S'Radamsa'
p18
sS'networkData'
p19
(lp20
(dp21
S'latency'
p22
NsS'from'
p23
S'cli'
p24
sS'index'
p25
I0
sS'timeouts'
p26
I0
sS'isFuzzed'
p27
I01
sS'data'
p28
S'\x10\x1c\x00\x04MQTT\x04\x02\x00<\x00\x10pattern-suc-test'
p29
sa(dp30
g26
I0
sg28
S' \x02\x00\x00'
p31
sg23
S'srv'
p32
sg22
F0.00015020370483398438
sg25
I1
sa(dp33
g26
I0
sg28
S'\x82\n\x018\x00\x05foo/#\x00'
p34
sg23
g24
sg22
Nsg25
I2
sa(dp35
g26
I0
sg28
S'\x90\x03\x018\x00'
p36
sg23
g32
sg22
F0.002162933349609375
sg25
I3
sa(dp37
g26
I1
sg28
S'0\x14\x00\x0bfoo/bar/bazmessage'
p38
sg23
g32
sg22
Nsg25
I4
sa(dp39
g26
I0
sg28
S'\xa2\t\x00\xea\x00\x05foo/#'
p40
sg23
g24
sg22
Nsg25
I5
sa(dp41
g26
I0
sg28
S'\xb0\x02\x00\xea'
p42
sg23
g32
sg22
Nsg25
I6
sa(dp43
g22
Nsg23
g24
sg25
I7
sg26
I0
sS'isFuzzed'
p44
I01
sg28
S'\x82\n\x012147483648\x00\x05foo/\x00#'
p45
sa(dp46
g26
I0
sg28
S'\x90\x03\x018\x00'
p47
sg23
g32
sg22
Nsg25
I8
sa(dp48
g26
I0
sg28
S'1\x14\x00\x0bfoo/bar/bazmessage'
p49
sg23
g32
sg22
Nsg25
I9
sassg13
S'intercept80.1394_7.1015_0.1015_0.crash'
p50
s.