(dp0
S'serverpid'
p1
I9719
sS'asanOutput'
p2
NsS'reallydead'
p3
I-11
sS'signum'
p4
I0
sS'exitcode'
p5
I0
sS'fuzzerPos'
p6
S'B'
p7
sS'corpusData'
p8
(dp9
S'parentFilename'
p10
S'intercept143.5918_3.pickle'
p11
sS'time'
p12
NsS'filename'
p13
S'intercept143.5918_3.5500_0.pickle'
p14
sS'seed'
p15
S'5500305272095180162'
p16
sS'fuzzer'
p17
S'Radamsa'
p18
sS'networkData'
p19
(lp20
(dp21
S'latency'
p22
NsS'from'
p23
S'cli'
p24
sS'index'
p25
I0
sS'timeouts'
p26
I0
sS'isFuzzed'
p27
I01
sS'data'
p28
S'\x10\x1c\x00\x04MQTT\x04\x02\x00<\x00\x10retain-qos-347186969-test'
p29
sa(dp30
g26
I0
sg28
S' \x02\x00\x00'
p31
sg23
S'srv'
p32
sg22
F0.0002129077911376953
sg25
I1
sa(dp33
g26
I0
sg28
S'1"\x00\x10retain/qos0/testretained message'
p34
sg23
g24
sg22
Nsg25
I2
sa(dp35
g22
Nsg23
g24
sg25
I3
sg26
I0
sS'isFuzzed'
p36
I01
sg28
S'\x82\x15\x00\x10\xe2\x80\xab\x00\xf0\x9f\xca\xb8\xe1\xbe\x82\x92\xa9\x10\xf3\xf3\xa0\x81\x97\xa0\x81\xb7r\xf3\xa0\x0c\x99\xf3\xa0\x80\xbcet\x80\xbc\xf3\xa0\x81\x94\xf3\xa0\x80\xaa\xf3\xa0\x80\xaaest\xe2\x80\x8d\x00'
p37
sa(dp38
g26
I1
sg28
S'\x90\x03\x00\x10\x00'
p39
sg23
g32
sg22
Nsg25
I4
sa(dp40
g26
I0
sg28
S'1"\x00\x10retain/qos0/testretained message'
p41
sg23
g32
sg22
Nsg25
I5
sassg13
S'intercept143.5918_3.5500_0.5500_0.crash'
p42
s.