(dp0
S'serverpid'
p1
NsS'asanOutput'
p2
NsS'reallydead'
p3
NsS'signum'
p4
NsS'exitcode'
p5
NsS'fuzzerPos'
p6
S'B'
p7
sS'corpusData'
p8
(dp9
S'parentFilename'
p10
S'intercept183.1722_0.7499_0.pickle'
p11
sS'time'
p12
NsS'filename'
p13
S'intercept183.1722_0.7499_0.5838_0.pickle'
p14
sS'seed'
p15
S'5838643863437891516'
p16
sS'fuzzer'
p17
S'Radamsa'
p18
sS'networkData'
p19
(lp20
(dp21
S'latency'
p22
NsS'from'
p23
S'cli'
p24
sS'index'
p25
I0
sS'timeouts'
p26
I0
sS'isFuzzed'
p27
I01
sS'data'
p28
S'\x10?\x00MQTT\x04\xc2\x00\n\x00\x16c\xf3\xa0\x81\x8eonnect-uname-pwd-tes\xf0\x90\x80\x80t\x00\rtest-uname-pwd-tes\xf0\x90\x80\x80t\x00\rtest-username-pwd-tes\xf0\x90\x80\x80t\x00\rtest-\xa0\x81\x8eonnect-uname-pwd-tes\xf0\x90\x80\x80t\x00\rtest-username\x00\x0ccnwTICO\xb3URWNI'
p29
sa(dp30
g26
I1
sg23
S'srv'
p31
sg28
S' \x02\x00\x00'
p32
sg25
I1
sg22
Nsassg13
S'intercept183.1722_0.7499_0.5838_0.5838_0.crash'
p33
s.