(dp0
S'serverpid'
p1
I7179
sS'asanOutput'
p2
NsS'reallydead'
p3
I-11
sS'signum'
p4
I0
sS'exitcode'
p5
I0
sS'fuzzerPos'
p6
S'B'
p7
sS'corpusData'
p8
(dp9
S'parentFilename'
p10
S'intercept145.1495_2.pickle'
p11
sS'time'
p12
NsS'filename'
p13
S'intercept145.1495_2.1341_4.pickle'
p14
sS'seed'
p15
S'13417366592107096010'
p16
sS'fuzzer'
p17
S'Radamsa'
p18
sS'networkData'
p19
(lp20
(dp21
S'timeouts'
p22
I0
sS'data'
p23
S'\x10"\x00\x04MQTT\x04\x02\x00<\x00\x16retain-qos0-fresh-test'
p24
sS'from'
p25
S'cli'
p26
sS'latency'
p27
NsS'index'
p28
I0
sa(dp29
g22
I0
sg23
S' \x02\x00\x00'
p30
sg25
S'srv'
p31
sg27
F0.0002830028533935547
sg28
I1
sa(dp32
g27
Nsg25
g26
sg28
I2
sg22
I0
sS'isFuzzed'
p33
I01
sg23
S'\x82\x15\x00\x10\x00\x10retain/qos92233775808/test\x00'
p34
sa(dp35
g22
I0
sg23
S'\x90\x03\x00\x10\x00'
p36
sg25
g31
sg27
F0.00011610984802246094
sg28
I3
sa(dp37
g27
Nsg25
g26
sg28
I4
sg22
I0
sS'isFuzzed'
p38
I01
sg23
S'-340282366920938463463374607431768178686"\x00\x10retain/qos1/testretained message'
p39
sa(dp40
g22
I1
sg23
S'1"\x00\x10retain/qos0/testretained message'
p41
sg25
g31
sg27
Nsg28
I5
sassg13
S'intercept145.1495_2.1341_4.1341_4.crash'
p42
s.