(dp0
S'serverpid'
p1
NsS'asanOutput'
p2
NsS'reallydead'
p3
NsS'signum'
p4
NsS'exitcode'
p5
NsS'fuzzerPos'
p6
S'B'
p7
sS'corpusData'
p8
(dp9
S'parentFilename'
p10
S'intercept68.1605_4.pickle'
p11
sS'time'
p12
NsS'filename'
p13
S'intercept68.1605_4.1389_4.pickle'
p14
sS'seed'
p15
S'13897101811130610770'
p16
sS'fuzzer'
p17
S'Radamsa'
p18
sS'networkData'
p19
(lp20
(dp21
S'timeouts'
p22
I0
sS'data'
p23
S'\x10!\x00\x06MQIsdp\x03\x00\x00<\x00\x13pub-qos2-disco-test'
p24
sS'from'
p25
S'cli'
p26
sS'latency'
p27
NsS'index'
p28
I0
sa(dp29
g22
I1
sg23
S' \x02\x00\x00'
p30
sg25
S'srv'
p31
sg27
Nsg28
I1
sa(dp32
g22
I0
sg23
S'<*\x00\x14qos2/disconnect/test\x00\x01disconnect-message'
p33
sg25
g26
sg27
Nsg28
I2
sa(dp34
g22
I0
sg23
S'P\x02\x00\x01'
p35
sg25
g31
sg27
Nsg28
I3
sa(dp36
g27
Nsg25
g26
sg28
I4
sg22
I0
sS'isFuzzed'
p37
I01
sg23
S'\xf3\xa0\x80\xf3\xa0\x81\xf3\xa0\x81\xa7\x00\xcb\xaec\xa9\x92\xe2\x02\x01'
p38
sa(dp39
g22
I0
sg23
S'p\x02\x00\x01'
p40
sg25
g31
sg27
Nsg28
I5
sassg13
S'intercept68.1605_4.1389_4.1389_4.crash'
p41
s.