(dp0
S'serverpid'
p1
I17031
sS'asanOutput'
p2
NsS'reallydead'
p3
I-11
sS'signum'
p4
I0
sS'exitcode'
p5
I0
sS'fuzzerPos'
p6
S'B'
p7
sS'corpusData'
p8
(dp9
S'parentFilename'
p10
S'intercept153.1085_3.pickle'
p11
sS'time'
p12
NsS'filename'
p13
S'intercept153.1085_3.1882_3.pickle'
p14
sS'seed'
p15
S'1882318997517106817'
p16
sS'fuzzer'
p17
S'Radamsa'
p18
sS'networkData'
p19
(lp20
(dp21
S'timeouts'
p22
I0
sS'data'
p23
S'\x10\x1c\x00\x04MQTT\x04\x02\x00<\x00\x10retain-qos0-test'
p24
sS'from'
p25
S'cli'
p26
sS'latency'
p27
NsS'index'
p28
I0
sa(dp29
g22
I0
sg23
S' \x02\x00\x00'
p30
sg25
S'srv'
p31
sg27
F0.00011396408081054688
sg28
I1
sa(dp32
g22
I0
sg23
S'1"\x00\x10retain/qos0/testretained message'
p33
sg25
g26
sg27
Nsg28
I2
sa(dp34
g27
Nsg25
g26
sg28
I3
sg22
I0
sS'isFuzzed'
p35
I01
sg23
S'\x82\x15\xc6\xf3\xa0\x81\x8bni\xa0\xab\xf3\x00\x81r\xef\xbf\xf3\xe2\x80\x87\xa0\xed\xaa\xad\x80\xb7\xbf/qos-0/test\x01'
p36
sa(dp37
g22
I1
sg23
S'\x90\x03\x00\x10\x01'
p38
sg25
g31
sg27
Nsg28
I4
sassg13
S'intercept153.1085_3.1882_3.1882_3.crash'
p39
s.