(dp0
S'serverpid'
p1
I16104
sS'asanOutput'
p2
NsS'reallydead'
p3
I-11
sS'signum'
p4
I0
sS'exitcode'
p5
I0
sS'fuzzerPos'
p6
S'C'
p7
sS'corpusData'
p8
(dp9
S'parentFilename'
p10
S'intercept149.pickle'
p11
sS'time'
p12
NsS'filename'
p13
S'intercept149.4211_4.pickle'
p14
sS'seed'
p15
S'4211722358022556471'
p16
sS'fuzzer'
p17
S'Radamsa'
p18
sS'networkData'
p19
(lp20
(dp21
S'timeouts'
p22
I0
sS'data'
p23
S'\x10\x1c\x00\x04MQTT\x04\x02\x00<\x00\x10retain-qos1-test'
p24
sS'from'
p25
S'cli'
p26
sS'latency'
p27
NsS'index'
p28
I0
sa(dp29
g22
I0
sg23
S' \x02\x00\x00'
p30
sg25
S'srv'
p31
sg27
F0.00011110305786132812
sg28
I1
sa(dp32
g22
I0
sg23
S'3$\x00\x10retain/qos1/test\x00\x06retained message'
p33
sg25
g26
sg27
Nsg28
I2
sa(dp34
g22
I0
sg23
S'@\x02\x00\x06'
p35
sg25
g31
sg27
F0.0001201629638671875
sg28
I3
sa(dp36
g27
Nsg25
g26
sg28
I4
sg22
I0
sS'isFuzzed'
p37
I01
sg23
S'\x82\x15\x00\x12\x00\xf3\xa0\x80\xba\x10retain/q\xf3\xa0\x81\x85os1/t\xf3\xa0\xe2\x80\x85\x81\x8fest\x00'
p38
sa(dp39
g22
I1
sg23
S'\x90\x03\x00\x12\x00'
p40
sg25
g31
sg27
Nsg28
I5
sa(dp41
g22
I0
sg23
S'1"\x00\x10retain/qos1/testretained message'
p42
sg25
g31
sg27
Nsg28
I6
sassg13
S'intercept149.4211_4.4211_4.crash'
p43
s.