(dp0
S'serverpid'
p1
I2613
sS'asanOutput'
p2
NsS'reallydead'
p3
I-11
sS'signum'
p4
I0
sS'exitcode'
p5
I0
sS'fuzzerPos'
p6
S'C'
p7
sS'corpusData'
p8
(dp9
S'parentFilename'
p10
S'intercept160.pickle'
p11
sS'time'
p12
NsS'filename'
p13
S'intercept160.1272_4.pickle'
p14
sS'seed'
p15
S'1272140215719963657'
p16
sS'fuzzer'
p17
S'Radamsa'
p18
sS'networkData'
p19
(lp20
(dp21
S'timeouts'
p22
I0
sS'data'
p23
S'\x10!\x00\x04MQTT\x04\x02\x00<\x00\x15bridge-reconnect-test'
p24
sS'from'
p25
S'cli'
p26
sS'latency'
p27
NsS'index'
p28
I0
sa(dp29
g22
I0
sg23
S' \x02\x00\x00'
p30
sg25
S'srv'
p31
sg27
F9.989738464355469e-05
sg28
I1
sa(dp32
g22
I0
sg23
S'\x82\r\x00\xb4\x00\x08bridge/#\x00'
p33
sg25
g26
sg27
Nsg28
I2
sa(dp34
g22
I0
sg23
S'\x90\x03\x00\xb4\x00'
p35
sg25
g31
sg27
F0.0003371238708496094
sg28
I3
sa(dp36
g27
Nsg25
g26
sg28
I4
sg22
I0
sS'isFuzzed'
p37
I01
sg23
S'\x82\r\xe3\x85\xa4\x00\xb4\x00\x08bridge/#\x00'
p38
sa(dp39
g22
I1
sg23
S'\x90\x03\x00\xb4\x00'
p40
sg25
g31
sg27
Nsg28
I5
sa(dp41
g22
I0
sg23
S'0*\x00\x10bridge/reconnectbridge-reconnect-message'
p42
sg25
g31
sg27
Nsg28
I6
sassg13
S'intercept160.1272_4.1272_4.crash'
p43
s.