(dp0
S'serverpid'
p1
I2188
sS'asanOutput'
p2
NsS'reallydead'
p3
I139
sS'signum'
p4
I0
sS'exitcode'
p5
I0
sS'fuzzerPos'
p6
S'C'
p7
sS'corpusData'
p8
(dp9
S'parentFilename'
p10
S'intercept56.3522_4.2248_6.pickle'
p11
sS'time'
p12
NsS'filename'
p13
S'intercept56.3522_4.2248_6.3554_2.pickle'
p14
sS'seed'
p15
S'355463779574440558'
p16
sS'fuzzer'
p17
S'Radamsa'
p18
sS'networkData'
p19
(lp20
(dp21
S'timeouts'
p22
I0
sS'data'
p23
S'\x10\x19\x00\x04MQTT\x04\x02\x00<\x00\rsubhier-crash'
p24
sS'from'
p25
S'cli'
p26
sS'latency'
p27
NsS'index'
p28
I0
sa(dp29
g22
I0
sg23
S' \x02\x00\x00'
p30
sg25
S'srv'
p31
sg27
F0.00012493133544921875
sg28
I1
sa(dp32
g27
Nsg25
g26
sg28
I2
sg22
I0
sS'isFuzzed'
p33
I01
sg23
S'\x82\x00\rea'
p34
sa(dp35
g22
I1
sg23
S'\x90\x03\x00\x01\x00'
p36
sg25
g31
sg27
Nsg28
I3
sa(dp37
g27
Nsg25
g26
sg28
I4
sg22
I0
sS'isFuzzed'
p38
I01
sg23
S'\x07topic/\xca\xb3b\x00'
p39
sa(dp40
g22
I0
sg23
S'\x90\x03\x00\x02\x00'
p41
sg25
g31
sg27
Nsg28
I5
sa(dp42
g27
Nsg25
g26
sg28
I6
sg22
I0
sS'isFuzzed'
p43
I01
sg23
S'\xa2\x0b\x00\x03\x00\x07topicopic/a'
p44
sa(dp45
g22
I0
sg23
S'\xb0\x02\x00\x03'
p46
sg25
g31
sg27
Nsg28
I7
sa(dp47
g22
I0
sg23
S'\xe0\x00'
p48
sg25
g26
sg27
Nsg28
I8
sassg13
S'intercept56.3522_4.2248_6.3554_2.3554_2.crash'
p49
s.