(dp0
S'serverpid'
p1
I20992
sS'asanOutput'
p2
NsS'reallydead'
p3
I-11
sS'signum'
p4
I0
sS'exitcode'
p5
I0
sS'fuzzerPos'
p6
S'B'
p7
sS'corpusData'
p8
(dp9
S'parentFilename'
p10
S'intercept98.6160_2.pickle'
p11
sS'time'
p12
NsS'filename'
p13
S'intercept98.6160_2.9559_6.pickle'
p14
sS'seed'
p15
S'9559223210784498433'
p16
sS'fuzzer'
p17
S'Radamsa'
p18
sS'networkData'
p19
(lp20
(dp21
S'timeouts'
p22
I0
sS'data'
p23
S'\x10\x1c\x00\x04MQTT\x04\x02\x00<\x00\x10pattern-sub-test'
p24
sS'from'
p25
S'cli'
p26
sS'latency'
p27
NsS'index'
p28
I0
sa(dp29
g22
I0
sg23
S' \x02\x00\x00'
p30
sg25
S'srv'
p31
sg27
F2.09808349609375e-05
sg28
I1
sa(dp32
g27
Nsg25
g26
sg28
I2
sg22
I0
sS'isFuzzed'
p33
I01
sg23
S'\xfej\xe2\x80\x8f\xf3\xa0\x81\xaf\xef\xbc\x8f\xf3\xf3\xa0\x81\xf3\xa0\x80\xb5\x8d\xa0\xe0\x81\x81\xf3\xad\xbf\xef\x8c\x87\xac\xa0\xac\xf3\xa0\x81\xb2\xa0\x82\xf3\x81\xa0\x81\xb7\x8b\x017\xf3926\x00\x03\x00'
p34
sa(dp35
g22
I1
sg23
S'\x90\x03\x018\x00'
p36
sg25
g31
sg27
Nsg28
I3
sa(dp37
g22
I0
sg23
S'1\x14\x00\x0b/test/topicmessage'
p38
sg25
g31
sg27
Nsg28
I4
sa(dp39
g22
I0
sg23
S'0\r\x00\x04/foomessage'
p40
sg25
g31
sg27
Nsg28
I5
sa(dp41
g27
Nsg25
g26
sg28
I6
sg22
I0
sS'isFuzzed'
p42
I01
sg23
S'0\r\x00\x04/foomessage'
p43
sassg13
S'intercept98.6160_2.9559_6.9559_6.crash'
p44
s.