(dp0
S'serverpid'
p1
I8238
sS'asanOutput'
p2
NsS'reallydead'
p3
I-11
sS'signum'
p4
I0
sS'exitcode'
p5
I0
sS'fuzzerPos'
p6
S'C'
p7
sS'corpusData'
p8
(dp9
S'parentFilename'
p10
S'intercept43.pickle'
p11
sS'time'
p12
NsS'filename'
p13
S'intercept43.7695_2.pickle'
p14
sS'seed'
p15
S'7695936562695520815'
p16
sS'fuzzer'
p17
S'Radamsa'
p18
sS'networkData'
p19
(lp20
(dp21
S'timeouts'
p22
I0
sS'data'
p23
S'\x10!\x00\x04MQTT\x04\x02\x00<\x00\x15unsubscribe-qos1-test'
p24
sS'from'
p25
S'cli'
p26
sS'latency'
p27
NsS'index'
p28
I0
sa(dp29
g22
I0
sg23
S' \x02\x00\x00'
p30
sg25
S'srv'
p31
sg27
F0.00015687942504882812
sg28
I1
sa(dp32
g27
Nsg25
g26
sg28
I2
sg22
I0
sS'isFuzzed'
p33
I01
sg23
S'\r\x00\r\x00\xa2\r\r\x00O\ros1os1/test'
p34
sa(dp35
g22
I1
sg23
S'\xb0\x02\x00O'
p36
sg25
g31
sg27
Nsg28
I3
sassg13
S'intercept43.7695_2.7695_2.crash'
p37
s.