(dp0
S'serverpid'
p1
I18612
sS'asanOutput'
p2
NsS'reallydead'
p3
I-11
sS'signum'
p4
I0
sS'exitcode'
p5
I0
sS'fuzzerPos'
p6
S'C'
p7
sS'corpusData'
p8
(dp9
S'parentFilename'
p10
S'intercept67.1297_2.pickle'
p11
sS'time'
p12
NsS'filename'
p13
S'intercept67.1297_2.5252_2.pickle'
p14
sS'seed'
p15
S'5252859731655154738'
p16
sS'fuzzer'
p17
S'Radamsa'
p18
sS'networkData'
p19
(lp20
(dp21
S'timeouts'
p22
I0
sS'data'
p23
S'\x10!\x00\x06MQIsdp\x03\x00\x00<\x00\x13pub-qos2-disco-test'
p24
sS'from'
p25
S'cli'
p26
sS'latency'
p27
NsS'index'
p28
I0
sa(dp29
g22
I0
sg23
S' \x02\x00\x00'
p30
sg25
S'srv'
p31
sg27
F2.09808349609375e-05
sg28
I1
sa(dp32
g27
Nsg25
g26
sg28
I2
sg22
I0
sS'isFuzzed'
p33
I01
sg23
S'2147488561*\x00\x14qos2/disconnect/test\x00\x01disconnectmessage'
p34
sa(dp35
g22
I1
sg23
S'P\x02\x00\x01'
p36
sg25
g31
sg27
Nsg28
I3
sassg13
S'intercept67.1297_2.5252_2.5252_2.crash'
p37
s.