(dp0
S'serverpid'
p1
I18364
sS'asanOutput'
p2
NsS'reallydead'
p3
I-11
sS'signum'
p4
I0
sS'exitcode'
p5
I0
sS'fuzzerPos'
p6
S'A'
p7
sS'corpusData'
p8
(dp9
S'parentFilename'
p10
S'intercept153.1020_0.1598_0.pickle'
p11
sS'time'
p12
NsS'filename'
p13
S'intercept153.1020_0.1598_0.1353_2.pickle'
p14
sS'seed'
p15
S'13536280454753892304'
p16
sS'fuzzer'
p17
S'Radamsa'
p18
sS'networkData'
p19
(lp20
(dp21
S'latency'
p22
NsS'from'
p23
S'cli'
p24
sS'index'
p25
I0
sS'timeouts'
p26
I0
sS'isFuzzed'
p27
I01
sS'data'
p28
S'\x10\x1c\x00\x04MQTT\x04\x02\x00t\x1c\x00\x04MQTT\x04\x02\x00<\xff\x10ret\x1c\x00\x04MQTT\x03\x02\x00<\x00\x10retain\xe2\x80\x84-qos\xe2\x81\x9f65537-test'
p29
sa(dp30
g26
I0
sg23
S'srv'
p31
sg28
S' \x02\x00\x00'
p32
sg25
I1
sg22
F1.811981201171875e-05
sa(dp33
g25
I2
sg23
g24
sg22
Nsg26
I0
sS'isFuzzed'
p34
I01
sg28
S'255"\x00\x10retai/-o\xe2\x80\x80nsq-184\xcd\x8f4\xe1\xbe\x82-6744073709486081/testret\xf3\xe2\x81\xa7\xa0\x80\xa0aiiiin\xf3\xa0\x81\xa2e\xf3\xa0\x80\xa7d mess\xe0\xb9\x81age'
p35
sa(dp36
g26
I0
sg23
g24
sg28
S'\x82\x15\x00\x10\x00\x10retain/qos0/test\x01'
p37
sg25
I3
sg22
Nsa(dp38
g26
I1
sg23
g31
sg28
S'\x90\x03\x00\x10\x01'
p39
sg25
I4
sg22
Nsassg13
S'intercept153.1020_0.1598_0.1353_2.1353_2.crash'
p40
s.