(dp0
S'serverpid'
p1
NsS'asanOutput'
p2
NsS'reallydead'
p3
NsS'signum'
p4
NsS'exitcode'
p5
NsS'fuzzerPos'
p6
S'B'
p7
sS'corpusData'
p8
(dp9
S'parentFilename'
p10
S'intercept147.pickle'
p11
sS'time'
p12
NsS'filename'
p13
S'intercept147.6181_0.pickle'
p14
sS'seed'
p15
S'6181447690565508222'
p16
sS'fuzzer'
p17
S'Radamsa'
p18
sS'networkData'
p19
(lp20
(dp21
S'latency'
p22
NsS'from'
p23
S'cli'
p24
sS'index'
p25
I0
sS'timeouts'
p26
I0
sS'isFuzzed'
p27
I01
sS'data'
p28
S'\x10 \x00\x04MQTT\x04\x02\x00<\x00\x14retain-qos18446744073709550479-rep-testain-qos18446744073709550479-rep-testain-qos18446744073709550479-rep-testain-qos18446744073709550479-rep-testain-qos18446744073709550479-rep-testain-qos18446744073709550479-rep-testain-qos18446744073709550479-rep-testain-qos18446744073709550479-rep-testain-qos18446744073709550479-rep-testain-qos18446744073709550479-rep-testain-qos18446744073709550479-rep-testain-qos18446744073709550479-rep-testain-qos18446744073709550479-rep-testain-qos18446744073709550479-rep-testain-qos18446744073709550479-rep-testain-qos18446744073709550479-rep-testain-qos18446744073709550479-rep-testain-qos18446744073709550479-rep-testain-qos18446744073709550479-rep-testain-qos18446744073709550479-rep-testain-qos18\xc0\xb446744073709550479-rep-testain-qos18446744073709550479-rep-testain-qos18446744073709550479-rep-testain-qos18446744073709550479-rep-testain-qos18446744073709550479-rep-testain-qos18446744073709550479-rep-testain-qos18446744073709550479-rep-testain-qos18446744073709550479-rep-testain-qos18446744073709550479-rep-testain-qos18446744073709550479-rep-testain-qos18446744073709550479-rep-testain-qos18446744073709550479-rep-testain-qos18446744073709550479-rep-testain-qos18446744073709550479-rep-testain-qos18446744073709550479-rep-testain-qos18446744073709550479-rep-testain-qos18446744073709550479-rep-testain-qos18446744073709550479-rep-testain-qos18446744073709550479-rep-testain-qos18446744073709550479-rep-testain-qos18446744073709550479-rep-testain-qos18446744073709550479-rep-testain-qos18446744073709550479-rep-testain-qos18446744073709550479-rep-testain-qos18446744073709550479-rep-testain-qos18446744073709550479-rep-testain-qos18446744073709550479-rep-testain-qos18446744073709550479-rep-testain-qos18446744073709550479-rep-testain-qos18446744073709550479-rep-testain-qos18446744073709550479-rep-testain-qos18446744073709550479-rep-testain-qos18446744073709550479-rep-testain-qos18446744073709550479-rep-testain-qos18446744073709550479-rep-testain-qos18446744073709550479-rep-testain-qos18446744073709550479-rep-testain-qos18446744073709550479-rep-testain-qos18446744073709550479-rep-testain-qos18446744073709550479-rep-testain-qos18446744073709550479-rep-testain-qos18446744073709550479-rep-testain-qos18446744073709550479-rep-testain-qos18446744073709550479-rep-testain-qos18446744073709550479-rep-testain-qos18446744073709550479-rep-testain-qos18446744073709550479-rep-testain-qos18446744073709550479-rep-testain-qos18446744073709550479-rep-testain-qos18446744073709550479-rep-testain-qos18446744073709550479-rep-testain-qos18446744073709550479-rep-testain-qos18446744073709550479-rep-testain-qos18446744073709550479-rep-testain-qos18446744073709550479-rep-testain-qos18446744073709550479-rep-testain-qos18446744073709550479-rep-testain-qos18446744073709550479-rep-testain-qos18446744073709550479-rep-testain-qos18446744073709550479-rep-testain-qos18446744073709550479-rep-testain-qos18446744073709550479-rep-testain-qos18446744073709550479-rep-testain-qos18446744073709550479-rep-testain-qos18446744073709550479-rep-testain-qos18446744073709550479-rep-testain-qos18446744073709550479-rep-testain-qos18446744073709550479-rep-testain-qos18446744073709550479-rep-testain-qos18446744073709550479-rep-testain-qos18446744073709550479-rep-testain-qos18446744073709550479-rep-testain-qos18446744073709550479-rep-testain-qos18446744073709550479-rep-testain-qos18446744073709550479-rep-testain-qos18446744073709550479-rep-testain-qos18446744073709550479-rep-testain-qos18446744073709550479-rep-testain-qos18446744073709550479-rep-testain-qos18446744073709550479-rep-testain-qos18446744073709550479-rep-testain-qos18446744073709550479-rep-testain-qos18446744073709550479-rep-testain-qos18446744073709550479-rep-testain-qos18446744073709550479-rep-testain-qos18446744073709550479-rep-testain-qos18446744073709550479-rep-testain-qos18446744073709550479-rep-testain-qos18446744073709550479-rep-testain-qos18446744073709550479-rep-testain-qos18446744073709550479-rep-testain-qos18446744073709550479-rep-testain-qos18446744073709550479-rep-testain-qos18446744073709550479-rep-testain-qos18446744073709550479-rep-testain-qos18446744073709550479-rep-testain-qos18446744073709550479-rep-testain-qos18446744073709550479-rep-testain-qos18446744073709550479-rep-testain-qos18446744073709550479-rep-testain-qos18446744073709550479-rep-testain-qos18446744073709550479-rep-testain-qos18446744073709550479-rep-testain-qos18446744073709550479-rep-testain-qos18446744073709550479-rep-testain-qos18446744073709550479-rep-testain-qos18446744073709550479-rep-testain-qos18446744073709550479-rep-testain-qos18446744073709550479-rep-testain-qos18446744073709550479-rep-testain-qos18446744073709550479-rep-testain-qos18446744073709550479-rep-testain-qos18446744073709550479-rep-testain-qos18446744073709550479-rep-testain-qos18446744073709550479-rep-testain-qos18446744073709550479-rep-testain-qos18446744073709550479-rep-testain-qos18446744073709550479-rep-testain-qos18446744073709550479-rep-testain-qos18446744073709550479-rep-testain-qos18446744073709550479-rep-testain-qos18446744073709550479-rep-testain-qos18446744073709550479-rep-testain-qos18446744073709550479-rep-testain-qos18446744073709550479-rep-testain-qos18446744073709550479-rep-testain-qos18446744073709550479-rep-testain-qos18446744073709550479-rep-testain-qos18446744073709550479-rep-testain-qos18446744073709550479-rep-testain-qos18446744073709550479-rep-testain-qos18446744073709550479-rep-testain-qos18446744073709550479-rep-testain-qos18446744073709550479-rep-testain-qos18446744073709550479-rep-testain-qos18446744073709550479-rep-testain-qos18446744073709550479-rep-testain-qos18446744073709550479-rep-testain-qos18446744073709550479-rep-testain-qos18446744073709550479-rep-testain-qos18446744073709550479-rep-testain-qos18446744073709550479-rep-testain-qos18446744073709550479-rep-testain-qos18446744073709550479-rep-testain-qos18446744073709550479-rep-testain-qos18446744073709550479-rep-testain-qos18446744073709550479-rep-testain-qos18446744073709550479-rep-testain-qos18446744073709550479-rep-testain-qos18446744073709550479-rep-testain-qos18446744073709550479-rep-testain-qos18446744073709550479-rep-testain-qos18446744073709550479-rep-testain-qos18446744073709550479-rep-testain-qos18446744073709550479-rep-testain-qos18446744073709550479-rep-testain-qos18446744073709550479-rep-testain-qos18446744073709550479-rep-testain-qos18446744073709550479-rep-testain-qos18446744073709550479-rep-testain-qos18446744073709550479-rep-testain-qos18446744073709550479-rep-testain-qos18446744073709550479-rep-testain-qos18446744073709550479-rep-testain-qos18446744073709550479-rep-testain-qos18446744073709550479-rep-testain-qos18446744073709550479-rep-testain-qos18446744073709550479-rep-testain-qos18446744073709550479-rep-testain-qos18446744073709550479-rep-testain-qos18446744073709550479-rep-testain-qos18446744073709550479-rep-testain-qos18446744073709550479-rep-testain-qos18446744073709550479-rep-testain-qos18446744073709550479-rep-testain-qos18446744073709550479-rep-testain-qos18446744073709550479-rep-testain-qos18446744073709550479-rep-testain-qos18446744073709550479-rep-testain-qos18446744073709550479-rep-testain-qos18446744073709550479-rep-testain-qos18446744073709550479-rep-test'
p29
sa(dp30
g26
I0
sg28
S' \x02\x00\x00'
p31
sg23
S'srv'
p32
sg22
F0.00014019012451171875
sg25
I1
sa(dp33
g26
I0
sg28
S'1"\x00\x10retain/qos0/testretained message'
p34
sg23
g24
sg22
Nsg25
I2
sa(dp35
g26
I0
sg28
S'\x82\x15\x00\x10\x00\x10retain/qos0/test\x00'
p36
sg23
g24
sg22
Nsg25
I3
sa(dp37
g26
I0
sg28
S'\x90\x03\x00\x10\x00'
p38
sg23
g32
sg22
F0.00017118453979492188
sg25
I4
sa(dp39
g26
I0
sg28
S'1"\x00\x10retain/qos0/testretained message'
p40
sg23
g32
sg22
F1.0013580322265625e-05
sg25
I5
sa(dp41
g26
I0
sg28
S'\xa2\x14\x00\r\x00\x10retain/qos0/test'
p42
sg23
g24
sg22
Nsg25
I6
sa(dp43
g26
I0
sg28
S'\xb0\x02\x00\r'
p44
sg23
g32
sg22
F0.00013899803161621094
sg25
I7
sa(dp45
g26
I0
sg28
S'\x82\x15\x00\x10\x00\x10retain/qos0/test\x00'
p46
sg23
g24
sg22
Nsg25
I8
sa(dp47
g26
I0
sg28
S'\x90\x03\x00\x10\x00'
p48
sg23
g32
sg22
F1.0967254638671875e-05
sg25
I9
sa(dp49
g26
I1
sg28
S'1"\x00\x10retain/qos0/testretained message'
p50
sg23
g32
sg22
Nsg25
I10
sassg13
S'intercept147.6181_0.6181_0.crash'
p51
s.