(dp0
S'serverpid'
p1
NsS'asanOutput'
p2
NsS'reallydead'
p3
NsS'signum'
p4
NsS'exitcode'
p5
NsS'fuzzerPos'
p6
S'B'
p7
sS'corpusData'
p8
(dp9
S'parentFilename'
p10
S'intercept92.pickle'
p11
sS'time'
p12
NsS'filename'
p13
S'intercept92.6042_0.pickle'
p14
sS'seed'
p15
S'6042641317720140726'
p16
sS'fuzzer'
p17
S'Radamsa'
p18
sS'networkData'
p19
(lp20
(dp21
S'latency'
p22
NsS'from'
p23
S'cli'
p24
sS'index'
p25
I0
sS'timeouts'
p26
I0
sS'isFuzzed'
p27
I01
sS'data'
p28
S'\x10\x1c\x04MQTT\x04\x02\x00<\x00\x10ppatternstatternstatternst'
p29
sa(dp30
g26
I1
sg28
S' \x02\x00\x00'
p31
sg23
S'srv'
p32
sg22
Nsg25
I1
sa(dp33
g26
I0
sg28
S'\x82\x12\x018\x00\rfoo/foo/baz/#\x00'
p34
sg23
g24
sg22
Nsg25
I2
sa(dp35
g26
I0
sg28
S'\x90\x03\x018\x00'
p36
sg23
g32
sg22
Nsg25
I3
sa(dp37
g26
I0
sg28
S'0\x18\x00\x0ffoo/foo/baz/barmessage'
p38
sg23
g32
sg22
Nsg25
I4
sa(dp39
g26
I0
sg28
S'\xa2\x11\x00\xea\x00\rfoo/foo/baz/#'
p40
sg23
g24
sg22
Nsg25
I5
sa(dp41
g26
I0
sg28
S'\xb0\x02\x00\xea'
p42
sg23
g32
sg22
Nsg25
I6
sa(dp43
g26
I0
sg28
S'\x82\x12\x018\x00\rfoo/foo/baz/#\x00'
p44
sg23
g24
sg22
Nsg25
I7
sa(dp45
g26
I0
sg28
S'\x90\x03\x018\x00'
p46
sg23
g32
sg22
Nsg25
I8
sa(dp47
g26
I0
sg28
S'1\x18\x00\x0ffoo/foo/baz/barmessage'
p48
sg23
g32
sg22
Nsg25
I9
sassg13
S'intercept92.6042_0.6042_0.crash'
p49
s.