(dp0
S'serverpid'
p1
I1529
sS'asanOutput'
p2
NsS'reallydead'
p3
I139
sS'signum'
p4
I0
sS'exitcode'
p5
I0
sS'fuzzerPos'
p6
S'C'
p7
sS'corpusData'
p8
(dp9
S'parentFilename'
p10
S'intercept191.1641_4.1502_4.1033_4.pickle'
p11
sS'time'
p12
NsS'filename'
p13
S'intercept191.1641_4.1502_4.1033_4.2222_4.pickle'
p14
sS'seed'
p15
S'222294351124730915'
p16
sS'fuzzer'
p17
S'Radamsa'
p18
sS'networkData'
p19
(lp20
(dp21
S'timeouts'
p22
I0
sS'from'
p23
S'cli'
p24
sS'data'
p25
S'\x10\x1a\x00\x04MQTT\x04\x02\x00\n\x00\x0emsg-param-test'
p26
sS'index'
p27
I0
sS'latency'
p28
Nsa(dp29
g22
I0
sg23
S'srv'
p30
sg25
S' \x02\x00\x00'
p31
sg27
I1
sg28
F0.0002300739288330078
sa(dp32
g22
I0
sg23
g24
sg25
S'\x82\x10\x00\x02\x00\x0bparam/topic\x01'
p33
sg27
I2
sg28
Nsa(dp34
g22
I0
sg23
g30
sg25
S'\x90\x03\x00\x02\x01'
p35
sg27
I3
sg28
F0.0008339881896972656
sa(dp36
g28
Nsg23
g24
sg27
I4
sg22
I0
sS'isFuzzed'
p37
I01
sg25
S'170141183460469231731687303715884105731\x1f\x00\x0bparam/topi\xe2\x81\xa0c\x00\x03paylo\xf3\xa0\x80\xbaad contents'
p38
sa(dp39
g22
I1
sg23
g30
sg25
S'@\x02\x00\x03'
p40
sg27
I5
sg28
Nsa(dp41
g22
I0
sg23
g30
sg25
S'2\x1f\x00\x0bparam/topic\x00\x01payload contents'
p42
sg27
I6
sg28
Nsassg13
S'intercept191.1641_4.1502_4.1033_4.2222_4.2222_4.crash'
p43
s.