(dp0
S'serverpid'
p1
I2727
sS'asanOutput'
p2
NsS'reallydead'
p3
I139
sS'signum'
p4
I0
sS'exitcode'
p5
I0
sS'fuzzerPos'
p6
S'C'
p7
sS'corpusData'
p8
(dp9
S'parentFilename'
p10
S'intercept57.pickle'
p11
sS'time'
p12
NsS'filename'
p13
S'intercept57.1259_6.pickle'
p14
sS'seed'
p15
S'12590523408907656358'
p16
sS'fuzzer'
p17
S'Radamsa'
p18
sS'networkData'
p19
(lp20
(dp21
S'timeouts'
p22
I0
sS'data'
p23
S'\x10\x19\x00\x04MQTT\x04\x02\x00<\x00\rsubhier-crash'
p24
sS'from'
p25
S'cli'
p26
sS'latency'
p27
NsS'index'
p28
I0
sa(dp29
g22
I0
sg23
S' \x02\x00\x00'
p30
sg25
S'srv'
p31
sg27
F0.00014710426330566406
sg28
I1
sa(dp32
g22
I0
sg23
S'\x82\x0c\x00\x01\x00\x07topic/a\x00'
p33
sg25
g26
sg27
Nsg28
I2
sa(dp34
g22
I0
sg23
S'\x90\x03\x00\x01\x00'
p35
sg25
g31
sg27
F0.0002269744873046875
sg28
I3
sa(dp36
g22
I0
sg23
S'\x82\x0c\x00\x02\x00\x07topic/b\x00'
p37
sg25
g26
sg27
Nsg28
I4
sa(dp38
g22
I0
sg23
S'\x90\x03\x00\x02\x00'
p39
sg25
g31
sg27
F0.0003390312194824219
sg28
I5
sa(dp40
g27
Nsg25
g26
sg28
I6
sg22
I0
sS'isFuzzed'
p41
I01
sg23
S'\xa2\x0b\x00\x03\x00\xc0\x87topic\xc0\xafa'
p42
sa(dp43
g22
I1
sg23
S'\xb0\x02\x00\x03'
p44
sg25
g31
sg27
Nsg28
I7
sa(dp45
g22
I0
sg23
S'\xe0\x00'
p46
sg25
g26
sg27
Nsg28
I8
sassg13
S'intercept57.1259_6.1259_6.crash'
p47
s.