(dp0
S'serverpid'
p1
I32341
sS'asanOutput'
p2
NsS'reallydead'
p3
I-11
sS'signum'
p4
I0
sS'exitcode'
p5
I0
sS'fuzzerPos'
p6
S'C'
p7
sS'corpusData'
p8
(dp9
S'parentFilename'
p10
S'intercept116.6852_6.1554_6.pickle'
p11
sS'time'
p12
NsS'filename'
p13
S'intercept116.6852_6.1554_6.3406_2.pickle'
p14
sS'seed'
p15
S'3406946445670417457'
p16
sS'fuzzer'
p17
S'Radamsa'
p18
sS'networkData'
p19
(lp20
(dp21
S'timeouts'
p22
I0
sS'from'
p23
S'cli'
p24
sS'data'
p25
S'\x10\x1c\x00\x04MQTT\x04\x02\x00<\x00\x10pattern-sub-test'
p26
sS'index'
p27
I0
sS'latency'
p28
Nsa(dp29
g22
I0
sg23
S'srv'
p30
sg25
S' \x02\x00\x00'
p31
sg27
I1
sg28
F0.00014710426330566406
sa(dp32
g27
I2
sg23
g24
sg28
Nsg22
I0
sS'isFuzzed'
p33
I01
sg25
S'\x82\x01\n\x94\x00\x85fo/\xef\xb7\xba#\xef\xbd\xb0\x00'
p34
sa(dp35
g22
I1
sg23
g30
sg25
S'\x90\x03\x018\x00'
p36
sg27
I3
sg28
Nsa(dp37
g22
I0
sg23
g30
sg25
S'1\x14\x00\x0bfoo/bar/bazmessage1\x18\x00\x0ffoo/bar/baz/barmessage1\x18\x00\x0ffoo/foo/baz/barmessage1\x0c\x00\x03foomessage'
p38
sg27
I4
sg28
Nsa(dp39
g22
I0
sg23
g30
sg25
S'0\x17\x00\x0efoo//bar///bazmessage'
p40
sg27
I5
sg28
Nsa(dp41
g28
Nsg23
g24
sg27
I6
sg22
I0
sS'isFuzzed'
p42
I01
sg25
S'\xf4\x8f\xbf\xbe4294\xc0\xb967295\x17\x00\x0ef\xca\xb8//ba//baeeas/grsmz'
p43
sassg13
S'intercept116.6852_6.1554_6.3406_2.3406_2.crash'
p44
s.