(dp0
S'serverpid'
p1
I28178
sS'asanOutput'
p2
NsS'reallydead'
p3
I-11
sS'signum'
p4
I0
sS'exitcode'
p5
I0
sS'fuzzerPos'
p6
S'B'
p7
sS'corpusData'
p8
(dp9
S'parentFilename'
p10
S'intercept147.2053_0.pickle'
p11
sS'time'
p12
NsS'filename'
p13
S'intercept147.2053_0.1809_3.pickle'
p14
sS'seed'
p15
S'18094191528412404264'
p16
sS'fuzzer'
p17
S'Radamsa'
p18
sS'networkData'
p19
(lp20
(dp21
S'latency'
p22
NsS'from'
p23
S'cli'
p24
sS'index'
p25
I0
sS'timeouts'
p26
I0
sS'isFuzzed'
p27
I01
sS'data'
p28
S'\x10 \x00\x04MQTT\x04\x02\x00<\x00\x14retain-q\xef\xbc\x8fos0-rep-test'
p29
sa(dp30
g26
I0
sg28
S' \x02\x00\x00'
p31
sg23
S'srv'
p32
sg22
F0.0005428791046142578
sg25
I1
sa(dp33
g26
I0
sg28
S'1"\x00\x10retain/qos0/testretained message'
p34
sg23
g24
sg22
Nsg25
I2
sa(dp35
g22
Nsg23
g24
sg25
I3
sg26
I0
sS'isFuzzed'
p36
I01
sg28
S'\x82\x15\x00\x10\x00\x10retaaaaaain/qos27179252606490/test\x00'
p37
sa(dp38
g26
I1
sg28
S'\x90\x03\x00\x10\x00'
p39
sg23
g32
sg22
Nsg25
I4
sa(dp40
g26
I0
sg28
S'1"\x00\x10retain/qos0/testretained message'
p41
sg23
g32
sg22
Nsg25
I5
sa(dp42
g26
I0
sg28
S'\xa2\x14\x00\r\x00\x10retain/qos0/test'
p43
sg23
g24
sg22
Nsg25
I6
sa(dp44
g26
I0
sg28
S'\xb0\x02\x00\r'
p45
sg23
g32
sg22
Nsg25
I7
sa(dp46
g26
I0
sg28
S'\x82\x15\x00\x10\x00\x10retain/qos0/test\x00'
p47
sg23
g24
sg22
Nsg25
I8
sa(dp48
g26
I0
sg28
S'\x90\x03\x00\x10\x00'
p49
sg23
g32
sg22
Nsg25
I9
sa(dp50
g26
I0
sg28
S'1"\x00\x10retain/qos0/testretained message'
p51
sg23
g32
sg22
Nsg25
I10
sassg13
S'intercept147.2053_0.1809_3.1809_3.crash'
p52
s.