(dp0
S'serverpid'
p1
I22373
sS'asanOutput'
p2
NsS'reallydead'
p3
I-11
sS'signum'
p4
I0
sS'exitcode'
p5
I0
sS'fuzzerPos'
p6
S'C'
p7
sS'corpusData'
p8
(dp9
S'parentFilename'
p10
S'intercept80.1394_7.8061_7.7802_5.pickle'
p11
sS'time'
p12
NsS'filename'
p13
S'intercept80.1394_7.8061_7.7802_5.9841_2.pickle'
p14
sS'seed'
p15
S'9841353647483117103'
p16
sS'fuzzer'
p17
S'Radamsa'
p18
sS'networkData'
p19
(lp20
(dp21
S'timeouts'
p22
I0
sS'from'
p23
S'cli'
p24
sS'data'
p25
S'\x10\x1c\x00\x04MQTT\x04\x02\x00<\x00\x10pattern-sub-test'
p26
sS'index'
p27
I0
sS'latency'
p28
Nsa(dp29
g22
I0
sg23
S'srv'
p30
sg25
S' \x02\x00\x00'
p31
sg27
I1
sg28
F0.0001239776611328125
sa(dp32
g27
I2
sg23
g24
sg28
Nsg22
I0
sS'isFuzzed'
p33
I01
sg25
S'\x82\n+/v/\x018\x00\x05foo/#\x00'
p34
sa(dp35
g22
I1
sg23
g30
sg25
S'\x90\x03\x018\x00'
p36
sg27
I3
sg28
Nsa(dp37
g22
I0
sg23
g30
sg25
S'0\x14\x00\x0bfoo/bar/bazmessage'
p38
sg27
I4
sg28
Nsa(dp39
g27
I5
sg23
g24
sg28
Nsg22
I0
sS'isFuzzed'
p40
I01
sg25
S'\xa2\t\x00\x00\x00\xea\xc0\x80\xc0\x85\xc0\x80\xc0\x86%'
p41
sa(dp42
g22
I0
sg23
g30
sg25
S'\xb0\x02\x00\xea'
p43
sg27
I6
sg28
Nsa(dp44
g28
Nsg23
g24
sg27
I7
sg22
I0
sS'isFuzzed'
p45
I01
sg25
S'\x82\n\x012147483648\x00\x05foo3'
p46
sa(dp47
g22
I0
sg23
g30
sg25
S'\x90\x03\x018\x00'
p48
sg27
I8
sg28
Nsa(dp49
g22
I0
sg23
g30
sg25
S'1\x14\x00\x0bfoo/bar/bazmessage'
p50
sg27
I9
sg28
Nsassg13
S'intercept80.1394_7.8061_7.7802_5.9841_2.9841_2.crash'
p51
s.