(dp0
S'serverpid'
p1
I3582
sS'asanOutput'
p2
NsS'reallydead'
p3
I255
sS'signum'
p4
I0
sS'exitcode'
p5
I0
sS'fuzzerPos'
p6
S'C'
p7
sS'corpusData'
p8
(dp9
S'parentFilename'
p10
S'intercept118.1329_2.9618_2.pickle'
p11
sS'time'
p12
NsS'filename'
p13
S'intercept118.1329_2.9618_2.7529_0.pickle'
p14
sS'seed'
p15
S'7529526973032951447'
p16
sS'fuzzer'
p17
S'Radamsa'
p18
sS'networkData'
p19
(lp20
(dp21
S'index'
p22
I0
sS'from'
p23
S'cli'
p24
sS'latency'
p25
NsS'timeouts'
p26
I0
sS'isFuzzed'
p27
I01
sS'data'
p28
S'\x10\x00\x04MQTT\x04\x02\x00lper'
p29
sa(dp30
g26
I0
sg23
S'srv'
p31
sg28
S' \x02\x00\x00'
p32
sg22
I1
sg25
Nsa(dp33
g25
Nsg23
g24
sg22
I2
sg26
I0
sS'isFuzzed'
p34
I01
sg28
S'0\x11\xff\x08fge'
p35
sassg13
S'intercept118.1329_2.9618_2.7529_0.7529_0.crash'
p36
s.