(dp0
S'serverpid'
p1
I1720
sS'asanOutput'
p2
NsS'reallydead'
p3
I139
sS'signum'
p4
I0
sS'exitcode'
p5
I0
sS'fuzzerPos'
p6
S'C'
p7
sS'corpusData'
p8
(dp9
S'parentFilename'
p10
S'intercept80.8808_7.1038_0.pickle'
p11
sS'time'
p12
NsS'filename'
p13
S'intercept80.8808_7.1038_0.1329_2.pickle'
p14
sS'seed'
p15
S'132947989693670780'
p16
sS'fuzzer'
p17
S'Radamsa'
p18
sS'networkData'
p19
(lp20
(dp21
S'latency'
p22
NsS'from'
p23
S'cli'
p24
sS'index'
p25
I0
sS'timeouts'
p26
I0
sS'isFuzzed'
p27
I01
sS'data'
p28
S'\x10\x1c\x00\x04MQTT\x04\x02\x00<\x00\x10pa\xf4tern-sub-test'
p29
sa(dp30
g26
I0
sg28
S' \x02\x00\x00'
p31
sg23
S'srv'
p32
sg22
F2.193450927734375e-05
sg25
I1
sa(dp33
g22
Nsg23
g24
sg25
I2
sg26
I0
sS'isFuzzed'
p34
I01
sg28
S'\x82\n8\xf3\xa0\x81\x8b\xe2\x80\xab\x00\x05foo\x00/\xc3\x9f#'
p35
sa(dp36
g26
I1
sg28
S'\x90\x03\x018\x00'
p37
sg23
g32
sg22
Nsg25
I3
sa(dp38
g26
I0
sg28
S'0\x14\x00\x0bfoo/bar/bazmessage'
p39
sg23
g32
sg22
Nsg25
I4
sa(dp40
g26
I0
sg28
S'\xa2\t\x00\xea\x00\x05foo/#'
p41
sg23
g24
sg22
Nsg25
I5
sa(dp42
g26
I0
sg28
S'\xb0\x02\x00\xea'
p43
sg23
g32
sg22
Nsg25
I6
sa(dp44
g22
Nsg23
g24
sg25
I7
sg26
I0
sS'isFuzzed'
p45
I01
sg28
S'\x82\n\x01--922337203685472036854710368\x05foo/#\x00'
p46
sa(dp47
g26
I0
sg28
S'\x90\x03\x018\x00'
p48
sg23
g32
sg22
Nsg25
I8
sa(dp49
g26
I0
sg28
S'1\x14\x00\x0bfoo/bar/bazmessage'
p50
sg23
g32
sg22
Nsg25
I9
sassg13
S'intercept80.8808_7.1038_0.1329_2.1329_2.crash'
p51
s.