(dp0
S'serverpid'
p1
I31236
sS'asanOutput'
p2
NsS'reallydead'
p3
I-11
sS'signum'
p4
I0
sS'exitcode'
p5
I0
sS'fuzzerPos'
p6
S'A'
p7
sS'corpusData'
p8
(dp9
S'parentFilename'
p10
S'intercept147.2537_8.3723_6.pickle'
p11
sS'time'
p12
NsS'filename'
p13
S'intercept147.2537_8.3723_6.1336_6.pickle'
p14
sS'seed'
p15
S'13368530993835691102'
p16
sS'fuzzer'
p17
S'Radamsa'
p18
sS'networkData'
p19
(lp20
(dp21
S'timeouts'
p22
I0
sS'data'
p23
S'\x10 \x00\x04MQTT\x04\x02\x00<\x00\x14retain-qos0-rep-test'
p24
sS'from'
p25
S'cli'
p26
sS'latency'
p27
NsS'index'
p28
I0
sa(dp29
g22
I0
sg23
S' \x02\x00\x00'
p30
sg25
S'srv'
p31
sg27
F0.00041413307189941406
sg28
I1
sa(dp32
g22
I0
sg23
S'1"\x00\x10retain/qos0/testretained message'
p33
sg25
g26
sg27
Nsg28
I2
sa(dp34
g22
I0
sg23
S'\x82\x15\x00\x10\x00\x10retain/qos0/test\x00'
p35
sg25
g26
sg27
Nsg28
I3
sa(dp36
g22
I1
sg23
S'\x90\x03\x00\x10\x00'
p37
sg25
g31
sg27
Nsg28
I4
sa(dp38
g22
I0
sg23
S'1"\x00\x10retain/qos0/testretained message'
p39
sg25
g31
sg27
Nsg28
I5
sa(dp40
g27
Nsg25
g26
sg28
I6
sg22
I0
sS'isFuzzed'
p41
I01
sg23
S'\xe2\x80\x8d\xa2\xf3\xa0\x80\xb1\x14\xe2\x80\xa8\x00\r\x00\x10reta\xf3\xa0\x81\x8fin/qos129/\xe2\x81\xa8te\xe2\x80\xf3\xa0\x81\x8a\xabsj'
p42
sa(dp43
g22
I0
sg23
S'\xb0\x02\x00\r'
p44
sg25
g31
sg27
Nsg28
I7
sa(dp45
g27
Nsg25
g26
sg28
I8
sg22
I0
sS'isFuzzed'
p46
I01
sg23
S'\x82\x15\x00\x10\x00\x10retain/qos-146685407878593472120606\xf3\xa0\x81\xb0571\xf3\xa0\x81\xb1574898950488/test\x00'
p47
sa(dp48
g22
I0
sg23
S'\x90\x03\x00\x10\x00'
p49
sg25
g31
sg27
Nsg28
I9
sa(dp50
g22
I0
sg23
S'1"\x00\x10retain/qos0/testretained message'
p51
sg25
g31
sg27
Nsg28
I10
sassg13
S'intercept147.2537_8.3723_6.1336_6.1336_6.crash'
p52
s.