(dp0
S'serverpid'
p1
I22774
sS'asanOutput'
p2
NsS'reallydead'
p3
I-11
sS'signum'
p4
I0
sS'exitcode'
p5
I0
sS'fuzzerPos'
p6
S'C'
p7
sS'corpusData'
p8
(dp9
S'parentFilename'
p10
S'intercept68.pickle'
p11
sS'time'
p12
NsS'filename'
p13
S'intercept68.4444_0.pickle'
p14
sS'seed'
p15
S'4444040904978749949'
p16
sS'fuzzer'
p17
S'Radamsa'
p18
sS'networkData'
p19
(lp20
(dp21
S'latency'
p22
NsS'from'
p23
S'cli'
p24
sS'index'
p25
I0
sS'timeouts'
p26
I0
sS'isFuzzed'
p27
I01
sS'data'
p28
S'\x10!\x00\x06MQIsd\xf3\xa0\x81\x86p\x03\x00\x00<\x00\x13pub-qos\xf3\xa0\x80\xa5214748364\xf3\xa0\x81\x899-disco-test'
p29
sa(dp30
g26
I0
sg28
S' \x02\x00\x00'
p31
sg23
S'srv'
p32
sg22
Nsg25
I1
sa(dp33
g26
I0
sg28
S'<*\x00\x14qos2/disconnect/test\x00\x01disconnect-message'
p34
sg23
g24
sg22
Nsg25
I2
sa(dp35
g26
I0
sg28
S'P\x02\x00\x01'
p36
sg23
g32
sg22
Nsg25
I3
sa(dp37
g26
I0
sg28
S'b\x02\x00\x01'
p38
sg23
g24
sg22
Nsg25
I4
sa(dp39
g26
I0
sg28
S'p\x02\x00\x01'
p40
sg23
g32
sg22
Nsg25
I5
sassg13
S'intercept68.4444_0.4444_0.crash'
p41
s.