(dp0
S'serverpid'
p1
I21082
sS'asanOutput'
p2
NsS'reallydead'
p3
I-11
sS'signum'
p4
I0
sS'exitcode'
p5
I0
sS'fuzzerPos'
p6
S'C'
p7
sS'corpusData'
p8
(dp9
S'parentFilename'
p10
S'intercept37.4128_4.8181_4.1850_4.pickle'
p11
sS'time'
p12
NsS'filename'
p13
S'intercept37.4128_4.8181_4.1850_4.1490_4.pickle'
p14
sS'seed'
p15
S'14903775436365405463'
p16
sS'fuzzer'
p17
S'Radamsa'
p18
sS'networkData'
p19
(lp20
(dp21
S'timeouts'
p22
I0
sS'from'
p23
S'cli'
p24
sS'data'
p25
S'\x10\x1c\x00\x04MQTT\x04\x02\x00<\x00\x10subpub-qos1-test'
p26
sS'index'
p27
I0
sS'latency'
p28
Nsa(dp29
g22
I0
sg23
S'srv'
p30
sg25
S' \x02\x00\x00'
p31
sg27
I1
sg28
F0.0001850128173828125
sa(dp32
g22
I0
sg23
g24
sg25
S'\x82\x10\x02\x12\x00\x0bsubpub/qos1\x01'
p33
sg27
I2
sg28
Nsa(dp34
g22
I0
sg23
g30
sg25
S'\x90\x03\x02\x12\x01'
p35
sg27
I3
sg28
F0.0002951622009277344
sa(dp36
g28
Nsg23
g24
sg27
I4
sg22
I0
sS'isFuzzed'
p37
I01
sg25
S'2\x16\x00\x0bsubpu\xf3\xa0\x81\x81b/qos-91433066948-\xca\xb642\xf3\xa0\x81\x81b/qos-91433066948-\xca\xb642\xf3\xa0\x81\x90\x80\x800026\x01,mes\xf3\xa0\x81\x9esage'
p38
sa(dp39
g22
I0
sg23
g30
sg25
S'@\x02\x01,'
p40
sg27
I5
sg28
F0.00032019615173339844
sa(dp41
g22
I1
sg23
g30
sg25
S'2\x16\x00\x0bsubpub/qos1\x00\x01message'
p42
sg27
I6
sg28
Nsassg13
S'intercept37.4128_4.8181_4.1850_4.1490_4.1490_4.crash'
p43
s.