(dp0
S'serverpid'
p1
NsS'asanOutput'
p2
NsS'reallydead'
p3
NsS'signum'
p4
NsS'exitcode'
p5
NsS'fuzzerPos'
p6
S'B'
p7
sS'corpusData'
p8
(dp9
S'parentFilename'
p10
S'intercept157.pickle'
p11
sS'time'
p12
NsS'filename'
p13
S'intercept157.1746_2.pickle'
p14
sS'seed'
p15
S'17460650522903591808'
p16
sS'fuzzer'
p17
S'Radamsa'
p18
sS'networkData'
p19
(lp20
(dp21
S'timeouts'
p22
I0
sS'data'
p23
S'\x10\x1b\x00\x04MQTT\x04\x00\x00<\x00\x0fclean-qos2-test'
p24
sS'from'
p25
S'cli'
p26
sS'latency'
p27
NsS'index'
p28
I0
sa(dp29
g22
I0
sg23
S' \x02\x01\x0020\x00\x17qos1/clean_session/test\x00\x01clean-session-message'
p30
sg25
S'srv'
p31
sg27
F0.0003771781921386719
sg28
I1
sa(dp32
g27
Nsg25
g26
sg28
I2
sg22
I0
sS'isFuzzed'
p33
I01
sg23
S'@\xe1\xa0\x8e\x02\x00\x01'
p34
sassg13
S'intercept157.1746_2.1746_2.crash'
p35
s.