(dp0
S'serverpid'
p1
I21340
sS'asanOutput'
p2
NsS'reallydead'
p3
I-11
sS'signum'
p4
I0
sS'exitcode'
p5
I0
sS'fuzzerPos'
p6
S'B'
p7
sS'corpusData'
p8
(dp9
S'parentFilename'
p10
S'intercept118.1329_2.9618_2.pickle'
p11
sS'time'
p12
NsS'filename'
p13
S'intercept118.1329_2.9618_2.8892_2.pickle'
p14
sS'seed'
p15
S'8892452186028936764'
p16
sS'fuzzer'
p17
S'Radamsa'
p18
sS'networkData'
p19
(lp20
(dp21
S'timeouts'
p22
I0
sS'from'
p23
S'cli'
p24
sS'data'
p25
S'\x10\x17\x00\x04MQTT\x04\x02\x00<\x00\x0btest-helper'
p26
sS'index'
p27
I0
sS'latency'
p28
Nsa(dp29
g22
I0
sg23
S'srv'
p30
sg25
S' \x02\x00\x00'
p31
sg27
I1
sg28
F0.00023794174194335938
sa(dp32
g28
Nsg23
g24
sg27
I2
sg22
I0
sS'isFuzzed'
p33
I01
sg25
S'0\x11\xff\x08fg\x11\xff\x08g\xf3\xa0\xf3\xa0\x81\xbd\x80\xabe'
p34
sassg13
S'intercept118.1329_2.9618_2.8892_2.8892_2.crash'
p35
s.