(dp0
S'serverpid'
p1
I15766
sS'asanOutput'
p2
S'=================================================================\n==15766==ERROR: AddressSanitizer: heap-buffer-overflow on address 0x60200000203e at pc 0x562c503c8e6f bp 0x7fff82642ab0 sp 0x7fff82642aa8\nREAD of size 1 at 0x60200000203e thread T0\n    #0 0x562c503c8e6e in mg_mqtt_next_subscribe_topic ../../mongoose.c:11082\n    #1 0x562c503ca160 in mg_mqtt_broker_handle_subscribe ../../mongoose.c:11265\n    #2 0x562c503cae7f in mg_mqtt_broker ../../mongoose.c:11354\n    #3 0x562c503a86f8 in ev_handler /home/kali/fuzzing/victims/mongoose-6.13/examples/mqtt_broker/mqtt_broker.c:25\n    #4 0x562c503c73ae in mqtt_handler ../../mongoose.c:10867\n    #5 0x562c503b5675 in mg_call ../../mongoose.c:2404\n    #6 0x562c503b9008 in mg_recv_tcp ../../mongoose.c:2931\n    #7 0x562c503b8bc8 in mg_do_recv ../../mongoose.c:2887\n    #8 0x562c503b8be8 in mg_if_can_recv_cb ../../mongoose.c:2893\n    #9 0x562c503bf601 in mg_mgr_handle_conn ../../mongoose.c:4009\n    #10 0x562c503c0b30 in mg_socket_if_poll ../../mongoose.c:4200\n    #11 0x562c503b6df5 in mg_mgr_poll ../../mongoose.c:2593\n    #12 0x562c503a88b2 in main /home/kali/fuzzing/victims/mongoose-6.13/examples/mqtt_broker/mqtt_broker.c:51\n    #13 0x7f138b92ba86 in __libc_start_main (/lib/x86_64-linux-gnu/libc.so.6+0x21a86)\n    #14 0x562c503a85f9 in _start (/home/kali/fuzzing/victims/mongoose-6.13/bin/mqtt_broker-6.13-asan+0x65f9)\n\n0x60200000203e is located 0 bytes to the right of 14-byte region [0x602000002030,0x60200000203e)\nallocated by thread T0 here:\n    #0 0x7f138bfcb2c0 in __interceptor_realloc (/usr/lib/x86_64-linux-gnu/libasan.so.5+0xe92c0)\n    #1 0x562c503afa0c in mbuf_resize ../../mongoose.c:1549\n    #2 0x562c503afac8 in mbuf_trim ../../mongoose.c:1563\n    #3 0x562c503b8fb0 in mg_recv_tcp ../../mongoose.c:2930\n    #4 0x562c503b8bc8 in mg_do_recv ../../mongoose.c:2887\n    #5 0x562c503b8be8 in mg_if_can_recv_cb ../../mongoose.c:2893\n    #6 0x562c503bf601 in mg_mgr_handle_conn ../../mongoose.c:4009\n    #7 0x562c503c0b30 in mg_socket_if_poll ../../mongoose.c:4200\n    #8 0x562c503b6df5 in mg_mgr_poll ../../mongoose.c:2593\n    #9 0x562c503a88b2 in main /home/kali/fuzzing/victims/mongoose-6.13/examples/mqtt_broker/mqtt_broker.c:51\n    #10 0x7f138b92ba86 in __libc_start_main (/lib/x86_64-linux-gnu/libc.so.6+0x21a86)\n\nSUMMARY: AddressSanitizer: heap-buffer-overflow ../../mongoose.c:11082 in mg_mqtt_next_subscribe_topic\nShadow bytes around the buggy address:\n  0x0c047fff83b0: fa fa fd fa fa fa fd fd fa fa fd fd fa fa fd fa\n  0x0c047fff83c0: fa fa fd fa fa fa fd fa fa fa fd fd fa fa fd fd\n  0x0c047fff83d0: fa fa fd fa fa fa fd fa fa fa fd fd fa fa fd fd\n  0x0c047fff83e0: fa fa fd fa fa fa fd fa fa fa fd fa fa fa fd fa\n  0x0c047fff83f0: fa fa fd fa fa fa fd fd fa fa 00 00 fa fa fd fa\n=>0x0c047fff8400: fa fa fd fa fa fa 00[06]fa fa fa fa fa fa fa fa\n  0x0c047fff8410: fa fa fa fa fa fa fa fa fa fa fa fa fa fa fa fa\n  0x0c047fff8420: fa fa fa fa fa fa fa fa fa fa fa fa fa fa fa fa\n  0x0c047fff8430: fa fa fa fa fa fa fa fa fa fa fa fa fa fa fa fa\n  0x0c047fff8440: fa fa fa fa fa fa fa fa fa fa fa fa fa fa fa fa\n  0x0c047fff8450: fa fa fa fa fa fa fa fa fa fa fa fa fa fa fa fa\nShadow byte legend (one shadow byte represents 8 application bytes):\n  Addressable:           00\n  Partially addressable: 01 02 03 04 05 06 07 \n  Heap left redzone:       fa\n  Freed heap region:       fd\n  Stack left redzone:      f1\n  Stack mid redzone:       f2\n  Stack right redzone:     f3\n  Stack after return:      f5\n  Stack use after scope:   f8\n  Global redzone:          f9\n  Global init order:       f6\n  Poisoned by user:        f7\n  Container overflow:      fc\n  Array cookie:            ac\n  Intra object redzone:    bb\n  ASan internal:           fe\n  Left alloca redzone:     ca\n  Right alloca redzone:    cb\n==15766==ABORTING\n'
p3
sS'reallydead'
p4
I-6
sS'signum'
p5
I0
sS'exitcode'
p6
I0
sS'fuzzerPos'
p7
S'C'
p8
sS'corpusData'
p9
(dp10
S'parentFilename'
p11
S'intercept0.pickle'
p12
sS'time'
p13
NsS'filename'
p14
S'intercept0.1835_2.pickle'
p15
sS'seed'
p16
S'18359076572867555598'
p17
sS'fuzzer'
p18
S'Radamsa'
p19
sS'networkData'
p20
(lp21
(dp22
S'timeouts'
p23
I0
sS'data'
p24
S'\x10\x14\x00\x04MQTT\x04\x02\x00<\x00\x08mqtt-spy'
p25
sS'from'
p26
S'cli'
p27
sS'latency'
p28
NsS'index'
p29
I0
sa(dp30
g23
I0
sg24
S' \x02\x00\x00'
p31
sg26
S'srv'
p32
sg28
F0.00017189979553222656
sg29
I1
sa(dp33
g28
Nsg26
g27
sg29
I2
sg23
I0
sS'isFuzzed'
p34
I01
sg24
S'\x82\x0c\x00\x01\x00\x06areaqear'
p35
sa(dp36
g23
I1
sg24
S'\x92\x03\x00\x01\x00'
p37
sg26
g32
sg28
Nsg29
I3
sa(dp38
g23
I0
sg24
S'0\x0e\x00\x07area-51hello'
p39
sg26
g27
sg28
Nsg29
I4
sa(dp40
g23
I0
sg24
S'0\x0e\x00\x07area-51hello'
p41
sg26
g32
sg28
Nsg29
I5
sa(dp42
g23
I0
sg24
S'\xa2\x0b\x00\x03\x00\x07area-51'
p43
sg26
g27
sg28
Nsg29
I6
sassg14
S'intercept0.1835_2.1835_2.crash'
p44
s.