(dp0
S'serverpid'
p1
I10628
sS'asanOutput'
p2
S'=================================================================\n==10628==ERROR: AddressSanitizer: heap-buffer-overflow on address 0x61900001800d at pc 0x5569db298baa bp 0x7ffcb43a1940 sp 0x7ffcb43a1938\nREAD of size 1 at 0x61900001800d thread T0\n    #0 0x5569db298ba9 in mg_mqtt_next_subscribe_topic ../../mongoose.c:10131\n    #1 0x5569db299d7e in mg_mqtt_broker_handle_subscribe ../../mongoose.c:10298\n    #2 0x5569db29a7ed in mg_mqtt_broker ../../mongoose.c:10360\n    #3 0x5569db2970e7 in mqtt_handler ../../mongoose.c:9941\n    #4 0x5569db2828a1 in mg_call ../../mongoose.c:2037\n    #5 0x5569db28624f in mg_recv_common ../../mongoose.c:2512\n    #6 0x5569db2862cb in mg_if_recv_tcp_cb ../../mongoose.c:2516\n    #7 0x5569db28c427 in mg_handle_tcp_read ../../mongoose.c:3388\n    #8 0x5569db28d3a2 in mg_mgr_handle_conn ../../mongoose.c:3513\n    #9 0x5569db28e959 in mg_socket_if_poll ../../mongoose.c:3705\n    #10 0x5569db283fa8 in mg_mgr_poll ../../mongoose.c:2231\n    #11 0x5569db277a3a in main /home/kali/fuzzing/victims/mongoose-6.8/examples/mqtt_broker/mqtt_broker.c:43\n    #12 0x7f9d10266a86 in __libc_start_main (/lib/x86_64-linux-gnu/libc.so.6+0x21a86)\n    #13 0x5569db2777c9 in _start (/home/kali/fuzzing/victims/mongoose-6.8/bin/mqtt_broker-asan+0x77c9)\n\nAddress 0x61900001800d is a wild pointer.\nSUMMARY: AddressSanitizer: heap-buffer-overflow ../../mongoose.c:10131 in mg_mqtt_next_subscribe_topic\nShadow bytes around the buggy address:\n  0x0c327fffafb0: fa fa fa fa fa fa fa fa fa fa fa fa fa fa fa fa\n  0x0c327fffafc0: fa fa fa fa fa fa fa fa fa fa fa fa fa fa fa fa\n  0x0c327fffafd0: fa fa fa fa fa fa fa fa fa fa fa fa fa fa fa fa\n  0x0c327fffafe0: fa fa fa fa fa fa fa fa fa fa fa fa fa fa fa fa\n  0x0c327fffaff0: fa fa fa fa fa fa fa fa fa fa fa fa fa fa fa fa\n=>0x0c327fffb000: fa[fa]fa fa fa fa fa fa fa fa fa fa fa fa fa fa\n  0x0c327fffb010: fa fa fa fa fa fa fa fa fa fa fa fa fa fa fa fa\n  0x0c327fffb020: fa fa fa fa fa fa fa fa fa fa fa fa fa fa fa fa\n  0x0c327fffb030: fa fa fa fa fa fa fa fa fa fa fa fa fa fa fa fa\n  0x0c327fffb040: fa fa fa fa fa fa fa fa fa fa fa fa fa fa fa fa\n  0x0c327fffb050: fa fa fa fa fa fa fa fa fa fa fa fa fa fa fa fa\nShadow byte legend (one shadow byte represents 8 application bytes):\n  Addressable:           00\n  Partially addressable: 01 02 03 04 05 06 07 \n  Heap left redzone:       fa\n  Freed heap region:       fd\n  Stack left redzone:      f1\n  Stack mid redzone:       f2\n  Stack right redzone:     f3\n  Stack after return:      f5\n  Stack use after scope:   f8\n  Global redzone:          f9\n  Global init order:       f6\n  Poisoned by user:        f7\n  Container overflow:      fc\n  Array cookie:            ac\n  Intra object redzone:    bb\n  ASan internal:           fe\n  Left alloca redzone:     ca\n  Right alloca redzone:    cb\n==10628==ABORTING\n'
p3
sS'reallydead'
p4
I-6
sS'signum'
p5
I0
sS'exitcode'
p6
I0
sS'fuzzerPos'
p7
S'B'
p8
sS'corpusData'
p9
(dp10
S'parentFilename'
p11
S'intercept0.pickle'
p12
sS'time'
p13
NsS'filename'
p14
S'intercept0.1548_4.pickle'
p15
sS'seed'
p16
S'15487056753745350332'
p17
sS'fuzzer'
p18
S'Radamsa'
p19
sS'networkData'
p20
(lp21
(dp22
S'timeouts'
p23
I0
sS'data'
p24
S'\x10\x14\x00\x04MQTT\x04\x02\x00<\x00\x08mqtt-spy'
p25
sS'from'
p26
S'cli'
p27
sS'latency'
p28
NsS'index'
p29
I0
sa(dp30
g23
I0
sg24
S' \x02\x00\x00'
p31
sg26
S'srv'
p32
sg28
F9.393692016601562e-05
sg29
I1
sa(dp33
g23
I0
sg24
S'\x82\x0c\x00\x01\x00\x07area-51\x00'
p34
sg26
g27
sg28
Nsg29
I2
sa(dp35
g23
I0
sg24
S'\x92\x03\x00\x01\x00'
p36
sg26
g32
sg28
F4.8160552978515625e-05
sg29
I3
sa(dp37
g28
Nsg26
g27
sg29
I4
sg23
I0
sS'isFuzzed'
p38
I01
sg24
S'-17347712563164404\x0e\x00\xc0\x87arel\x87arel\x87arel\x87arel\x87arel\x87arel\x87arel\x87arel\x87arel\x87arel\x87arel\x87arel\x87arel\x87arel\x87arel\x87arel\x87arel\x87arel\x87arel\x87arel\x87arel\x87arel\x87arel\x87arel\x87arel\x87arel\x87arel\x87arel\x87arel\x87arel\xef\xbf\xbflo'
p39
sa(dp40
g23
I1
sg24
S'0\x0e\x00\x07area-51hello'
p41
sg26
g32
sg28
Nsg29
I5
sa(dp42
g23
I0
sg24
S'\xa2\x0b\x00\x03\x00\x07area-51'
p43
sg26
g27
sg28
Nsg29
I6
sassg14
S'intercept0.1548_4.1548_4.crash'
p44
s.