(dp0
S'serverpid'
p1
I18418
sS'asanOutput'
p2
S'=================================================================\n==18418==ERROR: AddressSanitizer: heap-buffer-overflow on address 0xf49107f3 at pc 0x5659524d bp 0xfff0b588 sp 0xfff0b57c\nREAD of size 1 at 0xf49107f3 thread T0\n    #0 0x5659524c in getu16 ../../mongoose.c:10706\n    #1 0x5659527b in scanto ../../mongoose.c:10710\n    #2 0x565958a1 in parse_mqtt ../../mongoose.c:10758\n    #3 0x5659634a in mqtt_handler ../../mongoose.c:10843\n    #4 0x56582ffb in mg_call ../../mongoose.c:2404\n    #5 0x56587113 in mg_recv_tcp ../../mongoose.c:2931\n    #6 0x56586c3d in mg_do_recv ../../mongoose.c:2887\n    #7 0x56586c69 in mg_if_can_recv_cb ../../mongoose.c:2893\n    #8 0x5658df31 in mg_mgr_handle_conn ../../mongoose.c:4009\n    #9 0x5658f763 in mg_socket_if_poll ../../mongoose.c:4200\n    #10 0x56584c0b in mg_mgr_poll ../../mongoose.c:2593\n    #11 0x56575e98 in main /home/kali/fuzzing/victims/mongoose-6.13/examples/mqtt_broker/mqtt_broker.c:51\n    #12 0xf77119a0 in __libc_start_main (/lib/i386-linux-gnu/libc.so.6+0x199a0)\n    #13 0x56575b60  (/home/kali/fuzzing/victims/mongoose-6.13/bin/mqtt_broker-asan32+0x2b60)\n\n0xf49107f3 is located 0 bytes to the right of 19-byte region [0xf49107e0,0xf49107f3)\nallocated by thread T0 here:\n    #0 0xf79dd2cc in realloc (/usr/lib/i386-linux-gnu/libasan.so.5+0xeb2cc)\n    #1 0x5657cf49 in mbuf_resize ../../mongoose.c:1549\n    #2 0x5657d03f in mbuf_trim ../../mongoose.c:1563\n    #3 0x565870b8 in mg_recv_tcp ../../mongoose.c:2930\n    #4 0x56586c3d in mg_do_recv ../../mongoose.c:2887\n    #5 0x56586c69 in mg_if_can_recv_cb ../../mongoose.c:2893\n    #6 0x5658df31 in mg_mgr_handle_conn ../../mongoose.c:4009\n    #7 0x5658f763 in mg_socket_if_poll ../../mongoose.c:4200\n    #8 0x56584c0b in mg_mgr_poll ../../mongoose.c:2593\n    #9 0x56575e98 in main /home/kali/fuzzing/victims/mongoose-6.13/examples/mqtt_broker/mqtt_broker.c:51\n    #10 0xf77119a0 in __libc_start_main (/lib/i386-linux-gnu/libc.so.6+0x199a0)\n\nSUMMARY: AddressSanitizer: heap-buffer-overflow ../../mongoose.c:10706 in getu16\nShadow bytes around the buggy address:\n  0x3e9220a0: fa fa fa fa fa fa fa fa fa fa fa fa fa fa fa fa\n  0x3e9220b0: fa fa fa fa fa fa fa fa fa fa fa fa fa fa fa fa\n  0x3e9220c0: fa fa fa fa fa fa fa fa fa fa fa fa fa fa fa fa\n  0x3e9220d0: fa fa fa fa fa fa fa fa fa fa fa fa fa fa fa fa\n  0x3e9220e0: fa fa fa fa fa fa fa fa fa fa fa fa fa fa fa fa\n=>0x3e9220f0: fa fa fa fa fa fa fa fa fa fa fa fa 00 00[03]fa\n  0x3e922100: fa fa fd fd fd fa fa fa fd fd fd fd fa fa fd fd\n  0x3e922110: fd fa fa fa fd fd fd fa fa fa fd fd fd fa fa fa\n  0x3e922120: fd fd fd fa fa fa fd fd fd fd fa fa fd fd fd fa\n  0x3e922130: fa fa fd fd fd fa fa fa fd fd fd fd fa fa fd fd\n  0x3e922140: fd fa fa fa fd fd fd fd fa fa fd fd fd fd fa fa\nShadow byte legend (one shadow byte represents 8 application bytes):\n  Addressable:           00\n  Partially addressable: 01 02 03 04 05 06 07 \n  Heap left redzone:       fa\n  Freed heap region:       fd\n  Stack left redzone:      f1\n  Stack mid redzone:       f2\n  Stack right redzone:     f3\n  Stack after return:      f5\n  Stack use after scope:   f8\n  Global redzone:          f9\n  Global init order:       f6\n  Poisoned by user:        f7\n  Container overflow:      fc\n  Array cookie:            ac\n  Intra object redzone:    bb\n  ASan internal:           fe\n  Left alloca redzone:     ca\n  Right alloca redzone:    cb\n==18418==ABORTING\n'
p3
sS'reallydead'
p4
I-6
sS'signum'
p5
I0
sS'exitcode'
p6
I0
sS'fuzzerPos'
p7
S'C'
p8
sS'corpusData'
p9
(dp10
S'parentFilename'
p11
S'intercept0.1828_0.1376_2.pickle'
p12
sS'time'
p13
NsS'filename'
p14
S'intercept0.1828_0.1376_2.6540_0.pickle'
p15
sS'seed'
p16
S'6540472223872076218'
p17
sS'fuzzer'
p18
S'Radamsa'
p19
sS'networkData'
p20
(lp21
(dp22
S'latency'
p23
NsS'from'
p24
S'cli'
p25
sS'index'
p26
I0
sS'timeouts'
p27
I0
sS'isFuzzed'
p28
I01
sS'data'
p29
S'\x10\x11\x00\x04MQTT\x04\xff\x00<\x00\x04dvmmy'
p30
sa(dp31
g27
I1
sg29
S' \x02\x00\x00'
p32
sg24
S'srv'
p33
sg23
Nsg26
I1
sa(dp34
g23
Nsg24
g25
sg26
I2
sg27
I0
sS'isFuzzed'
p35
I01
sg29
S'\x82\x0b\x00*\x00\x06/\xf3}*\x00\x06/stttpufgff\x00stttpufgff\x00stttpufgff\x00stttpufgff\x00stttpufgff\x00stttpufgff\x00stttpufgff\x00stttpufgff\x00stttpufgff\x00stttpufgff\x00stttpufgff\x00stttpufgff\x00stttpufgff\x00stttpufgff\x00stttpufgff\x00stttpufgff\x00stttpufgff\x00stttpufgff\x00stttpufgff\x00stttpufgff\x00stttpufgff\x00stttpufgff\x00stttpufgff\x00stttpufgff\x00stttpufgff\x00stttpufgff\x00stttpufgff\x00stttpufgff\x00stttpufgff\x00stttpufgff\x00stttpufgff\x00stttpufgff\x00stttpufgff\x00stttpufgff\x00stttpufgff\x00stttpufgff\x00stttpufgff\x00stttpufgff\x00stttpufgff\x00stttpufgff\x00stttpufgff\x00stttpufgff\x00stttpufgff\x00stttpufgff\x00stttpufgff\x00stttpufgff\x00stttpufgff\x00stttpufgff\x00stttpufgff\x00stttpufgff\x00stttpufgff\x00stttpufgff\x00stttpufgff\x00stttpufgff\x00stttpufgff\x00stttpufgff\x00stttpufgff\x00stttpufgff\x00stttpufgff\x00stttpufgff\x00stttpufgff\x00stttpufgff\x00stttpufgff\x00stttpufgff\x00stttpufgff\x00stttpufgff\x00stttpufgff\x00stttpufgff\x00stttpufgff\x00stttpufgff\x00stttpufgff\x00stttpufgff\x00stttpufgff\x00stttpufgff\x00stttpufgff\x00stttpufgff\x00stttpufgff\x00stttpufgff\x00stttpufgff\x00stttpufgff\x00stttpufgff\x00stttpufgff\x00stttpufgff\x00stttpufgff\x00stttpufgff\x00stttpufgff\x00stttpufgff\x00stttpufgff\x00stttpufgff\x00stttpufgff\x00stttpufgff\x00stttpufgff\x00stttpufgff\x00stttpufgff\x00stttpufgff\x00stttpufgff\x00stttpufgff\x00stttpufgff\x00stttpufgff\x00stttpufgff\x00stttpufgff\x00stttpufgff\x00stttpufgff\x00stttpufgff\x00stttpufgff\x00stttpufgff\x00stttpufgff\x00stttpufgff\x00stttpufgff\x00stttpufgff\x00stttpufgff\x00stttpufgff\x00stttpufgff\x00stttpufgff\x00stttpufgff\x00stttpufgff\x00stttpufgff\x00stttpufgff\x00stttpufgff\x00stttpufgff\x00stttpufgff\x00stttpufgff\x00stttpufgff\x00stttpufgff\x00stttpufgff\x00stttpufgff\x00stttpufgff\x00stttpufgff\x00stttpufgff\x00stttpufgff\x00stttpufgff\x00stttpufgff\x00stttpufgff\x00stttpufgff\x00stttpufgff\x00stttpufgff\x00stttpufgff\x00stttpufgff\x00stttpufgff\x00stttpufgff\x00stttpufgff\x00stttpufgff\x00stttpufgff\x00stttpufgff\x00stttpufgff\x00stttpufgff\x00stttpufgff\x00stttpufgff\x00stttpufgff\x00stttpufgff\x00stttpufgff\x00stttpufgff\x00stttpufgff\x00stttpufgff\x00stttpufgff\x00stttpufgff\x00stttpufgff\x00stttpufgff\x00stttpufgff\x00stttpufgff\x00stttpufgff\x00stttpufgff\x00stttpufgff\x00stttpufgff\x00stttpufgff\x00stttpufgff\x00stttpufgff\x00stttpufgff\x00stttpufgff\x00stttpufgff\x00stttpufgff\x00stttpufgff\x00stttpufgff\x00stttpufgff\x00stttpufgff\x00stttpufgff\x00stttpufgff\x00stttpufgff\x00stttpufgff\x00stttpufgff\x00stttpufgff\x00stttpufgff\x00stttpufgff\x00stttpufgff\x00stttpufgff\x00stttpufgff\x00stttpufgff\x00stttpufgff\x00stttpufgff\x00stttpufgff\x00stttpufgff\x00stttpufgff\x00stttpufgff\x00stttpufgff\x00\x06/ttufgff\x00*\x00\x06/\x01\x01\x02'
p36
sa(dp37
g27
I0
sg29
S'\x92\x03\x00*\x00'
p38
sg24
g33
sg23
Nsg26
I3
sassg14
S'intercept0.1828_0.1376_2.6540_0.6540_0.crash'
p39
s.