(dp0
S'serverpid'
p1
I10508
sS'asanOutput'
p2
S'=================================================================\n==10508==ERROR: AddressSanitizer: heap-buffer-overflow on address 0x619000001094 at pc 0x55f79c8185ed bp 0x7ffd0e870490 sp 0x7ffd0e870488\nREAD of size 1 at 0x619000001094 thread T0\n    #0 0x55f79c8185ec in parse_mqtt ../../mongoose.c:9864\n    #1 0x55f79c819049 in mqtt_handler ../../mongoose.c:9939\n    #2 0x55f79c8048a1 in mg_call ../../mongoose.c:2037\n    #3 0x55f79c80824f in mg_recv_common ../../mongoose.c:2512\n    #4 0x55f79c8082cb in mg_if_recv_tcp_cb ../../mongoose.c:2516\n    #5 0x55f79c80e427 in mg_handle_tcp_read ../../mongoose.c:3388\n    #6 0x55f79c80f3a2 in mg_mgr_handle_conn ../../mongoose.c:3513\n    #7 0x55f79c810959 in mg_socket_if_poll ../../mongoose.c:3705\n    #8 0x55f79c805fa8 in mg_mgr_poll ../../mongoose.c:2231\n    #9 0x55f79c7f9a3a in main /home/kali/fuzzing/victims/mongoose-6.8/examples/mqtt_broker/mqtt_broker.c:43\n    #10 0x7fb2d04dda86 in __libc_start_main (/lib/x86_64-linux-gnu/libc.so.6+0x21a86)\n    #11 0x55f79c7f97c9 in _start (/home/kali/fuzzing/victims/mongoose-6.8/bin/mqtt_broker-asan+0x77c9)\n\nAddress 0x619000001094 is a wild pointer.\nSUMMARY: AddressSanitizer: heap-buffer-overflow ../../mongoose.c:9864 in parse_mqtt\nShadow bytes around the buggy address:\n  0x0c327fff81c0: fa fa fa fa fa fa fa fa fa fa fa fa fa fa fa fa\n  0x0c327fff81d0: fa fa fa fa fa fa fa fa fa fa fa fa fa fa fa fa\n  0x0c327fff81e0: fa fa fa fa fa fa fa fa fa fa fa fa fa fa fa fa\n  0x0c327fff81f0: fa fa fa fa fa fa fa fa fa fa fa fa fa fa fa fa\n  0x0c327fff8200: fa fa fa fa fa fa fa fa fa fa fa fa fa fa fa fa\n=>0x0c327fff8210: fa fa[fa]fa fa fa fa fa fa fa fa fa fa fa fa fa\n  0x0c327fff8220: fa fa fa fa fa fa fa fa fa fa fa fa fa fa fa fa\n  0x0c327fff8230: fa fa fa fa fa fa fa fa fa fa fa fa fa fa fa fa\n  0x0c327fff8240: fa fa fa fa fa fa fa fa fa fa fa fa fa fa fa fa\n  0x0c327fff8250: fa fa fa fa fa fa fa fa fa fa fa fa fa fa fa fa\n  0x0c327fff8260: fa fa fa fa fa fa fa fa fa fa fa fa fa fa fa fa\nShadow byte legend (one shadow byte represents 8 application bytes):\n  Addressable:           00\n  Partially addressable: 01 02 03 04 05 06 07 \n  Heap left redzone:       fa\n  Freed heap region:       fd\n  Stack left redzone:      f1\n  Stack mid redzone:       f2\n  Stack right redzone:     f3\n  Stack after return:      f5\n  Stack use after scope:   f8\n  Global redzone:          f9\n  Global init order:       f6\n  Poisoned by user:        f7\n  Container overflow:      fc\n  Array cookie:            ac\n  Intra object redzone:    bb\n  ASan internal:           fe\n  Left alloca redzone:     ca\n  Right alloca redzone:    cb\n==10508==ABORTING\n'
p3
sS'reallydead'
p4
I-6
sS'signum'
p5
I0
sS'exitcode'
p6
I0
sS'fuzzerPos'
p7
S'B'
p8
sS'corpusData'
p9
(dp10
S'parentFilename'
p11
S'intercept0.pickle'
p12
sS'time'
p13
NsS'filename'
p14
S'intercept0.9109_0.pickle'
p15
sS'seed'
p16
S'9109050502372878285'
p17
sS'fuzzer'
p18
S'Radamsa'
p19
sS'networkData'
p20
(lp21
(dp22
S'latency'
p23
NsS'from'
p24
S'cli'
p25
sS'index'
p26
I0
sS'timeouts'
p27
I0
sS'isFuzzed'
p28
I01
sS'data'
p29
S'\x10\x10\x10\x10y\x04\x04QT\x00Ms\x14p\x02\x10\x10\x00Tm\x10\x10-\x08qtt'
p30
sa(dp31
g27
I1
sg29
S' \x02\x00\x00'
p32
sg24
S'srv'
p33
sg23
Nsg26
I1
sa(dp34
g27
I0
sg29
S'\x82\x0c\x00\x01\x00\x07area-51\x00'
p35
sg24
g25
sg23
Nsg26
I2
sa(dp36
g27
I0
sg29
S'\x92\x03\x00\x01\x00'
p37
sg24
g33
sg23
Nsg26
I3
sa(dp38
g27
I0
sg29
S'0\x0e\x00\x07area-51hello'
p39
sg24
g25
sg23
Nsg26
I4
sa(dp40
g27
I0
sg29
S'0\x0e\x00\x07area-51hello'
p41
sg24
g33
sg23
Nsg26
I5
sa(dp42
g27
I0
sg29
S'\xa2\x0b\x00\x03\x00\x07area-51'
p43
sg24
g25
sg23
Nsg26
I6
sassg14
S'intercept0.9109_0.9109_0.crash'
p44
s.