(dp0
S'serverpid'
p1
NsS'asanOutput'
p2
NsS'reallydead'
p3
NsS'signum'
p4
NsS'exitcode'
p5
NsS'fuzzerPos'
p6
S'honggcomm'
p7
sS'corpusData'
p8
(dp9
S'parentFilename'
p10
S'intercept0.1828_0.1376_2.pickle'
p11
sS'time'
p12
NsS'filename'
p13
S'intercept0.1828_0.1376_2.7186_0.pickle'
p14
sS'seed'
p15
S'7186803823182987314'
p16
sS'fuzzer'
p17
S'Radamsa'
p18
sS'networkData'
p19
(lp20
(dp21
S'latency'
p22
NsS'from'
p23
S'cli'
p24
sS'index'
p25
I0
sS'timeouts'
p26
I0
sS'isFuzzed'
p27
I01
sS'data'
p28
S'\x10\x11\x00\x04MQTT\x04\xff\x00<\x00\x04dvmmy'
p29
sa(dp30
g26
I0
sg28
S' \x02\x00\x00'
p31
sg23
S'srv'
p32
sg22
Nsg25
I1
sa(dp33
g22
Nsg23
g24
sg25
I2
sg26
I0
sS'isFuzzed'
p34
I01
sg28
S'\x82\x0b\x00*\x00\x06/\xf3}*\x00\x06/stttpufgff\x00stttpufgff\x00stttpufgff\x00stttpufgff\x00stttpufgff\x00stttpufgff\x00stttpufgff\x00stttpufgff\x00stttpufgff\x00stttpufgff\x00stttpufgff\x00stttpufgff\x00stttpufgff\x00stttpufgff\x00stttpufgff\x00stttpufgff\x00stttpufgff\x00stttpufgff\x00stttpufgff\x00stttpufgff\x00stttpufgff\x00stttpufgff\x00stttpufgff\x00stttpufgff\x00stttpufgff\x00stttpufgff\x00stttpufgff\x00stttpufgff\x00stttpufgff\x00stttpufgff\x00stttpufgff\x00stttpufgff\x00stttpufgff\x00stttpufgff\x00stttpufgff\x00stttpufgff\x00stttpufgff\x00stttpufgff\x00stttpufgff\x00stttpufgff\x00stttpufgff\x00stttpufgff\x00stttpufgff\x00stttpufgff\x00stttpufgff\x00stttpufgff\x00stttpufgff\x00stttpufgff\x00stttpufgff\x00stttpufgff\x00stttpufgff\x00stttpufgff\x00stttpufgff\x00stttpufgff\x00stttpufgff\x00stttpufgff\x00stttpufgff\x00stttpufgff\x00stttpufgff\x00stttpufgff\x00stttpufgff\x00stttpufgff\x00stttpufgff\x00stttpufgff\x00stttpufgff\x00stttpufgff\x00stttpufgff\x00stttpufgff\x00stttpufgff\x00stttpufgff\x00stttpufgff\x00stttpufgff\x00stttpufgff\x00stttpufgff\x00stttpufgff\x00stttpufgff\x00stttpufgff\x00stttpufgff\x00stttpufgff\x00stttpufgff\x00stttpufgff\x00stttpufgff\x00stttpufgff\x00stttpufgff\x00stttpufgff\x00stttpufgff\x00stttpufgff\x00stttpufgff\x00stttpufgff\x00stttpufgff\x00stttpufgff\x00stttpufgff\x00stttpufgff\x00stttpufgff\x00stttpufgff\x00stttpufgff\x00stttpufgff\x00stttpufgff\x00stttpufgff\x00stttpufgff\x00stttpufgff\x00stttpufgff\x00stttpufgff\x00stttpufgff\x00stttpufgff\x00stttpufgff\x00stttpufgff\x00stttpufgff\x00stttpufgff\x00stttpufgff\x00stttpufgff\x00stttpufgff\x00stttpufgff\x00stttpufgff\x00stttpufgff\x00stttpufgff\x00stttpufgff\x00stttpufgff\x00stttpufgff\x00stttpufgff\x00stttpufgff\x00stttpufgff\x00stttpufgff\x00stttpufgff\x00stttpufgff\x00stttpufgff\x00stttpufgff\x00stttpufgff\x00stttpufgff\x00stttpufgff\x00stttpufgff\x00stttpufgff\x00stttpufgff\x00stttpufgff\x00stttpufgff\x00stttpufgff\x00stttpufgff\x00stttpufgff\x00stttpufgff\x00stttpufgff\x00stttpufgff\x00stttpufgff\x00stttpufgff\x00stttpufgff\x00stttpufgff\x00stttpufgff\x00stttpufgff\x00stttpufgff\x00stttpufgff\x00stttpufgff\x00stttpufgff\x00stttpufgff\x00stttpufgff\x00stttpufgff\x00stttpufgff\x00stttpufgff\x00stttpufgff\x00stttpufgff\x00stttpufgff\x00stttpufgff\x00stttpufgff\x00stttpufgff\x00stttpufgff\x00stttpufgff\x00stttpufgff\x00stttpufgff\x00stttpufgff\x00stttpufgff\x00stttpufgff\x00stttpufgff\x00stttpufgff\x00stttpufgff\x00stttpufgff\x00stttpufgff\x00stttpufgff\x00stttpufgff\x00stttpufgff\x00stttpufgff\x00stttpufgff\x00stttpufgff\x00stttpufgff\x00stttpufgff\x00stttpufgff\x00stttpufgff\x00stttpufgff\x00stttpufgff\x00stttpufgff\x00stttpufgff\x00stttpufgff\x00stttpufgff\x00stttpufgff\x00stttpufgff\x00stttpufgff\x00stttpufgff\x00\x06/ttufgff\x00*\x00\x06/\x01\x01\x02'
p35
sa(dp36
g26
I0
sg28
S'\x92\x03\x00*\x00'
p37
sg23
g32
sg22
Nsg25
I3
sassg13
S'intercept0.1828_0.1376_2.7186_0.7186_0.crash'
p38
s.