(dp0
S'serverpid'
p1
I11514
sS'asanOutput'
p2
S'=================================================================\n==11514==ERROR: AddressSanitizer: heap-buffer-overflow on address 0x602000005fd2 at pc 0x55b58a6d5058 bp 0x7fffc9433af0 sp 0x7fffc9433ae8\nREAD of size 1 at 0x602000005fd2 thread T0\n    #0 0x55b58a6d5057 in getu16 ../../mongoose.c:10706\n    #1 0x55b58a6d5c01 in parse_mqtt ../../mongoose.c:10794\n    #2 0x55b58a6d60a6 in mqtt_handler ../../mongoose.c:10843\n    #3 0x55b58a6c4675 in mg_call ../../mongoose.c:2404\n    #4 0x55b58a6c8008 in mg_recv_tcp ../../mongoose.c:2931\n    #5 0x55b58a6c7bc8 in mg_do_recv ../../mongoose.c:2887\n    #6 0x55b58a6c7be8 in mg_if_can_recv_cb ../../mongoose.c:2893\n    #7 0x55b58a6ce601 in mg_mgr_handle_conn ../../mongoose.c:4009\n    #8 0x55b58a6cfb30 in mg_socket_if_poll ../../mongoose.c:4200\n    #9 0x55b58a6c5df5 in mg_mgr_poll ../../mongoose.c:2593\n    #10 0x55b58a6b78b2 in main /home/kali/fuzzing/victims/mongoose-6.13/examples/mqtt_broker/mqtt_broker.c:51\n    #11 0x7f669e806a86 in __libc_start_main (/lib/x86_64-linux-gnu/libc.so.6+0x21a86)\n    #12 0x55b58a6b75f9 in _start (/home/kali/fuzzing/victims/mongoose-6.13/bin/mqtt_broker-6.13-asan+0x65f9)\n\n0x602000005fd2 is located 0 bytes to the right of 2-byte region [0x602000005fd0,0x602000005fd2)\nallocated by thread T0 here:\n    #0 0x7f669eea62c0 in __interceptor_realloc (/usr/lib/x86_64-linux-gnu/libasan.so.5+0xe92c0)\n    #1 0x55b58a6bea0c in mbuf_resize ../../mongoose.c:1549\n    #2 0x55b58a6beac8 in mbuf_trim ../../mongoose.c:1563\n    #3 0x55b58a6c7fb0 in mg_recv_tcp ../../mongoose.c:2930\n    #4 0x55b58a6c7bc8 in mg_do_recv ../../mongoose.c:2887\n    #5 0x55b58a6c7be8 in mg_if_can_recv_cb ../../mongoose.c:2893\n    #6 0x55b58a6ce601 in mg_mgr_handle_conn ../../mongoose.c:4009\n    #7 0x55b58a6cfb30 in mg_socket_if_poll ../../mongoose.c:4200\n    #8 0x55b58a6c5df5 in mg_mgr_poll ../../mongoose.c:2593\n    #9 0x55b58a6b78b2 in main /home/kali/fuzzing/victims/mongoose-6.13/examples/mqtt_broker/mqtt_broker.c:51\n    #10 0x7f669e806a86 in __libc_start_main (/lib/x86_64-linux-gnu/libc.so.6+0x21a86)\n\nSUMMARY: AddressSanitizer: heap-buffer-overflow ../../mongoose.c:10706 in getu16\nShadow bytes around the buggy address:\n  0x0c047fff8ba0: fa fa fd fa fa fa fd fd fa fa fd fd fa fa fd fd\n  0x0c047fff8bb0: fa fa fd fa fa fa fd fa fa fa fd fd fa fa fd fd\n  0x0c047fff8bc0: fa fa fd fa fa fa fd fa fa fa fd fa fa fa fd fd\n  0x0c047fff8bd0: fa fa fd fd fa fa fd fd fa fa 00 00 fa fa fd fa\n  0x0c047fff8be0: fa fa fd fa fa fa fd fd fa fa 00 00 fa fa 00 fa\n=>0x0c047fff8bf0: fa fa fd fa fa fa fd fa fa fa[02]fa fa fa fa fa\n  0x0c047fff8c00: fa fa fa fa fa fa fa fa fa fa fa fa fa fa fa fa\n  0x0c047fff8c10: fa fa fa fa fa fa fa fa fa fa fa fa fa fa fa fa\n  0x0c047fff8c20: fa fa fa fa fa fa fa fa fa fa fa fa fa fa fa fa\n  0x0c047fff8c30: fa fa fa fa fa fa fa fa fa fa fa fa fa fa fa fa\n  0x0c047fff8c40: fa fa fa fa fa fa fa fa fa fa fa fa fa fa fa fa\nShadow byte legend (one shadow byte represents 8 application bytes):\n  Addressable:           00\n  Partially addressable: 01 02 03 04 05 06 07 \n  Heap left redzone:       fa\n  Freed heap region:       fd\n  Stack left redzone:      f1\n  Stack mid redzone:       f2\n  Stack right redzone:     f3\n  Stack after return:      f5\n  Stack use after scope:   f8\n  Global redzone:          f9\n  Global init order:       f6\n  Poisoned by user:        f7\n  Container overflow:      fc\n  Array cookie:            ac\n  Intra object redzone:    bb\n  ASan internal:           fe\n  Left alloca redzone:     ca\n  Right alloca redzone:    cb\n==11514==ABORTING\n'
p3
sS'reallydead'
p4
I-6
sS'signum'
p5
I0
sS'exitcode'
p6
I0
sS'fuzzerPos'
p7
S'B'
p8
sS'corpusData'
p9
(dp10
S'parentFilename'
p11
S'intercept0.pickle'
p12
sS'time'
p13
NsS'filename'
p14
S'intercept0.3222_4.pickle'
p15
sS'seed'
p16
S'3222119168279289338'
p17
sS'fuzzer'
p18
S'Radamsa'
p19
sS'networkData'
p20
(lp21
(dp22
S'timeouts'
p23
I0
sS'data'
p24
S'\x10\x14\x00\x04MQTT\x04\x02\x00<\x00\x08mqtt-spy'
p25
sS'from'
p26
S'cli'
p27
sS'latency'
p28
NsS'index'
p29
I0
sa(dp30
g23
I0
sg24
S' \x02\x00\x00'
p31
sg26
S'srv'
p32
sg28
F0.0001289844512939453
sg29
I1
sa(dp33
g23
I0
sg24
S'\x82\x0c\x00\x01\x00\x07area-51\x00'
p34
sg26
g27
sg28
Nsg29
I2
sa(dp35
g23
I0
sg24
S'\x92\x03\x00\x01\x00'
p36
sg26
g32
sg28
F0.000125885009765625
sg29
I3
sa(dp37
g28
Nsg26
g27
sg29
I4
sg23
I0
sS'isFuzzed'
p38
I01
sg24
S'o\x00'
p39
sa(dp40
g23
I1
sg24
S'0\x0e\x00\x07area-51hello'
p41
sg26
g32
sg28
Nsg29
I5
sa(dp42
g23
I0
sg24
S'\xa2\x0b\x00\x03\x00\x07area-51'
p43
sg26
g27
sg28
Nsg29
I6
sassg14
S'intercept0.3222_4.3222_4.crash'
p44
s.