(dp0
S'serverpid'
p1
I6817
sS'asanOutput'
p2
S'=================================================================\n==6817==ERROR: AddressSanitizer: heap-buffer-overflow on address 0x602000005e80 at pc 0x55a45f3a40a4 bp 0x7ffe0e13d400 sp 0x7ffe0e13d3f8\nREAD of size 1 at 0x602000005e80 thread T0\n    #0 0x55a45f3a40a3 in getu16 ../../mongoose.c:10706\n    #1 0x55a45f3a40c9 in scanto ../../mongoose.c:10710\n    #2 0x55a45f3a4627 in parse_mqtt ../../mongoose.c:10754\n    #3 0x55a45f3a50a6 in mqtt_handler ../../mongoose.c:10843\n    #4 0x55a45f393675 in mg_call ../../mongoose.c:2404\n    #5 0x55a45f397008 in mg_recv_tcp ../../mongoose.c:2931\n    #6 0x55a45f396bc8 in mg_do_recv ../../mongoose.c:2887\n    #7 0x55a45f396be8 in mg_if_can_recv_cb ../../mongoose.c:2893\n    #8 0x55a45f39d601 in mg_mgr_handle_conn ../../mongoose.c:4009\n    #9 0x55a45f39eb30 in mg_socket_if_poll ../../mongoose.c:4200\n    #10 0x55a45f394df5 in mg_mgr_poll ../../mongoose.c:2593\n    #11 0x55a45f3868b2 in main /home/kali/fuzzing/victims/mongoose-6.13/examples/mqtt_broker/mqtt_broker.c:51\n    #12 0x7f4f76b0ea86 in __libc_start_main (/lib/x86_64-linux-gnu/libc.so.6+0x21a86)\n    #13 0x55a45f3865f9 in _start (/home/kali/fuzzing/victims/mongoose-6.13/bin/mqtt_broker-6.13-asan+0x65f9)\n\n0x602000005e80 is located 0 bytes to the right of 16-byte region [0x602000005e70,0x602000005e80)\nallocated by thread T0 here:\n    #0 0x7f4f771ae2c0 in __interceptor_realloc (/usr/lib/x86_64-linux-gnu/libasan.so.5+0xe92c0)\n    #1 0x55a45f38da0c in mbuf_resize ../../mongoose.c:1549\n    #2 0x55a45f38dac8 in mbuf_trim ../../mongoose.c:1563\n    #3 0x55a45f396fb0 in mg_recv_tcp ../../mongoose.c:2930\n    #4 0x55a45f396bc8 in mg_do_recv ../../mongoose.c:2887\n    #5 0x55a45f396be8 in mg_if_can_recv_cb ../../mongoose.c:2893\n    #6 0x55a45f39d601 in mg_mgr_handle_conn ../../mongoose.c:4009\n    #7 0x55a45f39eb30 in mg_socket_if_poll ../../mongoose.c:4200\n    #8 0x55a45f394df5 in mg_mgr_poll ../../mongoose.c:2593\n    #9 0x55a45f3868b2 in main /home/kali/fuzzing/victims/mongoose-6.13/examples/mqtt_broker/mqtt_broker.c:51\n    #10 0x7f4f76b0ea86 in __libc_start_main (/lib/x86_64-linux-gnu/libc.so.6+0x21a86)\n\nSUMMARY: AddressSanitizer: heap-buffer-overflow ../../mongoose.c:10706 in getu16\nShadow bytes around the buggy address:\n  0x0c047fff8b80: fa fa fd fa fa fa fd fa fa fa fd fa fa fa fd fd\n  0x0c047fff8b90: fa fa fd fa fa fa fd fa fa fa fd fd fa fa fd fd\n  0x0c047fff8ba0: fa fa fd fa fa fa fd fa fa fa fd fd fa fa 00 00\n  0x0c047fff8bb0: fa fa fd fa fa fa fd fa fa fa fd fd fa fa 00 00\n  0x0c047fff8bc0: fa fa 00 fa fa fa fd fa fa fa fd fa fa fa 00 00\n=>0x0c047fff8bd0:[fa]fa fa fa fa fa fa fa fa fa fa fa fa fa fa fa\n  0x0c047fff8be0: fa fa fa fa fa fa fa fa fa fa fa fa fa fa fa fa\n  0x0c047fff8bf0: fa fa fa fa fa fa fa fa fa fa fa fa fa fa fa fa\n  0x0c047fff8c00: fa fa fa fa fa fa fa fa fa fa fa fa fa fa fa fa\n  0x0c047fff8c10: fa fa fa fa fa fa fa fa fa fa fa fa fa fa fa fa\n  0x0c047fff8c20: fa fa fa fa fa fa fa fa fa fa fa fa fa fa fa fa\nShadow byte legend (one shadow byte represents 8 application bytes):\n  Addressable:           00\n  Partially addressable: 01 02 03 04 05 06 07 \n  Heap left redzone:       fa\n  Freed heap region:       fd\n  Stack left redzone:      f1\n  Stack mid redzone:       f2\n  Stack right redzone:     f3\n  Stack after return:      f5\n  Stack use after scope:   f8\n  Global redzone:          f9\n  Global init order:       f6\n  Poisoned by user:        f7\n  Container overflow:      fc\n  Array cookie:            ac\n  Intra object redzone:    bb\n  ASan internal:           fe\n  Left alloca redzone:     ca\n  Right alloca redzone:    cb\n==6817==ABORTING\n'
p3
sS'reallydead'
p4
I-6
sS'signum'
p5
I0
sS'exitcode'
p6
I0
sS'fuzzerPos'
p7
S'C'
p8
sS'corpusData'
p9
(dp10
S'parentFilename'
p11
S'intercept0.pickle'
p12
sS'time'
p13
NsS'filename'
p14
S'intercept0.1092_0.pickle'
p15
sS'seed'
p16
S'1092452870658478506'
p17
sS'fuzzer'
p18
S'Radamsa'
p19
sS'networkData'
p20
(lp21
(dp22
S'latency'
p23
NsS'from'
p24
S'cli'
p25
sS'index'
p26
I0
sS'timeouts'
p27
I0
sS'isFuzzed'
p28
I01
sS'data'
p29
S'\x10\x14\x00\x04MQTT\x04\x02\xc0\x80<\x00\x08mqtt-spy'
p30
sa(dp31
g27
I1
sg29
S' \x02\x00\x00'
p32
sg24
S'srv'
p33
sg23
Nsg26
I1
sa(dp34
g27
I0
sg29
S'\x82\x0c\x00\x01\x00\x07area-51\x00'
p35
sg24
g25
sg23
Nsg26
I2
sa(dp36
g27
I0
sg29
S'\x92\x03\x00\x01\x00'
p37
sg24
g33
sg23
Nsg26
I3
sa(dp38
g27
I0
sg29
S'0\x0e\x00\x07area-51hello'
p39
sg24
g25
sg23
Nsg26
I4
sa(dp40
g27
I0
sg29
S'0\x0e\x00\x07area-51hello'
p41
sg24
g33
sg23
Nsg26
I5
sa(dp42
g27
I0
sg29
S'\xa2\x0b\x00\x03\x00\x07area-51'
p43
sg24
g25
sg23
Nsg26
I6
sassg14
S'intercept0.1092_0.1092_0.crash'
p44
s.