(dp0
S'serverpid'
p1
I8936
sS'asanOutput'
p2
S'=================================================================\n==8936==ERROR: AddressSanitizer: heap-buffer-overflow on address 0x603000000a46 at pc 0x561ace4bc0a4 bp 0x7fff4f52ee60 sp 0x7fff4f52ee58\nREAD of size 1 at 0x603000000a46 thread T0\n    #0 0x561ace4bc0a3 in getu16 ../../mongoose.c:10706\n    #1 0x561ace4bc0c9 in scanto ../../mongoose.c:10710\n    #2 0x561ace4bc6b4 in parse_mqtt ../../mongoose.c:10758\n    #3 0x561ace4bd0a6 in mqtt_handler ../../mongoose.c:10843\n    #4 0x561ace4ab675 in mg_call ../../mongoose.c:2404\n    #5 0x561ace4af008 in mg_recv_tcp ../../mongoose.c:2931\n    #6 0x561ace4aebc8 in mg_do_recv ../../mongoose.c:2887\n    #7 0x561ace4aebe8 in mg_if_can_recv_cb ../../mongoose.c:2893\n    #8 0x561ace4b5601 in mg_mgr_handle_conn ../../mongoose.c:4009\n    #9 0x561ace4b6b30 in mg_socket_if_poll ../../mongoose.c:4200\n    #10 0x561ace4acdf5 in mg_mgr_poll ../../mongoose.c:2593\n    #11 0x561ace49e8b2 in main /root/fuzzing/testbeds/mongoose-6.13/examples/mqtt_broker/mqtt_broker.c:51\n    #12 0x7f1210d69b16 in __libc_start_main ../csu/libc-start.c:310\n    #13 0x561ace49e5f9 in _start (/root/fuzzing/testbeds/mongoose-6.13/bin/mqtt_broker-asan+0x65f9)\n\n0x603000000a46 is located 0 bytes to the right of 22-byte region [0x603000000a30,0x603000000a46)\nallocated by thread T0 here:\n    #0 0x7f121100e2c0 in __interceptor_realloc (/usr/lib/x86_64-linux-gnu/libasan.so.5+0xe92c0)\n    #1 0x561ace4a5a0c in mbuf_resize ../../mongoose.c:1549\n    #2 0x561ace4a5ac8 in mbuf_trim ../../mongoose.c:1563\n    #3 0x561ace4aefb0 in mg_recv_tcp ../../mongoose.c:2930\n    #4 0x561ace4aebc8 in mg_do_recv ../../mongoose.c:2887\n    #5 0x561ace4aebe8 in mg_if_can_recv_cb ../../mongoose.c:2893\n    #6 0x561ace4b5601 in mg_mgr_handle_conn ../../mongoose.c:4009\n    #7 0x561ace4b6b30 in mg_socket_if_poll ../../mongoose.c:4200\n    #8 0x561ace4acdf5 in mg_mgr_poll ../../mongoose.c:2593\n    #9 0x561ace49e8b2 in main /root/fuzzing/testbeds/mongoose-6.13/examples/mqtt_broker/mqtt_broker.c:51\n    #10 0x7f1210d69b16 in __libc_start_main ../csu/libc-start.c:310\n\nSUMMARY: AddressSanitizer: heap-buffer-overflow ../../mongoose.c:10706 in getu16\nShadow bytes around the buggy address:\n  0x0c067fff80f0: fa fa fd fd fd fa fa fa fd fd fd fd fa fa fd fd\n  0x0c067fff8100: fd fd fa fa fd fd fd fa fa fa fd fd fd fa fa fa\n  0x0c067fff8110: fd fd fd fa fa fa fd fd fd fa fa fa fd fd fd fa\n  0x0c067fff8120: fa fa fd fd fd fa fa fa fd fd fd fa fa fa fd fd\n  0x0c067fff8130: fd fa fa fa fd fd fd fa fa fa fd fd fd fa fa fa\n=>0x0c067fff8140: fd fd fd fa fa fa 00 00[06]fa fa fa fa fa fa fa\n  0x0c067fff8150: fa fa fa fa fa fa fa fa fa fa fa fa fa fa fa fa\n  0x0c067fff8160: fa fa fa fa fa fa fa fa fa fa fa fa fa fa fa fa\n  0x0c067fff8170: fa fa fa fa fa fa fa fa fa fa fa fa fa fa fa fa\n  0x0c067fff8180: fa fa fa fa fa fa fa fa fa fa fa fa fa fa fa fa\n  0x0c067fff8190: fa fa fa fa fa fa fa fa fa fa fa fa fa fa fa fa\nShadow byte legend (one shadow byte represents 8 application bytes):\n  Addressable:           00\n  Partially addressable: 01 02 03 04 05 06 07 \n  Heap left redzone:       fa\n  Freed heap region:       fd\n  Stack left redzone:      f1\n  Stack mid redzone:       f2\n  Stack right redzone:     f3\n  Stack after return:      f5\n  Stack use after scope:   f8\n  Global redzone:          f9\n  Global init order:       f6\n  Poisoned by user:        f7\n  Container overflow:      fc\n  Array cookie:            ac\n  Intra object redzone:    bb\n  ASan internal:           fe\n  Left alloca redzone:     ca\n  Right alloca redzone:    cb\n==8936==ABORTING\n'
p3
sS'reallydead'
p4
I-6
sS'signum'
p5
I0
sS'exitcode'
p6
I0
sS'fuzzerPos'
p7
S'B'
p8
sS'corpusData'
p9
(dp10
S'parentFilename'
p11
S'intercept0.pickle'
p12
sS'time'
p13
NsS'filename'
p14
S'intercept0.1047_2.pickle'
p15
sS'seed'
p16
S'10478307222551557371'
p17
sS'fuzzer'
p18
S'Radamsa'
p19
sS'networkData'
p20
(lp21
(dp22
S'timeouts'
p23
I0
sS'data'
p24
S'\x10\x14\x00\x04MQTT\x04\x02\x00<\x00\x08mqtt-spy'
p25
sS'from'
p26
S'cli'
p27
sS'latency'
p28
NsS'index'
p29
I0
sa(dp30
g23
I1
sg24
S' \x02\x00\x00'
p31
sg26
S'srv'
p32
sg28
Nsg29
I1
sa(dp33
g28
Nsg26
g27
sg29
I2
sg23
I0
sS'isFuzzed'
p34
I01
sg24
S'\x82\x0c\x00\x01\x00\x07area-2242205726286581781693838777\x00'
p35
sa(dp36
g23
I0
sg24
S'\x92\x03\x00\x01\x00'
p37
sg26
g32
sg28
Nsg29
I3
sa(dp38
g23
I0
sg24
S'0\x0e\x00\x07area-51hello'
p39
sg26
g27
sg28
Nsg29
I4
sa(dp40
g23
I0
sg24
S'0\x0e\x00\x07area-51hello'
p41
sg26
g32
sg28
Nsg29
I5
sa(dp42
g23
I0
sg24
S'\xa2\x0b\x00\x03\x00\x07area-51'
p43
sg26
g27
sg28
Nsg29
I6
sassg14
S'intercept0.1047_2.1047_2.crash'
p44
s.