(dp0
S'serverpid'
p1
I13845
sS'asanOutput'
p2
S'=================================================================\n==13845==ERROR: AddressSanitizer: heap-buffer-overflow on address 0x602000093bb2 at pc 0x5625cfed9058 bp 0x7ffd49f337c0 sp 0x7ffd49f337b8\nREAD of size 1 at 0x602000093bb2 thread T0\n    #0 0x5625cfed9057 in getu16 ../../mongoose.c:10706\n    #1 0x5625cfed90c9 in scanto ../../mongoose.c:10710\n    #2 0x5625cfed9c62 in parse_mqtt ../../mongoose.c:10797\n    #3 0x5625cfeda0a6 in mqtt_handler ../../mongoose.c:10843\n    #4 0x5625cfec8675 in mg_call ../../mongoose.c:2404\n    #5 0x5625cfecc008 in mg_recv_tcp ../../mongoose.c:2931\n    #6 0x5625cfecbbc8 in mg_do_recv ../../mongoose.c:2887\n    #7 0x5625cfecbbe8 in mg_if_can_recv_cb ../../mongoose.c:2893\n    #8 0x5625cfed2601 in mg_mgr_handle_conn ../../mongoose.c:4009\n    #9 0x5625cfed3b30 in mg_socket_if_poll ../../mongoose.c:4200\n    #10 0x5625cfec9df5 in mg_mgr_poll ../../mongoose.c:2593\n    #11 0x5625cfebb8b2 in main /root/fuzzing/testbeds/mongoose-6.13/examples/mqtt_broker/mqtt_broker.c:51\n    #12 0x2ae16b99bb16 in __libc_start_main ../csu/libc-start.c:310\n    #13 0x5625cfebb5f9 in _start (/root/fuzzing/testbeds/mongoose-6.13/bin/mqtt_broker-asan+0x65f9)\n\n0x602000093bb2 is located 0 bytes to the right of 2-byte region [0x602000093bb0,0x602000093bb2)\nallocated by thread T0 here:\n    #0 0x2ae16ac7c2c0 in __interceptor_realloc (/usr/lib/x86_64-linux-gnu/libasan.so.5+0xe92c0)\n    #1 0x5625cfec2a0c in mbuf_resize ../../mongoose.c:1549\n    #2 0x5625cfec2ac8 in mbuf_trim ../../mongoose.c:1563\n    #3 0x5625cfecbfb0 in mg_recv_tcp ../../mongoose.c:2930\n    #4 0x5625cfecbbc8 in mg_do_recv ../../mongoose.c:2887\n    #5 0x5625cfecbbe8 in mg_if_can_recv_cb ../../mongoose.c:2893\n    #6 0x5625cfed2601 in mg_mgr_handle_conn ../../mongoose.c:4009\n    #7 0x5625cfed3b30 in mg_socket_if_poll ../../mongoose.c:4200\n    #8 0x5625cfec9df5 in mg_mgr_poll ../../mongoose.c:2593\n    #9 0x5625cfebb8b2 in main /root/fuzzing/testbeds/mongoose-6.13/examples/mqtt_broker/mqtt_broker.c:51\n    #10 0x2ae16b99bb16 in __libc_start_main ../csu/libc-start.c:310\n\nSUMMARY: AddressSanitizer: heap-buffer-overflow ../../mongoose.c:10706 in getu16\nShadow bytes around the buggy address:\n  0x0c048000a720: fa fa fd fa fa fa fd fa fa fa fd fa fa fa fd fd\n  0x0c048000a730: fa fa fd fd fa fa fd fa fa fa fd fa fa fa fd fd\n  0x0c048000a740: fa fa fd fd fa fa fd fa fa fa fd fa fa fa fd fa\n  0x0c048000a750: fa fa fd fd fa fa fd fa fa fa fd fa fa fa fd fd\n  0x0c048000a760: fa fa fd fa fa fa 00 00 fa fa fd fa fa fa fd fa\n=>0x0c048000a770: fa fa fd fa fa fa[02]fa fa fa fa fa fa fa fa fa\n  0x0c048000a780: fa fa fa fa fa fa fa fa fa fa fa fa fa fa fa fa\n  0x0c048000a790: fa fa fa fa fa fa fa fa fa fa fa fa fa fa fa fa\n  0x0c048000a7a0: fa fa fa fa fa fa fa fa fa fa fa fa fa fa fa fa\n  0x0c048000a7b0: fa fa fa fa fa fa fa fa fa fa fa fa fa fa fa fa\n  0x0c048000a7c0: fa fa fa fa fa fa fa fa fa fa fa fa fa fa fa fa\nShadow byte legend (one shadow byte represents 8 application bytes):\n  Addressable:           00\n  Partially addressable: 01 02 03 04 05 06 07 \n  Heap left redzone:       fa\n  Freed heap region:       fd\n  Stack left redzone:      f1\n  Stack mid redzone:       f2\n  Stack right redzone:     f3\n  Stack after return:      f5\n  Stack use after scope:   f8\n  Global redzone:          f9\n  Global init order:       f6\n  Poisoned by user:        f7\n  Container overflow:      fc\n  Array cookie:            ac\n  Intra object redzone:    bb\n  ASan internal:           fe\n  Left alloca redzone:     ca\n  Right alloca redzone:    cb\n==13845==ABORTING\n'
p3
sS'reallydead'
p4
I-6
sS'signum'
p5
I0
sS'exitcode'
p6
I0
sS'fuzzerPos'
p7
S'B'
p8
sS'corpusData'
p9
(dp10
S'parentFilename'
p11
S'intercept0.pickle'
p12
sS'time'
p13
NsS'filename'
p14
S'intercept0.1855_6.pickle'
p15
sS'seed'
p16
S'1855688451247624230'
p17
sS'fuzzer'
p18
S'Radamsa'
p19
sS'networkData'
p20
(lp21
(dp22
S'timeouts'
p23
I0
sS'data'
p24
S'\x10\x14\x00\x04MQTT\x04\x02\x00<\x00\x08mqtt-spy'
p25
sS'from'
p26
S'cli'
p27
sS'latency'
p28
NsS'index'
p29
I0
sa(dp30
g23
I1
sg24
S' \x02\x00\x00'
p31
sg26
S'srv'
p32
sg28
Nsg29
I1
sa(dp33
g23
I0
sg24
S'\x82\x0c\x00\x01\x00\x07area-51\x00'
p34
sg26
g27
sg28
Nsg29
I2
sa(dp35
g23
I0
sg24
S'\x92\x03\x00\x01\x00'
p36
sg26
g32
sg28
Nsg29
I3
sa(dp37
g23
I0
sg24
S'0\x0e\x00\x07area-51hello'
p38
sg26
g27
sg28
Nsg29
I4
sa(dp39
g23
I0
sg24
S'0\x0e\x00\x07area-51hello'
p40
sg26
g32
sg28
Nsg29
I5
sa(dp41
g28
Nsg26
g27
sg29
I6
sg23
I0
sS'isFuzzed'
p42
I01
sg24
S'\x0b\x00\x03\x00\x07are\xa2\x0b\x00\x03\x00\x07area-192284'
p43
sassg14
S'intercept0.1855_6.1855_6.crash'
p44
s.