(dp0
S'serverpid'
p1
I10525
sS'asanOutput'
p2
S'=================================================================\n==10525==ERROR: AddressSanitizer: SEGV on unknown address 0x619000015bf6 (pc 0x562ef002319d bp 0x7ffe5539bf50 sp 0x7ffe5539bf30 T0)\n==10525==The signal is caused by a READ memory access.\n    #0 0x562ef002319c in getu16 ../../mongoose.c:9823\n    #1 0x562ef0023d4e in parse_mqtt ../../mongoose.c:9902\n    #2 0x562ef0024049 in mqtt_handler ../../mongoose.c:9939\n    #3 0x562ef000f8a1 in mg_call ../../mongoose.c:2037\n    #4 0x562ef001324f in mg_recv_common ../../mongoose.c:2512\n    #5 0x562ef00132cb in mg_if_recv_tcp_cb ../../mongoose.c:2516\n    #6 0x562ef0019427 in mg_handle_tcp_read ../../mongoose.c:3388\n    #7 0x562ef001a3a2 in mg_mgr_handle_conn ../../mongoose.c:3513\n    #8 0x562ef001b959 in mg_socket_if_poll ../../mongoose.c:3705\n    #9 0x562ef0010fa8 in mg_mgr_poll ../../mongoose.c:2231\n    #10 0x562ef0004a3a in main /home/kali/fuzzing/victims/mongoose-6.8/examples/mqtt_broker/mqtt_broker.c:43\n    #11 0x7f8220461a86 in __libc_start_main (/lib/x86_64-linux-gnu/libc.so.6+0x21a86)\n    #12 0x562ef00047c9 in _start (/home/kali/fuzzing/victims/mongoose-6.8/bin/mqtt_broker-asan+0x77c9)\n\nAddressSanitizer can not provide additional info.\nSUMMARY: AddressSanitizer: SEGV ../../mongoose.c:9823 in getu16\n==10525==ABORTING\n'
p3
sS'reallydead'
p4
I-6
sS'signum'
p5
I0
sS'exitcode'
p6
I0
sS'fuzzerPos'
p7
S'C'
p8
sS'corpusData'
p9
(dp10
S'parentFilename'
p11
S'intercept0.pickle'
p12
sS'time'
p13
NsS'filename'
p14
S'intercept0.7146_4.pickle'
p15
sS'seed'
p16
S'7146021293115944240'
p17
sS'fuzzer'
p18
S'Radamsa'
p19
sS'networkData'
p20
(lp21
(dp22
S'timeouts'
p23
I0
sS'data'
p24
S'\x10\x14\x00\x04MQTT\x04\x02\x00<\x00\x08mqtt-spy'
p25
sS'from'
p26
S'cli'
p27
sS'latency'
p28
NsS'index'
p29
I0
sa(dp30
g23
I0
sg24
S' \x02\x00\x00'
p31
sg26
S'srv'
p32
sg28
F0.00021600723266601562
sg29
I1
sa(dp33
g23
I0
sg24
S'\x82\x0c\x00\x01\x00\x07area-51\x00'
p34
sg26
g27
sg28
Nsg29
I2
sa(dp35
g23
I0
sg24
S'\x92\x03\x00\x01\x00'
p36
sg26
g32
sg28
F0.00021505355834960938
sg29
I3
sa(dp37
g28
Nsg26
g27
sg29
I4
sg23
I0
sS'isFuzzed'
p38
I01
sg24
S'21area-51hea-514748364647\x0e\x00\x0747\x0e\x009223372036854775808\x0e\x00\xcd\x07lo'
p39
sa(dp40
g23
I1
sg24
S'0\x0e\x00\x07area-51hello'
p41
sg26
g32
sg28
Nsg29
I5
sa(dp42
g23
I0
sg24
S'\xa2\x0b\x00\x03\x00\x07area-51'
p43
sg26
g27
sg28
Nsg29
I6
sassg14
S'intercept0.7146_4.7146_4.crash'
p44
s.