(dp0
S'serverpid'
p1
I4089
sS'asanOutput'
p2
S'=================================================================\n==4089==ERROR: AddressSanitizer: heap-buffer-overflow on address 0x602000000d7e at pc 0x5632356d4e6f bp 0x7ffce8a97420 sp 0x7ffce8a97418\nREAD of size 1 at 0x602000000d7e thread T0\n    #0 0x5632356d4e6e in mg_mqtt_next_subscribe_topic ../../mongoose.c:11082\n    #1 0x5632356d6160 in mg_mqtt_broker_handle_subscribe ../../mongoose.c:11265\n    #2 0x5632356d6e7f in mg_mqtt_broker ../../mongoose.c:11354\n    #3 0x5632356b46f8 in ev_handler /root/fuzzing/testbeds/mongoose-6.13/examples/mqtt_broker/mqtt_broker.c:25\n    #4 0x5632356d33ae in mqtt_handler ../../mongoose.c:10867\n    #5 0x5632356c1675 in mg_call ../../mongoose.c:2404\n    #6 0x5632356c5008 in mg_recv_tcp ../../mongoose.c:2931\n    #7 0x5632356c4bc8 in mg_do_recv ../../mongoose.c:2887\n    #8 0x5632356c4be8 in mg_if_can_recv_cb ../../mongoose.c:2893\n    #9 0x5632356cb601 in mg_mgr_handle_conn ../../mongoose.c:4009\n    #10 0x5632356ccb30 in mg_socket_if_poll ../../mongoose.c:4200\n    #11 0x5632356c2df5 in mg_mgr_poll ../../mongoose.c:2593\n    #12 0x5632356b48b2 in main /root/fuzzing/testbeds/mongoose-6.13/examples/mqtt_broker/mqtt_broker.c:51\n    #13 0x7f697eb37b16 in __libc_start_main ../csu/libc-start.c:310\n    #14 0x5632356b45f9 in _start (/root/fuzzing/testbeds/mongoose-6.13/bin/mqtt_broker-asan+0x65f9)\n\n0x602000000d7e is located 0 bytes to the right of 14-byte region [0x602000000d70,0x602000000d7e)\nallocated by thread T0 here:\n    #0 0x7f697eddc2c0 in __interceptor_realloc (/usr/lib/x86_64-linux-gnu/libasan.so.5+0xe92c0)\n    #1 0x5632356bba0c in mbuf_resize ../../mongoose.c:1549\n    #2 0x5632356bbac8 in mbuf_trim ../../mongoose.c:1563\n    #3 0x5632356c4fb0 in mg_recv_tcp ../../mongoose.c:2930\n    #4 0x5632356c4bc8 in mg_do_recv ../../mongoose.c:2887\n    #5 0x5632356c4be8 in mg_if_can_recv_cb ../../mongoose.c:2893\n    #6 0x5632356cb601 in mg_mgr_handle_conn ../../mongoose.c:4009\n    #7 0x5632356ccb30 in mg_socket_if_poll ../../mongoose.c:4200\n    #8 0x5632356c2df5 in mg_mgr_poll ../../mongoose.c:2593\n    #9 0x5632356b48b2 in main /root/fuzzing/testbeds/mongoose-6.13/examples/mqtt_broker/mqtt_broker.c:51\n    #10 0x7f697eb37b16 in __libc_start_main ../csu/libc-start.c:310\n\nSUMMARY: AddressSanitizer: heap-buffer-overflow ../../mongoose.c:11082 in mg_mqtt_next_subscribe_topic\nShadow bytes around the buggy address:\n  0x0c047fff8150: fa fa fd fa fa fa fd fa fa fa fd fd fa fa fd fa\n  0x0c047fff8160: fa fa fd fa fa fa fd fd fa fa fd fa fa fa fd fa\n  0x0c047fff8170: fa fa fd fd fa fa fd fd fa fa fd fa fa fa fd fa\n  0x0c047fff8180: fa fa fd fa fa fa fd fd fa fa fd fd fa fa fd fa\n  0x0c047fff8190: fa fa fd fa fa fa fd fd fa fa fd fa fa fa fd fd\n=>0x0c047fff81a0: fa fa 00 00 fa fa fd fa fa fa fd fa fa fa 00[06]\n  0x0c047fff81b0: fa fa fa fa fa fa fa fa fa fa fa fa fa fa fa fa\n  0x0c047fff81c0: fa fa fa fa fa fa fa fa fa fa fa fa fa fa fa fa\n  0x0c047fff81d0: fa fa fa fa fa fa fa fa fa fa fa fa fa fa fa fa\n  0x0c047fff81e0: fa fa fa fa fa fa fa fa fa fa fa fa fa fa fa fa\n  0x0c047fff81f0: fa fa fa fa fa fa fa fa fa fa fa fa fa fa fa fa\nShadow byte legend (one shadow byte represents 8 application bytes):\n  Addressable:           00\n  Partially addressable: 01 02 03 04 05 06 07 \n  Heap left redzone:       fa\n  Freed heap region:       fd\n  Stack left redzone:      f1\n  Stack mid redzone:       f2\n  Stack right redzone:     f3\n  Stack after return:      f5\n  Stack use after scope:   f8\n  Global redzone:          f9\n  Global init order:       f6\n  Poisoned by user:        f7\n  Container overflow:      fc\n  Array cookie:            ac\n  Intra object redzone:    bb\n  ASan internal:           fe\n  Left alloca redzone:     ca\n  Right alloca redzone:    cb\n==4089==ABORTING\n'
p3
sS'reallydead'
p4
I-6
sS'signum'
p5
I0
sS'exitcode'
p6
I0
sS'fuzzerPos'
p7
S'B'
p8
sS'corpusData'
p9
(dp10
S'parentFilename'
p11
S'intercept0.pickle'
p12
sS'time'
p13
NsS'filename'
p14
S'intercept0.8086_0.pickle'
p15
sS'seed'
p16
S'8086249375521264636'
p17
sS'fuzzer'
p18
S'Radamsa'
p19
sS'networkData'
p20
(lp21
(dp22
S'latency'
p23
NsS'from'
p24
S'cli'
p25
sS'index'
p26
I0
sS'timeouts'
p27
I0
sS'isFuzzed'
p28
I01
sS'data'
p29
S'\x10\x14\x00\x04MQyq\x02\x04\xa0\x00TT<\xf3s'
p30
sa(dp31
g27
I1
sg29
S' \x02\x00\x00'
p32
sg24
S'srv'
p33
sg23
Nsg26
I1
sa(dp34
g27
I0
sg29
S'\x82\x0c\x00\x01\x00\x07area-51\x00'
p35
sg24
g25
sg23
Nsg26
I2
sa(dp36
g27
I0
sg29
S'\x92\x03\x00\x01\x00'
p37
sg24
g33
sg23
Nsg26
I3
sa(dp38
g27
I0
sg29
S'0\x0e\x00\x07area-51hello'
p39
sg24
g25
sg23
Nsg26
I4
sa(dp40
g27
I0
sg29
S'0\x0e\x00\x07area-51hello'
p41
sg24
g33
sg23
Nsg26
I5
sa(dp42
g27
I0
sg29
S'\xa2\x0b\x00\x03\x00\x07area-51'
p43
sg24
g25
sg23
Nsg26
I6
sassg14
S'intercept0.8086_0.8086_0.crash'
p44
s.