(dp0
S'serverpid'
p1
I17242
sS'asanOutput'
p2
S'=================================================================\n==17242==ERROR: AddressSanitizer: heap-buffer-overflow on address 0x602000007eff at pc 0x564b3782de6f bp 0x7fff443e3e40 sp 0x7fff443e3e38\nREAD of size 1 at 0x602000007eff thread T0\n    #0 0x564b3782de6e in mg_mqtt_next_subscribe_topic ../../mongoose.c:11082\n    #1 0x564b3782f160 in mg_mqtt_broker_handle_subscribe ../../mongoose.c:11265\n    #2 0x564b3782fe7f in mg_mqtt_broker ../../mongoose.c:11354\n    #3 0x564b3780d6f8 in ev_handler /home/kali/fuzzing/victims/mongoose-6.13/examples/mqtt_broker/mqtt_broker.c:25\n    #4 0x564b3782c3ae in mqtt_handler ../../mongoose.c:10867\n    #5 0x564b3781a675 in mg_call ../../mongoose.c:2404\n    #6 0x564b3781e008 in mg_recv_tcp ../../mongoose.c:2931\n    #7 0x564b3781dbc8 in mg_do_recv ../../mongoose.c:2887\n    #8 0x564b3781dbe8 in mg_if_can_recv_cb ../../mongoose.c:2893\n    #9 0x564b37824601 in mg_mgr_handle_conn ../../mongoose.c:4009\n    #10 0x564b37825b30 in mg_socket_if_poll ../../mongoose.c:4200\n    #11 0x564b3781bdf5 in mg_mgr_poll ../../mongoose.c:2593\n    #12 0x564b3780d8b2 in main /home/kali/fuzzing/victims/mongoose-6.13/examples/mqtt_broker/mqtt_broker.c:51\n    #13 0x7f51e4d03a86 in __libc_start_main (/lib/x86_64-linux-gnu/libc.so.6+0x21a86)\n    #14 0x564b3780d5f9 in _start (/home/kali/fuzzing/victims/mongoose-6.13/bin/mqtt_broker-6.13-asan+0x65f9)\n\n0x602000007eff is located 0 bytes to the right of 15-byte region [0x602000007ef0,0x602000007eff)\nallocated by thread T0 here:\n    #0 0x7f51e53a32c0 in __interceptor_realloc (/usr/lib/x86_64-linux-gnu/libasan.so.5+0xe92c0)\n    #1 0x564b37814a0c in mbuf_resize ../../mongoose.c:1549\n    #2 0x564b37814ac8 in mbuf_trim ../../mongoose.c:1563\n    #3 0x564b3781dfb0 in mg_recv_tcp ../../mongoose.c:2930\n    #4 0x564b3781dbc8 in mg_do_recv ../../mongoose.c:2887\n    #5 0x564b3781dbe8 in mg_if_can_recv_cb ../../mongoose.c:2893\n    #6 0x564b37824601 in mg_mgr_handle_conn ../../mongoose.c:4009\n    #7 0x564b37825b30 in mg_socket_if_poll ../../mongoose.c:4200\n    #8 0x564b3781bdf5 in mg_mgr_poll ../../mongoose.c:2593\n    #9 0x564b3780d8b2 in main /home/kali/fuzzing/victims/mongoose-6.13/examples/mqtt_broker/mqtt_broker.c:51\n    #10 0x7f51e4d03a86 in __libc_start_main (/lib/x86_64-linux-gnu/libc.so.6+0x21a86)\n\nSUMMARY: AddressSanitizer: heap-buffer-overflow ../../mongoose.c:11082 in mg_mqtt_next_subscribe_topic\nShadow bytes around the buggy address:\n  0x0c047fff8f80: fa fa fd fa fa fa fd fa fa fa fd fd fa fa fd fa\n  0x0c047fff8f90: fa fa fd fa fa fa fd fd fa fa fd fd fa fa fd fd\n  0x0c047fff8fa0: fa fa fd fa fa fa fd fa fa fa fd fd fa fa fd fd\n  0x0c047fff8fb0: fa fa fd fa fa fa fd fa fa fa fd fa fa fa fd fd\n  0x0c047fff8fc0: fa fa fd fa fa fa fd fa fa fa fd fd fa fa fd fd\n=>0x0c047fff8fd0: fa fa 00 00 fa fa fd fa fa fa fd fa fa fa 00[07]\n  0x0c047fff8fe0: fa fa fa fa fa fa fa fa fa fa fa fa fa fa fa fa\n  0x0c047fff8ff0: fa fa fa fa fa fa fa fa fa fa fa fa fa fa fa fa\n  0x0c047fff9000: fa fa fa fa fa fa fa fa fa fa fa fa fa fa fa fa\n  0x0c047fff9010: fa fa fa fa fa fa fa fa fa fa fa fa fa fa fa fa\n  0x0c047fff9020: fa fa fa fa fa fa fa fa fa fa fa fa fa fa fa fa\nShadow byte legend (one shadow byte represents 8 application bytes):\n  Addressable:           00\n  Partially addressable: 01 02 03 04 05 06 07 \n  Heap left redzone:       fa\n  Freed heap region:       fd\n  Stack left redzone:      f1\n  Stack mid redzone:       f2\n  Stack right redzone:     f3\n  Stack after return:      f5\n  Stack use after scope:   f8\n  Global redzone:          f9\n  Global init order:       f6\n  Poisoned by user:        f7\n  Container overflow:      fc\n  Array cookie:            ac\n  Intra object redzone:    bb\n  ASan internal:           fe\n  Left alloca redzone:     ca\n  Right alloca redzone:    cb\n==17242==ABORTING\n'
p3
sS'reallydead'
p4
I-6
sS'signum'
p5
I0
sS'exitcode'
p6
I0
sS'fuzzerPos'
p7
S'C'
p8
sS'corpusData'
p9
(dp10
S'parentFilename'
p11
S'intercept0.pickle'
p12
sS'time'
p13
NsS'filename'
p14
S'intercept0.6935_0.pickle'
p15
sS'seed'
p16
S'6935190858184321370'
p17
sS'fuzzer'
p18
S'Radamsa'
p19
sS'networkData'
p20
(lp21
(dp22
S'latency'
p23
NsS'from'
p24
S'cli'
p25
sS'index'
p26
I0
sS'timeouts'
p27
I0
sS'isFuzzed'
p28
I01
sS'data'
p29
S'\x10\x14\xe2\x80\x86\x00\x04MQTT\x04MQTT\x04\x01\x00<\x00\x04MQTT\x04\x02\xf3\xa0\x81\x80\x00<\x00\xf3\xcb\x91\xa0\x81\x91\x08mq\xe2\x80\x84-spy'
p30
sa(dp31
g27
I0
sg29
S' \x02\x00\x00'
p32
sg24
S'srv'
p33
sg23
Nsg26
I1
sa(dp34
g27
I0
sg29
S'\x82\x0c\x00\x01\x00\x07area-51\x00'
p35
sg24
g25
sg23
Nsg26
I2
sa(dp36
g27
I0
sg29
S'\x92\x03\x00\x01\x00'
p37
sg24
g33
sg23
Nsg26
I3
sa(dp38
g27
I0
sg29
S'0\x0e\x00\x07area-51hello'
p39
sg24
g25
sg23
Nsg26
I4
sa(dp40
g27
I0
sg29
S'0\x0e\x00\x07area-51hello'
p41
sg24
g33
sg23
Nsg26
I5
sa(dp42
g27
I0
sg29
S'\xa2\x0b\x00\x03\x00\x07area-51'
p43
sg24
g25
sg23
Nsg26
I6
sassg14
S'intercept0.6935_0.6935_0.crash'
p44
s.