(dp0
S'serverpid'
p1
I23685
sS'asanOutput'
p2
S'=================================================================\n==23685==ERROR: AddressSanitizer: heap-buffer-overflow on address 0x60200003e392 at pc 0x56398b615058 bp 0x7ffe1a03ac40 sp 0x7ffe1a03ac38\nREAD of size 1 at 0x60200003e392 thread T0\n    #0 0x56398b615057 in getu16 ../../mongoose.c:10706\n    #1 0x56398b6150c9 in scanto ../../mongoose.c:10710\n    #2 0x56398b615c62 in parse_mqtt ../../mongoose.c:10797\n    #3 0x56398b6160a6 in mqtt_handler ../../mongoose.c:10843\n    #4 0x56398b604675 in mg_call ../../mongoose.c:2404\n    #5 0x56398b608008 in mg_recv_tcp ../../mongoose.c:2931\n    #6 0x56398b607bc8 in mg_do_recv ../../mongoose.c:2887\n    #7 0x56398b607be8 in mg_if_can_recv_cb ../../mongoose.c:2893\n    #8 0x56398b60e601 in mg_mgr_handle_conn ../../mongoose.c:4009\n    #9 0x56398b60fb30 in mg_socket_if_poll ../../mongoose.c:4200\n    #10 0x56398b605df5 in mg_mgr_poll ../../mongoose.c:2593\n    #11 0x56398b5f78b2 in main /root/fuzzing/testbeds/mongoose-6.13/examples/mqtt_broker/mqtt_broker.c:51\n    #12 0x2b24b325cb16 in __libc_start_main ../csu/libc-start.c:310\n    #13 0x56398b5f75f9 in _start (/root/fuzzing/testbeds/mongoose-6.13/bin/mqtt_broker-asan+0x65f9)\n\n0x60200003e392 is located 0 bytes to the right of 2-byte region [0x60200003e390,0x60200003e392)\nallocated by thread T0 here:\n    #0 0x2b24b253d2c0 in __interceptor_realloc (/usr/lib/x86_64-linux-gnu/libasan.so.5+0xe92c0)\n    #1 0x56398b5fea0c in mbuf_resize ../../mongoose.c:1549\n    #2 0x56398b5feac8 in mbuf_trim ../../mongoose.c:1563\n    #3 0x56398b607fb0 in mg_recv_tcp ../../mongoose.c:2930\n    #4 0x56398b607bc8 in mg_do_recv ../../mongoose.c:2887\n    #5 0x56398b607be8 in mg_if_can_recv_cb ../../mongoose.c:2893\n    #6 0x56398b60e601 in mg_mgr_handle_conn ../../mongoose.c:4009\n    #7 0x56398b60fb30 in mg_socket_if_poll ../../mongoose.c:4200\n    #8 0x56398b605df5 in mg_mgr_poll ../../mongoose.c:2593\n    #9 0x56398b5f78b2 in main /root/fuzzing/testbeds/mongoose-6.13/examples/mqtt_broker/mqtt_broker.c:51\n    #10 0x2b24b325cb16 in __libc_start_main ../csu/libc-start.c:310\n\nSUMMARY: AddressSanitizer: heap-buffer-overflow ../../mongoose.c:10706 in getu16\nShadow bytes around the buggy address:\n  0x0c047ffffc20: fa fa fd fd fa fa fd fa fa fa fd fa fa fa fd fa\n  0x0c047ffffc30: fa fa fd fd fa fa fd fa fa fa fd fa fa fa fd fd\n  0x0c047ffffc40: fa fa fd fd fa fa fd fd fa fa fd fa fa fa fd fa\n  0x0c047ffffc50: fa fa fd fd fa fa fd fd fa fa fd fa fa fa fd fa\n  0x0c047ffffc60: fa fa fd fa fa fa fd fd fa fa fd fd fa fa 00 00\n=>0x0c047ffffc70: fa fa[02]fa fa fa fa fa fa fa fa fa fa fa fa fa\n  0x0c047ffffc80: fa fa fa fa fa fa fa fa fa fa fa fa fa fa fa fa\n  0x0c047ffffc90: fa fa fa fa fa fa fa fa fa fa fa fa fa fa fa fa\n  0x0c047ffffca0: fa fa fa fa fa fa fa fa fa fa fa fa fa fa fa fa\n  0x0c047ffffcb0: fa fa fa fa fa fa fa fa fa fa fa fa fa fa fa fa\n  0x0c047ffffcc0: fa fa fa fa fa fa fa fa fa fa fa fa fa fa fa fa\nShadow byte legend (one shadow byte represents 8 application bytes):\n  Addressable:           00\n  Partially addressable: 01 02 03 04 05 06 07 \n  Heap left redzone:       fa\n  Freed heap region:       fd\n  Stack left redzone:      f1\n  Stack mid redzone:       f2\n  Stack right redzone:     f3\n  Stack after return:      f5\n  Stack use after scope:   f8\n  Global redzone:          f9\n  Global init order:       f6\n  Poisoned by user:        f7\n  Container overflow:      fc\n  Array cookie:            ac\n  Intra object redzone:    bb\n  ASan internal:           fe\n  Left alloca redzone:     ca\n  Right alloca redzone:    cb\n==23685==ABORTING\n'
p3
sS'reallydead'
p4
I-6
sS'signum'
p5
I0
sS'exitcode'
p6
I0
sS'fuzzerPos'
p7
S'B'
p8
sS'corpusData'
p9
(dp10
S'parentFilename'
p11
S'intercept0.pickle'
p12
sS'time'
p13
NsS'filename'
p14
S'intercept0.1233_6.pickle'
p15
sS'seed'
p16
S'12336744013270713794'
p17
sS'fuzzer'
p18
S'Radamsa'
p19
sS'networkData'
p20
(lp21
(dp22
S'timeouts'
p23
I0
sS'data'
p24
S'\x10\x14\x00\x04MQTT\x04\x02\x00<\x00\x08mqtt-spy'
p25
sS'from'
p26
S'cli'
p27
sS'latency'
p28
NsS'index'
p29
I0
sa(dp30
g23
I1
sg24
S' \x02\x00\x00'
p31
sg26
S'srv'
p32
sg28
Nsg29
I1
sa(dp33
g23
I0
sg24
S'\x82\x0c\x00\x01\x00\x07area-51\x00'
p34
sg26
g27
sg28
Nsg29
I2
sa(dp35
g23
I0
sg24
S'\x92\x03\x00\x01\x00'
p36
sg26
g32
sg28
Nsg29
I3
sa(dp37
g23
I0
sg24
S'0\x0e\x00\x07area-51hello'
p38
sg26
g27
sg28
Nsg29
I4
sa(dp39
g23
I0
sg24
S'0\x0e\x00\x07area-51hello'
p40
sg26
g32
sg28
Nsg29
I5
sa(dp41
g28
Nsg26
g27
sg29
I6
sg23
I0
sS'isFuzzed'
p42
I01
sg24
S'\xa2\x0b\x00\x03\x00\x07area\xef\xbf\xbfrea-51'
p43
sassg14
S'intercept0.1233_6.1233_6.crash'
p44
s.