(dp0
S'serverpid'
p1
I9996
sS'asanOutput'
p2
S'=================================================================\n==9996==ERROR: AddressSanitizer: SEGV on unknown address 0x619000012487 (pc 0x5620a2789baa bp 0x7ffdc3967f00 sp 0x7ffdc3967ed0 T0)\n==9996==The signal is caused by a READ memory access.\n    #0 0x5620a2789ba9 in mg_mqtt_next_subscribe_topic ../../mongoose.c:10131\n    #1 0x5620a278ad7e in mg_mqtt_broker_handle_subscribe ../../mongoose.c:10298\n    #2 0x5620a278b7ed in mg_mqtt_broker ../../mongoose.c:10360\n    #3 0x5620a27880e7 in mqtt_handler ../../mongoose.c:9941\n    #4 0x5620a27738a1 in mg_call ../../mongoose.c:2037\n    #5 0x5620a277724f in mg_recv_common ../../mongoose.c:2512\n    #6 0x5620a27772cb in mg_if_recv_tcp_cb ../../mongoose.c:2516\n    #7 0x5620a277d427 in mg_handle_tcp_read ../../mongoose.c:3388\n    #8 0x5620a277e3a2 in mg_mgr_handle_conn ../../mongoose.c:3513\n    #9 0x5620a277f959 in mg_socket_if_poll ../../mongoose.c:3705\n    #10 0x5620a2774fa8 in mg_mgr_poll ../../mongoose.c:2231\n    #11 0x5620a2768a3a in main /home/kali/fuzzing/victims/mongoose-6.8/examples/mqtt_broker/mqtt_broker.c:43\n    #12 0x7f62dbe21a86 in __libc_start_main (/lib/x86_64-linux-gnu/libc.so.6+0x21a86)\n    #13 0x5620a27687c9 in _start (/home/kali/fuzzing/victims/mongoose-6.8/bin/mqtt_broker-asan+0x77c9)\n\nAddressSanitizer can not provide additional info.\nSUMMARY: AddressSanitizer: SEGV ../../mongoose.c:10131 in mg_mqtt_next_subscribe_topic\n==9996==ABORTING\n'
p3
sS'reallydead'
p4
I-6
sS'signum'
p5
I0
sS'exitcode'
p6
I0
sS'fuzzerPos'
p7
S'C'
p8
sS'corpusData'
p9
(dp10
S'parentFilename'
p11
S'intercept0.pickle'
p12
sS'time'
p13
NsS'filename'
p14
S'intercept0.1231_0.pickle'
p15
sS'seed'
p16
S'12318511384659415038'
p17
sS'fuzzer'
p18
S'Radamsa'
p19
sS'networkData'
p20
(lp21
(dp22
S'latency'
p23
NsS'from'
p24
S'cli'
p25
sS'index'
p26
I0
sS'timeouts'
p27
I0
sS'isFuzzed'
p28
I01
sS'data'
p29
S'\x10\x14\x00\x04MQTT\x04\x02\x00<\x00\x08mqyt-\xe2\x80\xaapts'
p30
sa(dp31
g27
I0
sg29
S' \x02\x00\x00'
p32
sg24
S'srv'
p33
sg23
Nsg26
I1
sa(dp34
g27
I0
sg29
S'\x82\x0c\x00\x01\x00\x07area-51\x00'
p35
sg24
g25
sg23
Nsg26
I2
sa(dp36
g27
I0
sg29
S'\x92\x03\x00\x01\x00'
p37
sg24
g33
sg23
Nsg26
I3
sa(dp38
g27
I0
sg29
S'0\x0e\x00\x07area-51hello'
p39
sg24
g25
sg23
Nsg26
I4
sa(dp40
g27
I0
sg29
S'0\x0e\x00\x07area-51hello'
p41
sg24
g33
sg23
Nsg26
I5
sa(dp42
g27
I0
sg29
S'\xa2\x0b\x00\x03\x00\x07area-51'
p43
sg24
g25
sg23
Nsg26
I6
sassg14
S'intercept0.1231_0.1231_0.crash'
p44
s.