(dp0
S'serverpid'
p1
I10592
sS'asanOutput'
p2
S'=================================================================\n==10592==ERROR: AddressSanitizer: SEGV on unknown address 0x619000015e86 (pc 0x5620381bebaa bp 0x7ffc56a10120 sp 0x7ffc56a100f0 T0)\n==10592==The signal is caused by a READ memory access.\n    #0 0x5620381beba9 in mg_mqtt_next_subscribe_topic ../../mongoose.c:10131\n    #1 0x5620381bfd7e in mg_mqtt_broker_handle_subscribe ../../mongoose.c:10298\n    #2 0x5620381c07ed in mg_mqtt_broker ../../mongoose.c:10360\n    #3 0x5620381bd0e7 in mqtt_handler ../../mongoose.c:9941\n    #4 0x5620381a88a1 in mg_call ../../mongoose.c:2037\n    #5 0x5620381ac24f in mg_recv_common ../../mongoose.c:2512\n    #6 0x5620381ac2cb in mg_if_recv_tcp_cb ../../mongoose.c:2516\n    #7 0x5620381b2427 in mg_handle_tcp_read ../../mongoose.c:3388\n    #8 0x5620381b33a2 in mg_mgr_handle_conn ../../mongoose.c:3513\n    #9 0x5620381b4959 in mg_socket_if_poll ../../mongoose.c:3705\n    #10 0x5620381a9fa8 in mg_mgr_poll ../../mongoose.c:2231\n    #11 0x56203819da3a in main /home/kali/fuzzing/victims/mongoose-6.8/examples/mqtt_broker/mqtt_broker.c:43\n    #12 0x7fb6d128fa86 in __libc_start_main (/lib/x86_64-linux-gnu/libc.so.6+0x21a86)\n    #13 0x56203819d7c9 in _start (/home/kali/fuzzing/victims/mongoose-6.8/bin/mqtt_broker-asan+0x77c9)\n\nAddressSanitizer can not provide additional info.\nSUMMARY: AddressSanitizer: SEGV ../../mongoose.c:10131 in mg_mqtt_next_subscribe_topic\n==10592==ABORTING\n'
p3
sS'reallydead'
p4
I-6
sS'signum'
p5
I0
sS'exitcode'
p6
I0
sS'fuzzerPos'
p7
S'B'
p8
sS'corpusData'
p9
(dp10
S'parentFilename'
p11
S'intercept0.pickle'
p12
sS'time'
p13
NsS'filename'
p14
S'intercept0.1237_2.pickle'
p15
sS'seed'
p16
S'12374718576610154996'
p17
sS'fuzzer'
p18
S'Radamsa'
p19
sS'networkData'
p20
(lp21
(dp22
S'timeouts'
p23
I0
sS'data'
p24
S'\x10\x14\x00\x04MQTT\x04\x02\x00<\x00\x08mqtt-spy'
p25
sS'from'
p26
S'cli'
p27
sS'latency'
p28
NsS'index'
p29
I0
sa(dp30
g23
I0
sg24
S' \x02\x00\x00'
p31
sg26
S'srv'
p32
sg28
F7.390975952148438e-05
sg29
I1
sa(dp33
g28
Nsg26
g27
sg29
I2
sg23
I0
sS'isFuzzed'
p34
I01
sg24
S'\x82\x0c\xa2\x00\xff\x00\x07area-51\x00\x07area-51\x00'
p35
sa(dp36
g23
I1
sg24
S'\x92\x03\x00\x01\x00'
p37
sg26
g32
sg28
Nsg29
I3
sa(dp38
g23
I0
sg24
S'0\x0e\x00\x07area-51hello'
p39
sg26
g27
sg28
Nsg29
I4
sa(dp40
g23
I0
sg24
S'0\x0e\x00\x07area-51hello'
p41
sg26
g32
sg28
Nsg29
I5
sa(dp42
g23
I0
sg24
S'\xa2\x0b\x00\x03\x00\x07area-51'
p43
sg26
g27
sg28
Nsg29
I6
sassg14
S'intercept0.1237_2.1237_2.crash'
p44
s.