(dp0
S'serverpid'
p1
I11024
sS'asanOutput'
p2
S'=================================================================\n==11024==ERROR: AddressSanitizer: heap-buffer-overflow on address 0x619000007ae7 at pc 0x55f4dc3d8baa bp 0x7fff58f29f00 sp 0x7fff58f29ef8\nREAD of size 1 at 0x619000007ae7 thread T0\n    #0 0x55f4dc3d8ba9 in mg_mqtt_next_subscribe_topic ../../mongoose.c:10131\n    #1 0x55f4dc3d9d7e in mg_mqtt_broker_handle_subscribe ../../mongoose.c:10298\n    #2 0x55f4dc3da7ed in mg_mqtt_broker ../../mongoose.c:10360\n    #3 0x55f4dc3d70e7 in mqtt_handler ../../mongoose.c:9941\n    #4 0x55f4dc3c28a1 in mg_call ../../mongoose.c:2037\n    #5 0x55f4dc3c624f in mg_recv_common ../../mongoose.c:2512\n    #6 0x55f4dc3c62cb in mg_if_recv_tcp_cb ../../mongoose.c:2516\n    #7 0x55f4dc3cc427 in mg_handle_tcp_read ../../mongoose.c:3388\n    #8 0x55f4dc3cd3a2 in mg_mgr_handle_conn ../../mongoose.c:3513\n    #9 0x55f4dc3ce959 in mg_socket_if_poll ../../mongoose.c:3705\n    #10 0x55f4dc3c3fa8 in mg_mgr_poll ../../mongoose.c:2231\n    #11 0x55f4dc3b7a3a in main /home/kali/fuzzing/victims/mongoose-6.8/examples/mqtt_broker/mqtt_broker.c:43\n    #12 0x7f48f185ea86 in __libc_start_main (/lib/x86_64-linux-gnu/libc.so.6+0x21a86)\n    #13 0x55f4dc3b77c9 in _start (/home/kali/fuzzing/victims/mongoose-6.8/bin/mqtt_broker-asan+0x77c9)\n\nAddress 0x619000007ae7 is a wild pointer.\nSUMMARY: AddressSanitizer: heap-buffer-overflow ../../mongoose.c:10131 in mg_mqtt_next_subscribe_topic\nShadow bytes around the buggy address:\n  0x0c327fff8f00: fa fa fa fa fa fa fa fa fa fa fa fa fa fa fa fa\n  0x0c327fff8f10: fa fa fa fa fa fa fa fa fa fa fa fa fa fa fa fa\n  0x0c327fff8f20: fa fa fa fa fa fa fa fa fa fa fa fa fa fa fa fa\n  0x0c327fff8f30: fa fa fa fa fa fa fa fa fa fa fa fa fa fa fa fa\n  0x0c327fff8f40: fa fa fa fa fa fa fa fa fa fa fa fa fa fa fa fa\n=>0x0c327fff8f50: fa fa fa fa fa fa fa fa fa fa fa fa[fa]fa fa fa\n  0x0c327fff8f60: fa fa fa fa fa fa fa fa fa fa fa fa fa fa fa fa\n  0x0c327fff8f70: fa fa fa fa fa fa fa fa fa fa fa fa fa fa fa fa\n  0x0c327fff8f80: fa fa fa fa fa fa fa fa fa fa fa fa fa fa fa fa\n  0x0c327fff8f90: fa fa fa fa fa fa fa fa fa fa fa fa fa fa fa fa\n  0x0c327fff8fa0: fa fa fa fa fa fa fa fa fa fa fa fa fa fa fa fa\nShadow byte legend (one shadow byte represents 8 application bytes):\n  Addressable:           00\n  Partially addressable: 01 02 03 04 05 06 07 \n  Heap left redzone:       fa\n  Freed heap region:       fd\n  Stack left redzone:      f1\n  Stack mid redzone:       f2\n  Stack right redzone:     f3\n  Stack after return:      f5\n  Stack use after scope:   f8\n  Global redzone:          f9\n  Global init order:       f6\n  Poisoned by user:        f7\n  Container overflow:      fc\n  Array cookie:            ac\n  Intra object redzone:    bb\n  ASan internal:           fe\n  Left alloca redzone:     ca\n  Right alloca redzone:    cb\n==11024==ABORTING\n'
p3
sS'reallydead'
p4
I-6
sS'signum'
p5
I0
sS'exitcode'
p6
I0
sS'fuzzerPos'
p7
S'C'
p8
sS'corpusData'
p9
(dp10
S'parentFilename'
p11
S'intercept0.pickle'
p12
sS'time'
p13
NsS'filename'
p14
S'intercept0.1524_2.pickle'
p15
sS'seed'
p16
S'15244549272259370683'
p17
sS'fuzzer'
p18
S'Radamsa'
p19
sS'networkData'
p20
(lp21
(dp22
S'timeouts'
p23
I0
sS'data'
p24
S'\x10\x14\x00\x04MQTT\x04\x02\x00<\x00\x08mqtt-spy'
p25
sS'from'
p26
S'cli'
p27
sS'latency'
p28
NsS'index'
p29
I0
sa(dp30
g23
I0
sg24
S' \x02\x00\x00'
p31
sg26
S'srv'
p32
sg28
F0.00037288665771484375
sg29
I1
sa(dp33
g28
Nsg26
g27
sg29
I2
sg23
I0
sS'isFuzzed'
p34
I01
sg24
S'\x82\x0c\x00\x00\x07a18446744073709551615ea-0\x00'
p35
sa(dp36
g23
I1
sg24
S'\x92\x03\x00\x01\x00'
p37
sg26
g32
sg28
Nsg29
I3
sa(dp38
g23
I0
sg24
S'0\x0e\x00\x07area-51hello'
p39
sg26
g27
sg28
Nsg29
I4
sa(dp40
g23
I0
sg24
S'0\x0e\x00\x07area-51hello'
p41
sg26
g32
sg28
Nsg29
I5
sa(dp42
g23
I0
sg24
S'\xa2\x0b\x00\x03\x00\x07area-51'
p43
sg26
g27
sg28
Nsg29
I6
sassg14
S'intercept0.1524_2.1524_2.crash'
p44
s.